
.\rom_0x08000000.elf:     file format elf32-littlearm
.\rom_0x08000000.elf
architecture: armv7e-m, flags 0x00000112:
EXEC_P, HAS_SYMS, D_PAGED
start address 0x08000000

Program Header:
0x70000001 off    0x00005b04 vaddr 0x08004b04 paddr 0x08004b04 align 2**2
         filesz 0x00000008 memsz 0x00000008 flags r--
    LOAD off    0x00001000 vaddr 0x08000000 paddr 0x08000000 align 2**12
         filesz 0x00004f20 memsz 0x00004f20 flags r-x
    LOAD off    0x00006000 vaddr 0x20000000 paddr 0x08004f20 align 2**12
         filesz 0x000001cc memsz 0x00000324 flags rw-
private flags = 0x5000400: [Version5 EABI] [hard-float ABI]

Sections:
Idx Name          Size      VMA       LMA       File off  Algn
  0 .text         000012e0  08000000  08000000  00001000  2**4
                  CONTENTS, ALLOC, LOAD, READONLY, CODE
  1 .text.__cvt   000000be  080012e0  080012e0  000022e0  2**1
                  CONTENTS, ALLOC, LOAD, READONLY, CODE
  2 .text.__exponent 00000076  0800139e  0800139e  0000239e  2**1
                  CONTENTS, ALLOC, LOAD, READONLY, CODE
  3 .text._printf_float 00000448  08001414  08001414  00002414  2**2
                  CONTENTS, ALLOC, LOAD, READONLY, CODE
  4 .text._printf_common 000000ea  0800185c  0800185c  0000285c  2**1
                  CONTENTS, ALLOC, LOAD, READONLY, CODE
  5 .text._printf_i 00000254  08001948  08001948  00002948  2**2
                  CONTENTS, ALLOC, LOAD, READONLY, CODE
  6 .text._printf_r 0000001c  08001b9c  08001b9c  00002b9c  2**1
                  CONTENTS, ALLOC, LOAD, READONLY, CODE
  7 .text.printf  00000024  08001bb8  08001bb8  00002bb8  2**2
                  CONTENTS, ALLOC, LOAD, READONLY, CODE
  8 .text.setvbuf 00000168  08001bdc  08001bdc  00002bdc  2**2
                  CONTENTS, ALLOC, LOAD, READONLY, CODE
  9 .text._vsprintf_r 0000002c  08001d44  08001d44  00002d44  2**2
                  CONTENTS, ALLOC, LOAD, READONLY, CODE
 10 .text.vsprintf 00000014  08001d70  08001d70  00002d70  2**2
                  CONTENTS, ALLOC, LOAD, READONLY, CODE
 11 .text.__localeconv_l 00000004  08001d84  08001d84  00002d84  2**1
                  CONTENTS, ALLOC, LOAD, READONLY, CODE
 12 .text._localeconv_r 00000008  08001d88  08001d88  00002d88  2**2
                  CONTENTS, ALLOC, LOAD, READONLY, CODE
 13 .text.localeconv 00000008  08001d90  08001d90  00002d90  2**2
                  CONTENTS, ALLOC, LOAD, READONLY, CODE
 14 .text.__errno 0000000c  08001d98  08001d98  00002d98  2**2
                  CONTENTS, ALLOC, LOAD, READONLY, CODE
 15 .text.__retarget_lock_init 00000002  08001da4  08001da4  00002da4  2**1
                  CONTENTS, ALLOC, LOAD, READONLY, CODE
 16 .text.__retarget_lock_init_recursive 00000002  08001da6  08001da6  00002da6  2**1
                  CONTENTS, ALLOC, LOAD, READONLY, CODE
 17 .text.__retarget_lock_close 00000002  08001da8  08001da8  00002da8  2**1
                  CONTENTS, ALLOC, LOAD, READONLY, CODE
 18 .text.__retarget_lock_close_recursive 00000002  08001daa  08001daa  00002daa  2**1
                  CONTENTS, ALLOC, LOAD, READONLY, CODE
 19 .text.__retarget_lock_acquire 00000002  08001dac  08001dac  00002dac  2**1
                  CONTENTS, ALLOC, LOAD, READONLY, CODE
 20 .text.__retarget_lock_acquire_recursive 00000002  08001dae  08001dae  00002dae  2**1
                  CONTENTS, ALLOC, LOAD, READONLY, CODE
 21 .text.__retarget_lock_try_acquire 00000004  08001db0  08001db0  00002db0  2**1
                  CONTENTS, ALLOC, LOAD, READONLY, CODE
 22 .text.__retarget_lock_try_acquire_recursive 00000004  08001db4  08001db4  00002db4  2**1
                  CONTENTS, ALLOC, LOAD, READONLY, CODE
 23 .text.__retarget_lock_release 00000002  08001db8  08001db8  00002db8  2**1
                  CONTENTS, ALLOC, LOAD, READONLY, CODE
 24 .text.__retarget_lock_release_recursive 00000002  08001dba  08001dba  00002dba  2**1
                  CONTENTS, ALLOC, LOAD, READONLY, CODE
 25 .text.quorem  00000110  08001dbc  08001dbc  00002dbc  2**1
                  CONTENTS, ALLOC, LOAD, READONLY, CODE
 26 .text._dtoa_r 00000bac  08001ed0  08001ed0  00002ed0  2**3
                  CONTENTS, ALLOC, LOAD, READONLY, CODE
 27 .text._free_r 00000098  08002a7c  08002a7c  00003a7c  2**2
                  CONTENTS, ALLOC, LOAD, READONLY, CODE
 28 .text.malloc  00000010  08002b14  08002b14  00003b14  2**2
                  CONTENTS, ALLOC, LOAD, READONLY, CODE
 29 .text.free    00000010  08002b24  08002b24  00003b24  2**2
                  CONTENTS, ALLOC, LOAD, READONLY, CODE
 30 .text.sbrk_aligned 00000044  08002b34  08002b34  00003b34  2**2
                  CONTENTS, ALLOC, LOAD, READONLY, CODE
 31 .text._malloc_r 000000f8  08002b78  08002b78  00003b78  2**2
                  CONTENTS, ALLOC, LOAD, READONLY, CODE
 32 .text.__malloc_lock 0000000c  08002c70  08002c70  00003c70  2**2
                  CONTENTS, ALLOC, LOAD, READONLY, CODE
 33 .text.__malloc_unlock 0000000c  08002c7c  08002c7c  00003c7c  2**2
                  CONTENTS, ALLOC, LOAD, READONLY, CODE
 34 .text._Balloc 0000007c  08002c88  08002c88  00003c88  2**2
                  CONTENTS, ALLOC, LOAD, READONLY, CODE
 35 .text._Bfree  00000044  08002d04  08002d04  00003d04  2**2
                  CONTENTS, ALLOC, LOAD, READONLY, CODE
 36 .text.__multadd 0000008c  08002d48  08002d48  00003d48  2**2
                  CONTENTS, ALLOC, LOAD, READONLY, CODE
 37 .text.__s2b   00000094  08002dd4  08002dd4  00003dd4  2**2
                  CONTENTS, ALLOC, LOAD, READONLY, CODE
 38 .text.__hi0bits 0000003c  08002e68  08002e68  00003e68  2**1
                  CONTENTS, ALLOC, LOAD, READONLY, CODE
 39 .text.__lo0bits 0000005c  08002ea4  08002ea4  00003ea4  2**1
                  CONTENTS, ALLOC, LOAD, READONLY, CODE
 40 .text.__i2b   0000002c  08002f00  08002f00  00003f00  2**2
                  CONTENTS, ALLOC, LOAD, READONLY, CODE
 41 .text.__multiply 0000016c  08002f2c  08002f2c  00003f2c  2**2
                  CONTENTS, ALLOC, LOAD, READONLY, CODE
 42 .text.__pow5mult 000000b8  08003098  08003098  00004098  2**2
                  CONTENTS, ALLOC, LOAD, READONLY, CODE
 43 .text.__lshift 000000e4  08003150  08003150  00004150  2**2
                  CONTENTS, ALLOC, LOAD, READONLY, CODE
 44 .text.__mcmp  00000036  08003234  08003234  00004234  2**1
                  CONTENTS, ALLOC, LOAD, READONLY, CODE
 45 .text.__mdiff 00000130  0800326c  0800326c  0000426c  2**2
                  CONTENTS, ALLOC, LOAD, READONLY, CODE
 46 .text.__ulp   0000004c  0800339c  0800339c  0000439c  2**2
                  CONTENTS, ALLOC, LOAD, READONLY, CODE
 47 .text.__b2d   00000092  080033e8  080033e8  000043e8  2**1
                  CONTENTS, ALLOC, LOAD, READONLY, CODE
 48 .text.__d2b   000000b0  0800347c  0800347c  0000447c  2**2
                  CONTENTS, ALLOC, LOAD, READONLY, CODE
 49 .text.__ratio 00000062  0800352c  0800352c  0000452c  2**1
                  CONTENTS, ALLOC, LOAD, READONLY, CODE
 50 .text._mprec_log10 0000003c  08003590  08003590  00004590  2**2
                  CONTENTS, ALLOC, LOAD, READONLY, CODE
 51 .text.__copybits 00000046  080035cc  080035cc  000045cc  2**1
                  CONTENTS, ALLOC, LOAD, READONLY, CODE
 52 .text.__any_on 00000042  08003612  08003612  00004612  2**1
                  CONTENTS, ALLOC, LOAD, READONLY, CODE
 53 .text.__ssputs_r 000000c0  08003654  08003654  00004654  2**1
                  CONTENTS, ALLOC, LOAD, READONLY, CODE
 54 .text.__ssprint_r 000000f4  08003714  08003714  00004714  2**1
                  CONTENTS, ALLOC, LOAD, READONLY, CODE
 55 .text._svfprintf_r 000001f0  08003808  08003808  00004808  2**2
                  CONTENTS, ALLOC, LOAD, READONLY, CODE
 56 .text.__sfputc_r 0000002a  080039f8  080039f8  000049f8  2**1
                  CONTENTS, ALLOC, LOAD, READONLY, CODE
 57 .text.__sfputs_r 00000024  08003a22  08003a22  00004a22  2**1
                  CONTENTS, ALLOC, LOAD, READONLY, CODE
 58 .text.__sprint_r 0000001a  08003a46  08003a46  00004a46  2**1
                  CONTENTS, ALLOC, LOAD, READONLY, CODE
 59 .text._vfprintf_r 00000228  08003a60  08003a60  00004a60  2**2
                  CONTENTS, ALLOC, LOAD, READONLY, CODE
 60 .text.vfprintf 00000014  08003c88  08003c88  00004c88  2**2
                  CONTENTS, ALLOC, LOAD, READONLY, CODE
 61 .text.__sflush_r 00000100  08003c9c  08003c9c  00004c9c  2**2
                  CONTENTS, ALLOC, LOAD, READONLY, CODE
 62 .text._fflush_r 00000050  08003d9c  08003d9c  00004d9c  2**1
                  CONTENTS, ALLOC, LOAD, READONLY, CODE
 63 .text.fflush  00000028  08003dec  08003dec  00004dec  2**2
                  CONTENTS, ALLOC, LOAD, READONLY, CODE
 64 .text.std     0000006c  08003e14  08003e14  00004e14  2**2
                  CONTENTS, ALLOC, LOAD, READONLY, CODE
 65 .text.stdio_exit_handler 00000018  08003e80  08003e80  00004e80  2**2
                  CONTENTS, ALLOC, LOAD, READONLY, CODE
 66 .text.cleanup_stdio 00000040  08003e98  08003e98  00004e98  2**2
                  CONTENTS, ALLOC, LOAD, READONLY, CODE
 67 .text.__fp_lock 00000018  08003ed8  08003ed8  00004ed8  2**1
                  CONTENTS, ALLOC, LOAD, READONLY, CODE
 68 .text.__fp_unlock 00000018  08003ef0  08003ef0  00004ef0  2**1
                  CONTENTS, ALLOC, LOAD, READONLY, CODE
 69 .text.global_stdio_init.part.0 00000040  08003f08  08003f08  00004f08  2**2
                  CONTENTS, ALLOC, LOAD, READONLY, CODE
 70 .text.__sfp_lock_acquire 0000000c  08003f48  08003f48  00004f48  2**2
                  CONTENTS, ALLOC, LOAD, READONLY, CODE
 71 .text.__sfp_lock_release 0000000c  08003f54  08003f54  00004f54  2**2
                  CONTENTS, ALLOC, LOAD, READONLY, CODE
 72 .text.__sfp   000000a4  08003f60  08003f60  00004f60  2**2
                  CONTENTS, ALLOC, LOAD, READONLY, CODE
 73 .text.__sinit 00000030  08004004  08004004  00005004  2**2
                  CONTENTS, ALLOC, LOAD, READONLY, CODE
 74 .text.__fp_lock_all 0000001c  08004034  08004034  00005034  2**2
                  CONTENTS, ALLOC, LOAD, READONLY, CODE
 75 .text.__fp_unlock_all 0000001c  08004050  08004050  00005050  2**2
                  CONTENTS, ALLOC, LOAD, READONLY, CODE
 76 .text.__sfvwrite_r 000002a0  0800406c  0800406c  0000506c  2**2
                  CONTENTS, ALLOC, LOAD, READONLY, CODE
 77 .text._fwalk_sglue 0000003a  0800430c  0800430c  0000530c  2**1
                  CONTENTS, ALLOC, LOAD, READONLY, CODE
 78 .text.__swhatbuf_r 00000048  08004346  08004346  00005346  2**1
                  CONTENTS, ALLOC, LOAD, READONLY, CODE
 79 .text.__smakebuf_r 00000072  0800438e  0800438e  0000538e  2**1
                  CONTENTS, ALLOC, LOAD, READONLY, CODE
 80 .text.__sread 00000022  08004400  08004400  00005400  2**1
                  CONTENTS, ALLOC, LOAD, READONLY, CODE
 81 .text.__seofread 00000004  08004422  08004422  00005422  2**1
                  CONTENTS, ALLOC, LOAD, READONLY, CODE
 82 .text.__swrite 00000038  08004426  08004426  00005426  2**1
                  CONTENTS, ALLOC, LOAD, READONLY, CODE
 83 .text.__sseek 00000026  0800445e  0800445e  0000545e  2**1
                  CONTENTS, ALLOC, LOAD, READONLY, CODE
 84 .text.__sclose 00000008  08004484  08004484  00005484  2**1
                  CONTENTS, ALLOC, LOAD, READONLY, CODE
 85 .text.__swbuf_r 0000007a  0800448c  0800448c  0000548c  2**1
                  CONTENTS, ALLOC, LOAD, READONLY, CODE
 86 .text.__swbuf 00000010  08004508  08004508  00005508  2**2
                  CONTENTS, ALLOC, LOAD, READONLY, CODE
 87 .text.__swsetup_r 000000a8  08004518  08004518  00005518  2**2
                  CONTENTS, ALLOC, LOAD, READONLY, CODE
 88 .text.memmove 00000032  080045c0  080045c0  000055c0  2**1
                  CONTENTS, ALLOC, LOAD, READONLY, CODE
 89 .text.memset  00000010  080045f2  080045f2  000055f2  2**1
                  CONTENTS, ALLOC, LOAD, READONLY, CODE
 90 .text._setlocale_r 0000003c  08004604  08004604  00005604  2**2
                  CONTENTS, ALLOC, LOAD, READONLY, CODE
 91 .text.__locale_mb_cur_max 0000000c  08004640  08004640  00005640  2**2
                  CONTENTS, ALLOC, LOAD, READONLY, CODE
 92 .text.setlocale 00000010  0800464c  0800464c  0000564c  2**2
                  CONTENTS, ALLOC, LOAD, READONLY, CODE
 93 .text._close_r 00000020  0800465c  0800465c  0000565c  2**2
                  CONTENTS, ALLOC, LOAD, READONLY, CODE
 94 .text._reclaim_reent 000000bc  0800467c  0800467c  0000567c  2**2
                  CONTENTS, ALLOC, LOAD, READONLY, CODE
 95 .text._fstat_r 00000024  08004738  08004738  00005738  2**2
                  CONTENTS, ALLOC, LOAD, READONLY, CODE
 96 .text._isatty_r 00000020  0800475c  0800475c  0000575c  2**2
                  CONTENTS, ALLOC, LOAD, READONLY, CODE
 97 .text._lseek_r 00000024  0800477c  0800477c  0000577c  2**2
                  CONTENTS, ALLOC, LOAD, READONLY, CODE
 98 .text._read_r 00000024  080047a0  080047a0  000057a0  2**2
                  CONTENTS, ALLOC, LOAD, READONLY, CODE
 99 .text._sbrk_r 00000020  080047c4  080047c4  000057c4  2**2
                  CONTENTS, ALLOC, LOAD, READONLY, CODE
100 .text._write_r 00000024  080047e4  080047e4  000057e4  2**2
                  CONTENTS, ALLOC, LOAD, READONLY, CODE
101 .text.memcpy  0000001c  08004808  08004808  00005808  2**1
                  CONTENTS, ALLOC, LOAD, READONLY, CODE
102 .text.__assert_func 0000003c  08004824  08004824  00005824  2**2
                  CONTENTS, ALLOC, LOAD, READONLY, CODE
103 .text.__assert 0000000a  08004860  08004860  00005860  2**1
                  CONTENTS, ALLOC, LOAD, READONLY, CODE
104 .text._calloc_r 00000028  0800486a  0800486a  0000586a  2**1
                  CONTENTS, ALLOC, LOAD, READONLY, CODE
105 .text._mbtowc_r 00000010  08004894  08004894  00005894  2**2
                  CONTENTS, ALLOC, LOAD, READONLY, CODE
106 .text.__ascii_mbtowc 00000024  080048a4  080048a4  000058a4  2**1
                  CONTENTS, ALLOC, LOAD, READONLY, CODE
107 .text._realloc_r 0000005c  080048c8  080048c8  000058c8  2**1
                  CONTENTS, ALLOC, LOAD, READONLY, CODE
108 .text._wctomb_r 00000010  08004924  08004924  00005924  2**2
                  CONTENTS, ALLOC, LOAD, READONLY, CODE
109 .text.__ascii_wctomb 0000001a  08004934  08004934  00005934  2**1
                  CONTENTS, ALLOC, LOAD, READONLY, CODE
110 .text._fprintf_r 0000001a  0800494e  0800494e  0000594e  2**1
                  CONTENTS, ALLOC, LOAD, READONLY, CODE
111 .text.fprintf 00000024  08004968  08004968  00005968  2**2
                  CONTENTS, ALLOC, LOAD, READONLY, CODE
112 .text.abort   0000000e  0800498c  0800498c  0000598c  2**1
                  CONTENTS, ALLOC, LOAD, READONLY, CODE
113 .text._malloc_usable_size_r 00000010  0800499a  0800499a  0000599a  2**1
                  CONTENTS, ALLOC, LOAD, READONLY, CODE
114 .text._init_signal_r 00000028  080049aa  080049aa  000059aa  2**1
                  CONTENTS, ALLOC, LOAD, READONLY, CODE
115 .text._signal_r 00000030  080049d2  080049d2  000059d2  2**1
                  CONTENTS, ALLOC, LOAD, READONLY, CODE
116 .text._raise_r 00000050  08004a02  08004a02  00005a02  2**1
                  CONTENTS, ALLOC, LOAD, READONLY, CODE
117 .text.__sigtramp_r 00000048  08004a52  08004a52  00005a52  2**1
                  CONTENTS, ALLOC, LOAD, READONLY, CODE
118 .text.raise   00000010  08004a9c  08004a9c  00005a9c  2**2
                  CONTENTS, ALLOC, LOAD, READONLY, CODE
119 .text.signal  00000010  08004aac  08004aac  00005aac  2**2
                  CONTENTS, ALLOC, LOAD, READONLY, CODE
120 .text._init_signal 0000000c  08004abc  08004abc  00005abc  2**2
                  CONTENTS, ALLOC, LOAD, READONLY, CODE
121 .text.__sigtramp 00000010  08004ac8  08004ac8  00005ac8  2**2
                  CONTENTS, ALLOC, LOAD, READONLY, CODE
122 .text._kill_r 00000024  08004ad8  08004ad8  00005ad8  2**2
                  CONTENTS, ALLOC, LOAD, READONLY, CODE
123 .text._getpid_r 00000004  08004afc  08004afc  00005afc  2**1
                  CONTENTS, ALLOC, LOAD, READONLY, CODE
124 .text._exit   00000004  08004b00  08004b00  00005b00  2**2
                  CONTENTS, ALLOC, LOAD, READONLY, CODE
125 .ARM.extab    00000000  08004b04  08004b04  00005b04  2**0
                  CONTENTS, ALLOC, LOAD, READONLY, DATA
126 .ARM.exidx    00000008  08004b04  08004b04  00005b04  2**2
                  CONTENTS, ALLOC, LOAD, READONLY, DATA
127 .rodata       00000410  08004b10  08004b10  00005b10  2**3
                  CONTENTS, ALLOC, LOAD, READONLY, DATA
128 .data         000001cc  20000000  08004f20  00006000  2**2
                  CONTENTS, ALLOC, LOAD, DATA
129 .bss          00000158  200001cc  080050ec  000061cc  2**2
                  ALLOC
130 .debug_info   00002732  00000000  00000000  000061cc  2**0
                  CONTENTS, READONLY, DEBUGGING, OCTETS
131 .debug_abbrev 00000b47  00000000  00000000  000088fe  2**0
                  CONTENTS, READONLY, DEBUGGING, OCTETS
132 .debug_aranges 00000120  00000000  00000000  00009448  2**3
                  CONTENTS, READONLY, DEBUGGING, OCTETS
133 .debug_line   00001353  00000000  00000000  00009568  2**0
                  CONTENTS, READONLY, DEBUGGING, OCTETS
134 .debug_str    00000a97  00000000  00000000  0000a8bb  2**0
                  CONTENTS, READONLY, DEBUGGING, OCTETS
135 .comment      00000045  00000000  00000000  0000b352  2**0
                  CONTENTS, READONLY
136 .ARM.attributes 00000032  00000000  00000000  0000b397  2**0
                  CONTENTS, READONLY
137 .debug_frame  0000160c  00000000  00000000  0000b3cc  2**2
                  CONTENTS, READONLY, DEBUGGING, OCTETS
138 .debug_loclists 000003ac  00000000  00000000  0000c9d8  2**0
                  CONTENTS, READONLY, DEBUGGING, OCTETS
139 .debug_rnglists 0000006d  00000000  00000000  0000cd84  2**0
                  CONTENTS, READONLY, DEBUGGING, OCTETS
140 .debug_line_str 00000224  00000000  00000000  0000cdf1  2**0
                  CONTENTS, READONLY, DEBUGGING, OCTETS
SYMBOL TABLE:
08000000 l    d  .text	00000000 .text
080012e0 l    d  .text.__cvt	00000000 .text.__cvt
0800139e l    d  .text.__exponent	00000000 .text.__exponent
08001414 l    d  .text._printf_float	00000000 .text._printf_float
0800185c l    d  .text._printf_common	00000000 .text._printf_common
08001948 l    d  .text._printf_i	00000000 .text._printf_i
08001b9c l    d  .text._printf_r	00000000 .text._printf_r
08001bb8 l    d  .text.printf	00000000 .text.printf
08001bdc l    d  .text.setvbuf	00000000 .text.setvbuf
08001d44 l    d  .text._vsprintf_r	00000000 .text._vsprintf_r
08001d70 l    d  .text.vsprintf	00000000 .text.vsprintf
08001d84 l    d  .text.__localeconv_l	00000000 .text.__localeconv_l
08001d88 l    d  .text._localeconv_r	00000000 .text._localeconv_r
08001d90 l    d  .text.localeconv	00000000 .text.localeconv
08001d98 l    d  .text.__errno	00000000 .text.__errno
08001da4 l    d  .text.__retarget_lock_init	00000000 .text.__retarget_lock_init
08001da6 l    d  .text.__retarget_lock_init_recursive	00000000 .text.__retarget_lock_init_recursive
08001da8 l    d  .text.__retarget_lock_close	00000000 .text.__retarget_lock_close
08001daa l    d  .text.__retarget_lock_close_recursive	00000000 .text.__retarget_lock_close_recursive
08001dac l    d  .text.__retarget_lock_acquire	00000000 .text.__retarget_lock_acquire
08001dae l    d  .text.__retarget_lock_acquire_recursive	00000000 .text.__retarget_lock_acquire_recursive
08001db0 l    d  .text.__retarget_lock_try_acquire	00000000 .text.__retarget_lock_try_acquire
08001db4 l    d  .text.__retarget_lock_try_acquire_recursive	00000000 .text.__retarget_lock_try_acquire_recursive
08001db8 l    d  .text.__retarget_lock_release	00000000 .text.__retarget_lock_release
08001dba l    d  .text.__retarget_lock_release_recursive	00000000 .text.__retarget_lock_release_recursive
08001dbc l    d  .text.quorem	00000000 .text.quorem
08001ed0 l    d  .text._dtoa_r	00000000 .text._dtoa_r
08002a7c l    d  .text._free_r	00000000 .text._free_r
08002b14 l    d  .text.malloc	00000000 .text.malloc
08002b24 l    d  .text.free	00000000 .text.free
08002b34 l    d  .text.sbrk_aligned	00000000 .text.sbrk_aligned
08002b78 l    d  .text._malloc_r	00000000 .text._malloc_r
08002c70 l    d  .text.__malloc_lock	00000000 .text.__malloc_lock
08002c7c l    d  .text.__malloc_unlock	00000000 .text.__malloc_unlock
08002c88 l    d  .text._Balloc	00000000 .text._Balloc
08002d04 l    d  .text._Bfree	00000000 .text._Bfree
08002d48 l    d  .text.__multadd	00000000 .text.__multadd
08002dd4 l    d  .text.__s2b	00000000 .text.__s2b
08002e68 l    d  .text.__hi0bits	00000000 .text.__hi0bits
08002ea4 l    d  .text.__lo0bits	00000000 .text.__lo0bits
08002f00 l    d  .text.__i2b	00000000 .text.__i2b
08002f2c l    d  .text.__multiply	00000000 .text.__multiply
08003098 l    d  .text.__pow5mult	00000000 .text.__pow5mult
08003150 l    d  .text.__lshift	00000000 .text.__lshift
08003234 l    d  .text.__mcmp	00000000 .text.__mcmp
0800326c l    d  .text.__mdiff	00000000 .text.__mdiff
0800339c l    d  .text.__ulp	00000000 .text.__ulp
080033e8 l    d  .text.__b2d	00000000 .text.__b2d
0800347c l    d  .text.__d2b	00000000 .text.__d2b
0800352c l    d  .text.__ratio	00000000 .text.__ratio
08003590 l    d  .text._mprec_log10	00000000 .text._mprec_log10
080035cc l    d  .text.__copybits	00000000 .text.__copybits
08003612 l    d  .text.__any_on	00000000 .text.__any_on
08003654 l    d  .text.__ssputs_r	00000000 .text.__ssputs_r
08003714 l    d  .text.__ssprint_r	00000000 .text.__ssprint_r
08003808 l    d  .text._svfprintf_r	00000000 .text._svfprintf_r
080039f8 l    d  .text.__sfputc_r	00000000 .text.__sfputc_r
08003a22 l    d  .text.__sfputs_r	00000000 .text.__sfputs_r
08003a46 l    d  .text.__sprint_r	00000000 .text.__sprint_r
08003a60 l    d  .text._vfprintf_r	00000000 .text._vfprintf_r
08003c88 l    d  .text.vfprintf	00000000 .text.vfprintf
08003c9c l    d  .text.__sflush_r	00000000 .text.__sflush_r
08003d9c l    d  .text._fflush_r	00000000 .text._fflush_r
08003dec l    d  .text.fflush	00000000 .text.fflush
08003e14 l    d  .text.std	00000000 .text.std
08003e80 l    d  .text.stdio_exit_handler	00000000 .text.stdio_exit_handler
08003e98 l    d  .text.cleanup_stdio	00000000 .text.cleanup_stdio
08003ed8 l    d  .text.__fp_lock	00000000 .text.__fp_lock
08003ef0 l    d  .text.__fp_unlock	00000000 .text.__fp_unlock
08003f08 l    d  .text.global_stdio_init.part.0	00000000 .text.global_stdio_init.part.0
08003f48 l    d  .text.__sfp_lock_acquire	00000000 .text.__sfp_lock_acquire
08003f54 l    d  .text.__sfp_lock_release	00000000 .text.__sfp_lock_release
08003f60 l    d  .text.__sfp	00000000 .text.__sfp
08004004 l    d  .text.__sinit	00000000 .text.__sinit
08004034 l    d  .text.__fp_lock_all	00000000 .text.__fp_lock_all
08004050 l    d  .text.__fp_unlock_all	00000000 .text.__fp_unlock_all
0800406c l    d  .text.__sfvwrite_r	00000000 .text.__sfvwrite_r
0800430c l    d  .text._fwalk_sglue	00000000 .text._fwalk_sglue
08004346 l    d  .text.__swhatbuf_r	00000000 .text.__swhatbuf_r
0800438e l    d  .text.__smakebuf_r	00000000 .text.__smakebuf_r
08004400 l    d  .text.__sread	00000000 .text.__sread
08004422 l    d  .text.__seofread	00000000 .text.__seofread
08004426 l    d  .text.__swrite	00000000 .text.__swrite
0800445e l    d  .text.__sseek	00000000 .text.__sseek
08004484 l    d  .text.__sclose	00000000 .text.__sclose
0800448c l    d  .text.__swbuf_r	00000000 .text.__swbuf_r
08004508 l    d  .text.__swbuf	00000000 .text.__swbuf
08004518 l    d  .text.__swsetup_r	00000000 .text.__swsetup_r
080045c0 l    d  .text.memmove	00000000 .text.memmove
080045f2 l    d  .text.memset	00000000 .text.memset
08004604 l    d  .text._setlocale_r	00000000 .text._setlocale_r
08004640 l    d  .text.__locale_mb_cur_max	00000000 .text.__locale_mb_cur_max
0800464c l    d  .text.setlocale	00000000 .text.setlocale
0800465c l    d  .text._close_r	00000000 .text._close_r
0800467c l    d  .text._reclaim_reent	00000000 .text._reclaim_reent
08004738 l    d  .text._fstat_r	00000000 .text._fstat_r
0800475c l    d  .text._isatty_r	00000000 .text._isatty_r
0800477c l    d  .text._lseek_r	00000000 .text._lseek_r
080047a0 l    d  .text._read_r	00000000 .text._read_r
080047c4 l    d  .text._sbrk_r	00000000 .text._sbrk_r
080047e4 l    d  .text._write_r	00000000 .text._write_r
08004808 l    d  .text.memcpy	00000000 .text.memcpy
08004824 l    d  .text.__assert_func	00000000 .text.__assert_func
08004860 l    d  .text.__assert	00000000 .text.__assert
0800486a l    d  .text._calloc_r	00000000 .text._calloc_r
08004894 l    d  .text._mbtowc_r	00000000 .text._mbtowc_r
080048a4 l    d  .text.__ascii_mbtowc	00000000 .text.__ascii_mbtowc
080048c8 l    d  .text._realloc_r	00000000 .text._realloc_r
08004924 l    d  .text._wctomb_r	00000000 .text._wctomb_r
08004934 l    d  .text.__ascii_wctomb	00000000 .text.__ascii_wctomb
0800494e l    d  .text._fprintf_r	00000000 .text._fprintf_r
08004968 l    d  .text.fprintf	00000000 .text.fprintf
0800498c l    d  .text.abort	00000000 .text.abort
0800499a l    d  .text._malloc_usable_size_r	00000000 .text._malloc_usable_size_r
080049aa l    d  .text._init_signal_r	00000000 .text._init_signal_r
080049d2 l    d  .text._signal_r	00000000 .text._signal_r
08004a02 l    d  .text._raise_r	00000000 .text._raise_r
08004a52 l    d  .text.__sigtramp_r	00000000 .text.__sigtramp_r
08004a9c l    d  .text.raise	00000000 .text.raise
08004aac l    d  .text.signal	00000000 .text.signal
08004abc l    d  .text._init_signal	00000000 .text._init_signal
08004ac8 l    d  .text.__sigtramp	00000000 .text.__sigtramp
08004ad8 l    d  .text._kill_r	00000000 .text._kill_r
08004afc l    d  .text._getpid_r	00000000 .text._getpid_r
08004b00 l    d  .text._exit	00000000 .text._exit
08004b04 l    d  .ARM.extab	00000000 .ARM.extab
08004b04 l    d  .ARM.exidx	00000000 .ARM.exidx
08004b10 l    d  .rodata	00000000 .rodata
20000000 l    d  .data	00000000 .data
200001cc l    d  .bss	00000000 .bss
00000000 l    d  .debug_info	00000000 .debug_info
00000000 l    d  .debug_abbrev	00000000 .debug_abbrev
00000000 l    d  .debug_aranges	00000000 .debug_aranges
00000000 l    d  .debug_line	00000000 .debug_line
00000000 l    d  .debug_str	00000000 .debug_str
00000000 l    d  .comment	00000000 .comment
00000000 l    d  .ARM.attributes	00000000 .ARM.attributes
00000000 l    d  .debug_frame	00000000 .debug_frame
00000000 l    d  .debug_loclists	00000000 .debug_loclists
00000000 l    d  .debug_rnglists	00000000 .debug_rnglists
00000000 l    d  .debug_line_str	00000000 .debug_line_str
00000000 l    df *ABS*	00000000 crt0.o
4002001c l       *ABS*	00000000 GPIOA_LCKR
40023830 l       *ABS*	00000000 RCC_AHB1ENR
00000000 l    df *ABS*	00000000 clock.c
00000000 l    df *ABS*	00000000 key.c
00000000 l    df *ABS*	00000000 led.c
00000000 l    df *ABS*	00000000 main.c
00000000 l    df *ABS*	00000000 runtime.c
200001cc l     O .bss	00000004 heap.0
00000000 l    df *ABS*	00000000 system_stm32f4xx.c
00000000 l    df *ABS*	00000000 systick.c
00000000 l    df *ABS*	00000000 uart.c
00000000 l    df *ABS*	00000000 nano-vfprintf_float.c
00000000 l    df *ABS*	00000000 nano-vfprintf_i.c
00000000 l    df *ABS*	00000000 printf.c
00000000 l    df *ABS*	00000000 setvbuf.c
00000000 l    df *ABS*	00000000 vsprintf.c
00000000 l    df *ABS*	00000000 localeconv.c
00000000 l    df *ABS*	00000000 impure.c
00000000 l    df *ABS*	00000000 errno.c
00000000 l    df *ABS*	00000000 lock.c
00000000 l    df *ABS*	00000000 libc_a-memchr.o
00000000 l    df *ABS*	00000000 libc_a-strlen.o
00000000 l    df *ABS*	00000000 dtoa.c
08001dbc l     F .text.quorem	00000110 quorem
00000000 l    df *ABS*	00000000 freer.c
00000000 l    df *ABS*	00000000 malloc.c
00000000 l    df *ABS*	00000000 mallocr.c
08002b34 l     F .text.sbrk_aligned	00000044 sbrk_aligned
00000000 l    df *ABS*	00000000 mlock.c
00000000 l    df *ABS*	00000000 mprec.c
08004cf0 l     O .rodata	0000000c p05.0
00000000 l    df *ABS*	00000000 nano-svfprintf.c
00000000 l    df *ABS*	00000000 nano-vfprintf.c
080039f8 l     F .text.__sfputc_r	0000002a __sfputc_r
00000000 l    df *ABS*	00000000 fflush.c
00000000 l    df *ABS*	00000000 findfp.c
08003e14 l     F .text.std	0000006c std
08003e80 l     F .text.stdio_exit_handler	00000018 stdio_exit_handler
08003e98 l     F .text.cleanup_stdio	00000040 cleanup_stdio
08003ed8 l     F .text.__fp_lock	00000018 __fp_lock
08003ef0 l     F .text.__fp_unlock	00000018 __fp_unlock
08003f08 l     F .text.global_stdio_init.part.0	00000040 global_stdio_init.part.0
00000000 l    df *ABS*	00000000 fvwrite.c
00000000 l    df *ABS*	00000000 fwalk.c
00000000 l    df *ABS*	00000000 makebuf.c
00000000 l    df *ABS*	00000000 stdio.c
00000000 l    df *ABS*	00000000 wbuf.c
00000000 l    df *ABS*	00000000 wsetup.c
00000000 l    df *ABS*	00000000 memmove.c
00000000 l    df *ABS*	00000000 memset.c
00000000 l    df *ABS*	00000000 locale.c
00000000 l    df *ABS*	00000000 closer.c
00000000 l    df *ABS*	00000000 reent.c
00000000 l    df *ABS*	00000000 fstatr.c
00000000 l    df *ABS*	00000000 isattyr.c
00000000 l    df *ABS*	00000000 lseekr.c
00000000 l    df *ABS*	00000000 readr.c
00000000 l    df *ABS*	00000000 sbrkr.c
00000000 l    df *ABS*	00000000 writer.c
00000000 l    df *ABS*	00000000 libc_a-strcmp.o
00000000 l    df *ABS*	00000000 memcpy-stub.c
00000000 l    df *ABS*	00000000 assert.c
00000000 l    df *ABS*	00000000 callocr.c
00000000 l    df *ABS*	00000000 mbtowc_r.c
00000000 l    df *ABS*	00000000 reallocr.c
00000000 l    df *ABS*	00000000 wctomb_r.c
00000000 l    df *ABS*	00000000 ctype_.c
00000000 l    df *ABS*	00000000 fprintf.c
00000000 l    df *ABS*	00000000 abort.c
00000000 l    df *ABS*	00000000 msizer.c
00000000 l    df *ABS*	00000000 signal.c
00000000 l    df *ABS*	00000000 signalr.c
00000000 l    df *ABS*	00000000 _arm_muldf3.o
00000000 l    df *ABS*	00000000 _arm_addsubdf3.o
00000000 l    df *ABS*	00000000 _arm_muldivdf3.o
00000000 l    df *ABS*	00000000 _arm_cmpdf2.o
00000000 l    df *ABS*	00000000 _arm_unorddf2.o
00000000 l    df *ABS*	00000000 _arm_fixdfsi.o
00000000 l    df *ABS*	00000000 _exit.c
0800499a g     F .text._malloc_usable_size_r	00000010 _malloc_usable_size_r
080012e0 g     F .text.__cvt	000000be __cvt
08004b20 g     O .rodata	00000008 APBPrescTable
08003590 g     F .text._mprec_log10	0000003c _mprec_log10
08001264 g     F .text	0000002c .hidden __aeabi_dcmpun
08003612 g     F .text.__any_on	00000042 __any_on
0800475c g     F .text._isatty_r	00000020 _isatty_r
08004d00 g     O .rodata	00000028 __mprec_tinytens
08001228 g     F .text	00000012 .hidden __aeabi_dcmple
080000d0 g     F .text	00000020 Key_Poll_Init
080002ec g     F .text	00000004 _getpid
08001164 g     F .text	0000007a .hidden __cmpdf2
0800477c g     F .text._lseek_r	00000024 _lseek_r
08001164 g     F .text	0000007a .hidden __eqdf2
08000cd4 g     F .text	0000005a .hidden __floatdidf
08004ad8 g     F .text._kill_r	00000024 _kill_r
08001bb8 g     F .text.printf	00000024 printf
200001d6 g     O .bss	00000001 __lock___atexit_recursive_mutex
08001d70 g     F .text.vsprintf	00000014 vsprintf
080049d2 g     F .text._signal_r	00000030 _signal_r
0800445e g     F .text.__sseek	00000026 __sseek
08004004 g     F .text.__sinit	00000030 __sinit
0800448c g     F .text.__swbuf_r	0000007a __swbuf_r
08004604 g     F .text._setlocale_r	0000003c _setlocale_r
08002c7c g     F .text.__malloc_unlock	0000000c __malloc_unlock
200001d0 g     O .bss	00000001 __lock___arc4random_mutex
080045c0 g     F .text.memmove	00000032 memmove
08002c88 g     F .text._Balloc	0000007c _Balloc
08001154 g     F .text	0000008a .hidden __gtdf2
08001d98 g     F .text.__errno	0000000c __errno
08001da8 g     F .text.__retarget_lock_close	00000002 __retarget_lock_close
08001d84 g     F .text.__localeconv_l	00000004 __localeconv_l
20000318 g     O .bss	00000004 __stdio_exit_handler
08004738 g     F .text._fstat_r	00000024 _fstat_r
20000320 g     O .bss	00000004 errno
08004422 g     F .text.__seofread	00000004 __seofread
080011f0 g     F .text	00000010 .hidden __aeabi_cdcmple
080003c0 g     F .text	00000008 SysTick_Get_Load_Time
08000178 g     F .text	00000100 Main
08004808 g     F .text.memcpy	0000001c memcpy
080011e0 g     F .text	00000020 .hidden __aeabi_cdrcmple
08001bdc g     F .text.setvbuf	00000168 setvbuf
08003808 g     F .text._svfprintf_r	000001f0 _svfprintf_r
08000c5c g     F .text	00000022 .hidden __floatsidf
0800115c g     F .text	00000082 .hidden __ltdf2
20000000 g     O .data	00000004 SystemCoreClock
0800352c g     F .text.__ratio	00000062 __ratio
08001d44 g     F .text._vsprintf_r	0000002c _vsiprintf_r
20000000 g       .data	00000000 __RW_BASE__
08002b14 g     F .text.malloc	00000010 malloc
08001b9c g     F .text._printf_r	0000001c _printf_r
08004a02 g     F .text._raise_r	00000050 _raise_r
080002dc g     F .text	0000000a _fstat
08004824 g     F .text.__assert_func	0000003c __assert_func
08004d50 g     O .rodata	000000c8 __mprec_tens
08004afc g     F .text._getpid_r	00000004 _getpid_r
08000c3c g     F .text	0000001e .hidden __aeabi_ui2d
08001d88 g     F .text._localeconv_r	00000008 _localeconv_r
0800406c g     F .text.__sfvwrite_r	000002a0 __sfvwrite_r
08002f00 g     F .text.__i2b	0000002c __i2b
08004a52 g     F .text.__sigtramp_r	00000048 __sigtramp_r
080009b8 g     F .text	00000000 .hidden __aeabi_drsub
080047c4 g     F .text._sbrk_r	00000020 _sbrk_r
08000124 g     F .text	00000034 LED_Init
080047a0 g     F .text._read_r	00000024 _read_r
08001214 g     F .text	00000012 .hidden __aeabi_dcmplt
08000070 g     F .text	00000060 Clock_Init
08003dec g     F .text.fflush	00000028 fflush
08000c80 g     F .text	00000042 .hidden __extendsfdf2
08000f84 g     F .text	000001d0 .hidden __aeabi_ddiv
080009c4 g     F .text	00000276 .hidden __adddf3
200001cc g       .data	00000000 __RW_LIMIT__
08000620 g     F .text	0000004c Uart1_Printf
080033e8 g     F .text.__b2d	00000092 __b2d
200001d3 g     O .bss	00000001 __lock___env_recursive_mutex
08000d30 g     F .text	00000254 .hidden __aeabi_dmul
080002e8 g     F .text	00000004 _isatty
080048c8 g     F .text._realloc_r	0000005c _realloc_r
08001d70 g     F .text.vsprintf	00000014 vsiprintf
08004d28 g     O .rodata	00000028 __mprec_bigtens
08002dd4 g     F .text.__s2b	00000094 __s2b
0800498c g     F .text.abort	0000000e abort
08000c3c g     F .text	0000001e .hidden __floatunsidf
08000278 g     F .text	00000038 _sbrk
08003234 g     F .text.__mcmp	00000036 __mcmp
0800066c g     F .text	00000014 Uart1_Get_Pressed
08004034 g     F .text.__fp_lock_all	0000001c __fp_lock_all
0800467c g     F .text._reclaim_reent	000000bc _reclaim_reent
08002e68 g     F .text.__hi0bits	0000003c __hi0bits
08001290 g     F .text	0000004e .hidden __fixdfsi
200001d4 g     O .bss	00000001 __lock___malloc_recursive_mutex
200001e0 g     O .bss	00000138 __sf
08004968 g     F .text.fprintf	00000024 fprintf
080009c4 g     F .text	00000276 .hidden __aeabi_dadd
0800115c g     F .text	00000082 .hidden __ledf2
08003098 g     F .text.__pow5mult	000000b8 __pow5mult
08000cc4 g     F .text	0000006a .hidden __aeabi_ul2d
08000008 g     F .text	00000000 __start
08001dba g     F .text.__retarget_lock_release_recursive	00000002 __retarget_lock_release_recursive
08003654 g     F .text.__ssputs_r	000000c0 __ssputs_r
08001db4 g     F .text.__retarget_lock_try_acquire_recursive	00000004 __retarget_lock_try_acquire_recursive
08001250 g     F .text	00000012 .hidden __aeabi_dcmpgt
08003a22 g     F .text.__sfputs_r	00000024 __sfputs_r
08003f48 g     F .text.__sfp_lock_acquire	0000000c __sfp_lock_acquire
080006a0 g     F .text	00000000 memchr
08001414  w    F .text._printf_float	00000448 _printf_float
08002a7c g     F .text._free_r	00000098 _free_r
08004640 g     F .text.__locale_mb_cur_max	0000000c __locale_mb_cur_max
0800123c g     F .text	00000012 .hidden __aeabi_dcmpge
080009c0 g     F .text	0000027a .hidden __aeabi_dsub
000001cc g       *ABS*	00000000 __RW_SIZE__
08004b10 g     O .rodata	00000010 AHBPrescTable
08001db0 g     F .text.__retarget_lock_try_acquire	00000004 __retarget_lock_try_acquire
08000cc4 g     F .text	0000006a .hidden __floatundidf
080002d0 g     F .text	00000004 _lseek
08003150 g     F .text.__lshift	000000e4 __lshift
08004aac g     F .text.signal	00000010 signal
08003714 g     F .text.__ssprint_r	000000f4 __ssprint_r
08004f20 g       *ABS*	00000000 __RW_LOAD_ADDR__
08000384 g     F .text	00000028 SysTick_Run
08002f2c g     F .text.__multiply	0000016c __multiply
0800347c g     F .text.__d2b	000000b0 __d2b
08001b9c g     F .text._printf_r	0000001c _iprintf_r
08000114 g     F .text	00000010 Key_Wait_Key_Released
0800465c g     F .text._close_r	00000020 _close_r
08000c5c g     F .text	00000022 .hidden __aeabi_i2d
08000000 g       .text	00000000 __RO_BASE__
08001daa g     F .text.__retarget_lock_close_recursive	00000002 __retarget_lock_close_recursive
08004518 g     F .text.__swsetup_r	000000a8 __swsetup_r
08000f84 g     F .text	000001d0 .hidden __divdf3
08003f60 g     F .text.__sfp	000000a4 __sfp
080035cc g     F .text.__copybits	00000046 __copybits
08000d30 g     F .text	00000254 .hidden __muldf3
08004400 g     F .text.__sread	00000022 __sread
0800494e g     F .text._fprintf_r	0000001a _fprintf_r
08002c70 g     F .text.__malloc_lock	0000000c __malloc_lock
08003d9c g     F .text._fflush_r	00000050 _fflush_r
0800486a g     F .text._calloc_r	00000028 _calloc_r
08001dae g     F .text.__retarget_lock_acquire_recursive	00000002 __retarget_lock_acquire_recursive
080045f2 g     F .text.memset	00000010 memset
08001da6 g     F .text.__retarget_lock_init_recursive	00000002 __retarget_lock_init_recursive
08004508 g     F .text.__swbuf	00000010 __swbuf
20000324 g       .bss	00000000 __ZI_LIMIT__
08004484 g     F .text.__sclose	00000008 __sclose
08001ed0 g     F .text._dtoa_r	00000bac _dtoa_r
08002b78 g     F .text._malloc_r	000000f8 _malloc_r
08004934 g     F .text.__ascii_wctomb	0000001a __ascii_wctomb
08000cd4 g     F .text	0000005a .hidden __aeabi_l2d
080005f0 g     F .text	00000030 Uart1_Send_String
080005cc g     F .text	00000024 Uart1_Send_Byte
0800494e g     F .text._fprintf_r	0000001a _fiprintf_r
08004abc g     F .text._init_signal	0000000c _init_signal
080000f0 g     F .text	00000014 Key_Get_Pressed
080004c4 g     F .text	00000024 Uart2_Send_Byte
08004894 g     F .text._mbtowc_r	00000010 _mbtowc_r
08000750 g     F .text	00000014 strcmp
08004f20 g       .rodata	00000000 __RO_LIMIT__
08003c88 g     F .text.vfprintf	00000014 vfiprintf
08000300 g     F .text	00000014 SystemInit
08001da4 g     F .text.__retarget_lock_init	00000002 __retarget_lock_init
08001164 g     F .text	0000007a .hidden __nedf2
08001bb8 g     F .text.printf	00000024 iprintf
0800139e g     F .text.__exponent	00000076 __exponent
2000031c g     O .bss	00000004 _PathLocale
080047e4 g     F .text._write_r	00000024 _write_r
08001d44 g     F .text._vsprintf_r	0000002c _vsprintf_r
0800464c g     F .text.setlocale	00000010 setlocale
080003d8 g     F .text	000000ec Uart2_Init
0800185c g     F .text._printf_common	000000ea _printf_common
20000004 g     O .data	00000004 _impure_ptr
08003c9c g     F .text.__sflush_r	00000100 __sflush_r
0800430c g     F .text._fwalk_sglue	0000003a _fwalk_sglue
08003808 g     F .text._svfprintf_r	000001f0 _svfiprintf_r
00000158 g       *ABS*	00000000 __ZI_SIZE__
080048a4 g     F .text.__ascii_mbtowc	00000024 __ascii_mbtowc
0800339c g     F .text.__ulp	0000004c __ulp
08004050 g     F .text.__fp_unlock_all	0000001c __fp_unlock_all
080003c8 g     F .text	0000000e SysTick_Stop
08000168 g     F .text	00000010 LED_Off
200001cc g       .bss	00000000 __ZI_BASE__
08001d90 g     F .text.localeconv	00000008 localeconv
08004346 g     F .text.__swhatbuf_r	00000048 __swhatbuf_r
08001200 g     F .text	00000012 .hidden __aeabi_dcmpeq
20000054 g     O .data	0000000c __sglue
080002b0 g     F .text	0000001a _write
08000104 g     F .text	00000010 Key_Wait_Key_Pressed
080004e8 g     F .text	000000e4 Uart1_Init
200001d5 g     O .bss	00000001 __lock___at_quick_exit_mutex
08004426 g     F .text.__swrite	00000038 __swrite
08004968 g     F .text.fprintf	00000024 fiprintf
08003a60 g     F .text._vfprintf_r	00000228 _vfiprintf_r
08000314 g     F .text	00000070 SystemCoreClockUpdate
0800326c g     F .text.__mdiff	00000130 __mdiff
08001290 g     F .text	0000004e .hidden __aeabi_d2iz
080002f0 g     F .text	00000010 _kill
20000008 g     O .data	0000004c _impure_data
08003f54 g     F .text.__sfp_lock_release	0000000c __sfp_lock_release
08004e18 g     O .rodata	00000101 _ctype_
080002cc g     F .text	00000004 _read
08001dac g     F .text.__retarget_lock_acquire	00000002 __retarget_lock_acquire
08001264 g     F .text	0000002c .hidden __unorddf2
08001db8 g     F .text.__retarget_lock_release	00000002 __retarget_lock_release
08004b00 g     F .text._exit	00000002 _exit
200001d1 g     O .bss	00000001 __lock___dd_hash_mutex
0800438e g     F .text.__smakebuf_r	00000072 __smakebuf_r
200001d2 g     O .bss	00000001 __lock___tz_mutex
080003b8 g     F .text	00000008 SysTick_Get_Time
08000740 g     F .text	00000010 strlen
08001948 g     F .text._printf_i	00000254 _printf_i
080049aa g     F .text._init_signal_r	00000028 _init_signal_r
080011f0 g     F .text	00000010 .hidden __aeabi_cdcmpeq
08001154 g     F .text	0000008a .hidden __gedf2
200001d8 g     O .bss	00000004 __malloc_sbrk_start
08000680 g     F .text	00000014 Uart1_Get_Char
08004860 g     F .text.__assert	0000000a __assert
08000158 g     F .text	00000010 LED_On
08003a46 g     F .text.__sprint_r	0000001a __sprint_r
08000c80 g     F .text	00000042 .hidden __aeabi_f2d
200001dc g     O .bss	00000004 __malloc_free_list
08004924 g     F .text._wctomb_r	00000010 _wctomb_r
080009c0 g     F .text	0000027a .hidden __subdf3
08003a60 g     F .text._vfprintf_r	00000228 _vfprintf_r
08002ea4 g     F .text.__lo0bits	0000005c __lo0bits
08004ac8 g     F .text.__sigtramp	00000010 __sigtramp
20000060 g     O .data	0000016c __global_locale
080003ac g     F .text	0000000c SysTick_Check_Timeout
08003c88 g     F .text.vfprintf	00000014 vfprintf
200001d7 g     O .bss	00000001 __lock___sfp_recursive_mutex
08004a9c g     F .text.raise	00000010 raise
080002d4 g     F .text	00000006 _close
08002b24 g     F .text.free	00000010 free
08002d48 g     F .text.__multadd	0000008c __multadd
08002d04 g     F .text._Bfree	00000044 _Bfree



Disassembly of section .text:

08000000 <__RO_BASE__>:
 8000000:	20020000 			@ <UNDEFINED> instruction: 20020000
 8000004:	08000009 			@ <UNDEFINED> instruction: 08000009

08000008 <__start>:

	.equ GPIOA_LCKR,	0x4002001C @ Lock PA[14:13] for ST-LINK
	.equ RCC_AHB1ENR,  	0x40023830 @ PA : [0] = 1, PC : [2] = 1

	@ GPIOA, GPIOC clock on
	LDR   	r0, =RCC_AHB1ENR
 8000008:	4813      	ldr	r0, [pc, #76]	@ (8000058 <__start+0x50>)
	LDR   	r1, [r0]
 800000a:	6801      	ldr	r1, [r0, #0]
	ORR	  	r1, r1, #(0x1<<2)|(0x1<<0)
 800000c:	f041 0105 	orr.w	r1, r1, #5
	STR   	r1, [r0]
 8000010:	6001      	str	r1, [r0, #0]

	@ Lock PA[14:13] pin configuration for ST-LINK
	LDR		r0, =GPIOA_LCKR
 8000012:	4812      	ldr	r0, [pc, #72]	@ (800005c <__start+0x54>)
	LDR		r1, =(0x1<<16)|(0x3<<13)
 8000014:	f44f 31b0 	mov.w	r1, #90112	@ 0x16000
	STR		r1, [r0]
 8000018:	6001      	str	r1, [r0, #0]
	LDR		r1, =(0x0<<16)|(0x3<<13)
 800001a:	f44f 41c0 	mov.w	r1, #24576	@ 0x6000
	STR		r1, [r0]
 800001e:	6001      	str	r1, [r0, #0]
	LDR		r1, =(0x1<<16)|(0x3<<13)
 8000020:	f44f 31b0 	mov.w	r1, #90112	@ 0x16000
	STR		r1, [r0]
 8000024:	6001      	str	r1, [r0, #0]
	LDR		r1, [r0]
 8000026:	6801      	ldr	r1, [r0, #0]
	.extern __RO_LIMIT__
	.extern __RW_BASE__
	.extern __ZI_BASE__
	.extern __ZI_LIMIT__

	LDR		r0, =__RO_LIMIT__
 8000028:	480d      	ldr	r0, [pc, #52]	@ (8000060 <__start+0x58>)
	LDR		r1, =__RW_BASE__
 800002a:	490e      	ldr	r1, [pc, #56]	@ (8000064 <__start+0x5c>)
	LDR		r3, =__ZI_BASE__
 800002c:	4b0e      	ldr	r3, [pc, #56]	@ (8000068 <__start+0x60>)

	CMP		r0, r1
 800002e:	4288      	cmp	r0, r1
	BEQ		2f
 8000030:	d006      	beq.n	8000040 <__start+0x38>

1:
	CMP		r1, r3
 8000032:	4299      	cmp	r1, r3
	ITT		LO
 8000034:	bf3c      	itt	cc
	LDRLO	r2, [r0], #4
 8000036:	f850 2b04 	ldrcc.w	r2, [r0], #4
	STRLO	r2, [r1], #4
 800003a:	f841 2b04 	strcc.w	r2, [r1], #4
	BLO		1b
 800003e:	d3f8      	bcc.n	8000032 <__start+0x2a>

2:
	LDR		r1, =__ZI_LIMIT__
 8000040:	490a      	ldr	r1, [pc, #40]	@ (800006c <__start+0x64>)
	MOV		r2, #0x0
 8000042:	f04f 0200 	mov.w	r2, #0
3:
	CMP		r3, r1
 8000046:	428b      	cmp	r3, r1
	ITT		lo
 8000048:	bf3c      	itt	cc
	STRLO	r2, [r3], #4
 800004a:	f843 2b04 	strcc.w	r2, [r3], #4
	BLO		3b
 800004e:	e7fa      	bcc.n	8000046 <__start+0x3e>

	.extern Main

	BL		Main
 8000050:	f000 f892 	bl	8000178 <Main>

	B		.
 8000054:	e7fe      	b.n	8000054 <__start+0x4c>
 8000056:	38300000 			@ <UNDEFINED> instruction: 38300000
	LDR   	r0, =RCC_AHB1ENR
 800005a:	001c4002 			@ <UNDEFINED> instruction: 001c4002
	LDR		r0, =GPIOA_LCKR
 800005e:	4f204002 			@ <UNDEFINED> instruction: 4f204002
	LDR		r0, =__RO_LIMIT__
 8000062:	00000800 			@ <UNDEFINED> instruction: 00000800
	LDR		r1, =__RW_BASE__
 8000066:	01cc2000 			@ <UNDEFINED> instruction: 01cc2000
	LDR		r3, =__ZI_BASE__
 800006a:	03242000 			@ <UNDEFINED> instruction: 03242000
	LDR		r1, =__ZI_LIMIT__
 800006e:	 			@ <UNDEFINED> instruction: 4a142000

08000070 <Clock_Init>:
 8000070:	4a14      	ldr	r2, [pc, #80]	@ (80000c4 <Clock_Init+0x54>)
 8000072:	6813      	ldr	r3, [r2, #0]
 8000074:	f043 0301 	orr.w	r3, r3, #1
 8000078:	6013      	str	r3, [r2, #0]
 800007a:	6813      	ldr	r3, [r2, #0]
 800007c:	0799      	lsls	r1, r3, #30
 800007e:	d5fc      	bpl.n	800007a <Clock_Init+0xa>
 8000080:	4b11      	ldr	r3, [pc, #68]	@ (80000c8 <Clock_Init+0x58>)
 8000082:	4912      	ldr	r1, [pc, #72]	@ (80000cc <Clock_Init+0x5c>)
 8000084:	f44f 5cc0 	mov.w	ip, #6144	@ 0x1800
 8000088:	f240 7003 	movw	r0, #1795	@ 0x703
 800008c:	f8c3 c000 	str.w	ip, [r3]
 8000090:	6018      	str	r0, [r3, #0]
 8000092:	6051      	str	r1, [r2, #4]
 8000094:	6813      	ldr	r3, [r2, #0]
 8000096:	490b      	ldr	r1, [pc, #44]	@ (80000c4 <Clock_Init+0x54>)
 8000098:	f043 7380 	orr.w	r3, r3, #16777216	@ 0x1000000
 800009c:	6013      	str	r3, [r2, #0]
 800009e:	680b      	ldr	r3, [r1, #0]
 80000a0:	019b      	lsls	r3, r3, #6
 80000a2:	d5fc      	bpl.n	800009e <Clock_Init+0x2e>
 80000a4:	f44f 5380 	mov.w	r3, #4096	@ 0x1000
 80000a8:	608b      	str	r3, [r1, #8]
 80000aa:	688b      	ldr	r3, [r1, #8]
 80000ac:	4a05      	ldr	r2, [pc, #20]	@ (80000c4 <Clock_Init+0x54>)
 80000ae:	f023 0303 	bic.w	r3, r3, #3
 80000b2:	f043 0302 	orr.w	r3, r3, #2
 80000b6:	608b      	str	r3, [r1, #8]
 80000b8:	6893      	ldr	r3, [r2, #8]
 80000ba:	f003 030c 	and.w	r3, r3, #12
 80000be:	2b08      	cmp	r3, #8
 80000c0:	d1fa      	bne.n	80000b8 <Clock_Init+0x48>
 80000c2:	4770      	bx	lr
 80000c4:	40023800 			@ <UNDEFINED> instruction: 40023800
 80000c8:	40023c00 			@ <UNDEFINED> instruction: 40023c00
 80000cc:	08013008 			@ <UNDEFINED> instruction: 08013008

080000d0 <Key_Poll_Init>:
 80000d0:	4905      	ldr	r1, [pc, #20]	@ (80000e8 <Key_Poll_Init+0x18>)
 80000d2:	4a06      	ldr	r2, [pc, #24]	@ (80000ec <Key_Poll_Init+0x1c>)
 80000d4:	6b0b      	ldr	r3, [r1, #48]	@ 0x30
 80000d6:	f043 0304 	orr.w	r3, r3, #4
 80000da:	630b      	str	r3, [r1, #48]	@ 0x30
 80000dc:	6813      	ldr	r3, [r2, #0]
 80000de:	f023 6340 	bic.w	r3, r3, #201326592	@ 0xc000000
 80000e2:	6013      	str	r3, [r2, #0]
 80000e4:	4770      	bx	lr
 80000e6:	bf00      	nop
 80000e8:	40023800 			@ <UNDEFINED> instruction: 40023800
 80000ec:	40020800 			@ <UNDEFINED> instruction: 40020800

080000f0 <Key_Get_Pressed>:
 80000f0:	4b03      	ldr	r3, [pc, #12]	@ (8000100 <Key_Get_Pressed+0x10>)
 80000f2:	6918      	ldr	r0, [r3, #16]
 80000f4:	f3c0 3040 	ubfx	r0, r0, #13, #1
 80000f8:	f080 0001 	eor.w	r0, r0, #1
 80000fc:	4770      	bx	lr
 80000fe:	bf00      	nop
 8000100:	40020800 			@ <UNDEFINED> instruction: 40020800

08000104 <Key_Wait_Key_Pressed>:
 8000104:	4a02      	ldr	r2, [pc, #8]	@ (8000110 <Key_Wait_Key_Pressed+0xc>)
 8000106:	6913      	ldr	r3, [r2, #16]
 8000108:	049b      	lsls	r3, r3, #18
 800010a:	d4fc      	bmi.n	8000106 <Key_Wait_Key_Pressed+0x2>
 800010c:	4770      	bx	lr
 800010e:	bf00      	nop
 8000110:	40020800 			@ <UNDEFINED> instruction: 40020800

08000114 <Key_Wait_Key_Released>:
 8000114:	4a02      	ldr	r2, [pc, #8]	@ (8000120 <Key_Wait_Key_Released+0xc>)
 8000116:	6913      	ldr	r3, [r2, #16]
 8000118:	049b      	lsls	r3, r3, #18
 800011a:	d5fc      	bpl.n	8000116 <Key_Wait_Key_Released+0x2>
 800011c:	4770      	bx	lr
 800011e:	bf00      	nop
 8000120:	40020800 			@ <UNDEFINED> instruction: 40020800

08000124 <LED_Init>:
 8000124:	490a      	ldr	r1, [pc, #40]	@ (8000150 <LED_Init+0x2c>)
 8000126:	4b0b      	ldr	r3, [pc, #44]	@ (8000154 <LED_Init+0x30>)
 8000128:	6b0a      	ldr	r2, [r1, #48]	@ 0x30
 800012a:	f042 0201 	orr.w	r2, r2, #1
 800012e:	630a      	str	r2, [r1, #48]	@ 0x30
 8000130:	681a      	ldr	r2, [r3, #0]
 8000132:	f422 6240 	bic.w	r2, r2, #3072	@ 0xc00
 8000136:	f442 6280 	orr.w	r2, r2, #1024	@ 0x400
 800013a:	601a      	str	r2, [r3, #0]
 800013c:	685a      	ldr	r2, [r3, #4]
 800013e:	f022 0220 	bic.w	r2, r2, #32
 8000142:	605a      	str	r2, [r3, #4]
 8000144:	695a      	ldr	r2, [r3, #20]
 8000146:	f022 0220 	bic.w	r2, r2, #32
 800014a:	615a      	str	r2, [r3, #20]
 800014c:	4770      	bx	lr
 800014e:	bf00      	nop
 8000150:	40023800 			@ <UNDEFINED> instruction: 40023800
 8000154:	40020000 			@ <UNDEFINED> instruction: 40020000

08000158 <LED_On>:
 8000158:	4a02      	ldr	r2, [pc, #8]	@ (8000164 <LED_On+0xc>)
 800015a:	6953      	ldr	r3, [r2, #20]
 800015c:	f043 0320 	orr.w	r3, r3, #32
 8000160:	6153      	str	r3, [r2, #20]
 8000162:	4770      	bx	lr
 8000164:	40020000 			@ <UNDEFINED> instruction: 40020000

08000168 <LED_Off>:
 8000168:	4a02      	ldr	r2, [pc, #8]	@ (8000174 <LED_Off+0xc>)
 800016a:	6953      	ldr	r3, [r2, #20]
 800016c:	f023 0320 	bic.w	r3, r3, #32
 8000170:	6153      	str	r3, [r2, #20]
 8000172:	4770      	bx	lr
 8000174:	40020000 			@ <UNDEFINED> instruction: 40020000

08000178 <Main>:
 8000178:	b570      	push	{r4, r5, r6, lr}
 800017a:	4a39      	ldr	r2, [pc, #228]	@ (8000260 <Main+0xe8>)
 800017c:	f8d2 3088 	ldr.w	r3, [r2, #136]	@ 0x88
 8000180:	f443 0370 	orr.w	r3, r3, #15728640	@ 0xf00000
 8000184:	b082      	sub	sp, #8
 8000186:	f8c2 3088 	str.w	r3, [r2, #136]	@ 0x88
 800018a:	f7ff ff71 	bl	8000070 <Clock_Init>
 800018e:	f44f 30e1 	mov.w	r0, #115200	@ 0x1c200
 8000192:	f000 f921 	bl	80003d8 <Uart2_Init>
 8000196:	4a33      	ldr	r2, [pc, #204]	@ (8000264 <Main+0xec>)
 8000198:	6811      	ldr	r1, [r2, #0]
 800019a:	2300      	movs	r3, #0
 800019c:	2202      	movs	r2, #2
 800019e:	6888      	ldr	r0, [r1, #8]
 80001a0:	4619      	mov	r1, r3
 80001a2:	f001 fd1b 	bl	8001bdc <setvbuf>
 80001a6:	f7ff ffbd 	bl	8000124 <LED_Init>
 80001aa:	482f      	ldr	r0, [pc, #188]	@ (8000268 <Main+0xf0>)
 80001ac:	f001 fd04 	bl	8001bb8 <iprintf>
 80001b0:	2301      	movs	r3, #1
 80001b2:	9300      	str	r3, [sp, #0]
 80001b4:	9b00      	ldr	r3, [sp, #0]
 80001b6:	2b04      	cmp	r3, #4
 80001b8:	dc2f      	bgt.n	800021a <Main+0xa2>
 80001ba:	a527      	add	r5, pc, #156	@ (adr r5, 8000258 <Main+0xe0>)
 80001bc:	e9d5 4500 	ldrd	r4, r5, [r5]
 80001c0:	f44f 707a 	mov.w	r0, #1000	@ 0x3e8
 80001c4:	f000 f8de 	bl	8000384 <SysTick_Run>
 80001c8:	2200      	movs	r2, #0
 80001ca:	9b00      	ldr	r3, [sp, #0]
 80001cc:	9201      	str	r2, [sp, #4]
 80001ce:	9901      	ldr	r1, [sp, #4]
 80001d0:	ebb1 4f83 	cmp.w	r1, r3, lsl #18
 80001d4:	ea4f 4283 	mov.w	r2, r3, lsl #18
 80001d8:	d205      	bcs.n	80001e6 <Main+0x6e>
 80001da:	9b01      	ldr	r3, [sp, #4]
 80001dc:	3301      	adds	r3, #1
 80001de:	9301      	str	r3, [sp, #4]
 80001e0:	9b01      	ldr	r3, [sp, #4]
 80001e2:	4293      	cmp	r3, r2
 80001e4:	d3f9      	bcc.n	80001da <Main+0x62>
 80001e6:	f000 f8ef 	bl	80003c8 <SysTick_Stop>
 80001ea:	f000 f8e9 	bl	80003c0 <SysTick_Get_Load_Time>
 80001ee:	4606      	mov	r6, r0
 80001f0:	f000 f8e2 	bl	80003b8 <SysTick_Get_Time>
 80001f4:	1a30      	subs	r0, r6, r0
 80001f6:	f000 fd21 	bl	8000c3c <__aeabi_ui2d>
 80001fa:	462b      	mov	r3, r5
 80001fc:	4622      	mov	r2, r4
 80001fe:	f000 fd97 	bl	8000d30 <__aeabi_dmul>
 8000202:	f001 f845 	bl	8001290 <__aeabi_d2iz>
 8000206:	4601      	mov	r1, r0
 8000208:	4818      	ldr	r0, [pc, #96]	@ (800026c <Main+0xf4>)
 800020a:	f001 fcd5 	bl	8001bb8 <iprintf>
 800020e:	9b00      	ldr	r3, [sp, #0]
 8000210:	3301      	adds	r3, #1
 8000212:	9300      	str	r3, [sp, #0]
 8000214:	9b00      	ldr	r3, [sp, #0]
 8000216:	2b04      	cmp	r3, #4
 8000218:	ddd2      	ble.n	80001c0 <Main+0x48>
 800021a:	4815      	ldr	r0, [pc, #84]	@ (8000270 <Main+0xf8>)
 800021c:	f001 fccc 	bl	8001bb8 <iprintf>
 8000220:	2300      	movs	r3, #0
 8000222:	f44f 707a 	mov.w	r0, #1000	@ 0x3e8
 8000226:	9300      	str	r3, [sp, #0]
 8000228:	f000 f8ac 	bl	8000384 <SysTick_Run>
 800022c:	f000 f8be 	bl	80003ac <SysTick_Check_Timeout>
 8000230:	2800      	cmp	r0, #0
 8000232:	d0fb      	beq.n	800022c <Main+0xb4>
 8000234:	9b00      	ldr	r3, [sp, #0]
 8000236:	f083 0201 	eor.w	r2, r3, #1
 800023a:	2b01      	cmp	r3, #1
 800023c:	9200      	str	r2, [sp, #0]
 800023e:	d005      	beq.n	800024c <Main+0xd4>
 8000240:	f7ff ff8a 	bl	8000158 <LED_On>
 8000244:	480b      	ldr	r0, [pc, #44]	@ (8000274 <Main+0xfc>)
 8000246:	f001 fcb7 	bl	8001bb8 <iprintf>
 800024a:	e7ef      	b.n	800022c <Main+0xb4>
 800024c:	f7ff ff8c 	bl	8000168 <LED_Off>
 8000250:	e7f8      	b.n	8000244 <Main+0xcc>
 8000252:	bf00      	nop
 8000254:	f3af 8000 	nop.w
 8000258:	c3ece2a5 			@ <UNDEFINED> instruction: c3ece2a5
 800025c:	3f15d867 			@ <UNDEFINED> instruction: 3f15d867
 8000260:	e000ed00 			@ <UNDEFINED> instruction: e000ed00
 8000264:	20000004 			@ <UNDEFINED> instruction: 20000004
 8000268:	08004b28 			@ <UNDEFINED> instruction: 08004b28
 800026c:	08004b44 			@ <UNDEFINED> instruction: 08004b44
 8000270:	08004b5c 			@ <UNDEFINED> instruction: 08004b5c
 8000274:	08004b78 			@ <UNDEFINED> instruction: 08004b78

08000278 <_sbrk>:
 8000278:	490b      	ldr	r1, [pc, #44]	@ (80002a8 <_sbrk+0x30>)
 800027a:	4b0c      	ldr	r3, [pc, #48]	@ (80002ac <_sbrk+0x34>)
 800027c:	680a      	ldr	r2, [r1, #0]
 800027e:	f023 0307 	bic.w	r3, r3, #7
 8000282:	b162      	cbz	r2, 800029e <_sbrk+0x26>
 8000284:	4694      	mov	ip, r2
 8000286:	3007      	adds	r0, #7
 8000288:	4460      	add	r0, ip
 800028a:	f020 0007 	bic.w	r0, r0, #7
 800028e:	f503 5380 	add.w	r3, r3, #4096	@ 0x1000
 8000292:	4298      	cmp	r0, r3
 8000294:	bf2c      	ite	cs
 8000296:	2200      	movcs	r2, #0
 8000298:	6008      	strcc	r0, [r1, #0]
 800029a:	4610      	mov	r0, r2
 800029c:	4770      	bx	lr
 800029e:	461a      	mov	r2, r3
 80002a0:	600b      	str	r3, [r1, #0]
 80002a2:	469c      	mov	ip, r3
 80002a4:	e7ef      	b.n	8000286 <_sbrk+0xe>
 80002a6:	bf00      	nop
 80002a8:	200001cc 			@ <UNDEFINED> instruction: 200001cc
 80002ac:	2000032b 			@ <UNDEFINED> instruction: 2000032b

080002b0 <_write>:
 80002b0:	b570      	push	{r4, r5, r6, lr}
 80002b2:	1e16      	subs	r6, r2, #0
 80002b4:	dd07      	ble.n	80002c6 <_write+0x16>
 80002b6:	460c      	mov	r4, r1
 80002b8:	198d      	adds	r5, r1, r6
 80002ba:	f814 0b01 	ldrb.w	r0, [r4], #1
 80002be:	f000 f901 	bl	80004c4 <Uart2_Send_Byte>
 80002c2:	42a5      	cmp	r5, r4
 80002c4:	d1f9      	bne.n	80002ba <_write+0xa>
 80002c6:	4630      	mov	r0, r6
 80002c8:	bd70      	pop	{r4, r5, r6, pc}
 80002ca:	bf00      	nop

080002cc <_read>:
 80002cc:	2000      	movs	r0, #0
 80002ce:	4770      	bx	lr

080002d0 <_lseek>:
 80002d0:	2000      	movs	r0, #0
 80002d2:	4770      	bx	lr

080002d4 <_close>:
 80002d4:	f04f 30ff 	mov.w	r0, #4294967295
 80002d8:	4770      	bx	lr
 80002da:	bf00      	nop

080002dc <_fstat>:
 80002dc:	f44f 5300 	mov.w	r3, #8192	@ 0x2000
 80002e0:	604b      	str	r3, [r1, #4]
 80002e2:	2000      	movs	r0, #0
 80002e4:	4770      	bx	lr
 80002e6:	bf00      	nop

080002e8 <_isatty>:
 80002e8:	2001      	movs	r0, #1
 80002ea:	4770      	bx	lr

080002ec <_getpid>:
 80002ec:	2001      	movs	r0, #1
 80002ee:	4770      	bx	lr

080002f0 <_kill>:
 80002f0:	b508      	push	{r3, lr}
 80002f2:	f001 fd51 	bl	8001d98 <__errno>
 80002f6:	2316      	movs	r3, #22
 80002f8:	6003      	str	r3, [r0, #0]
 80002fa:	f04f 30ff 	mov.w	r0, #4294967295
 80002fe:	bd08      	pop	{r3, pc}

08000300 <SystemInit>:
 8000300:	4a03      	ldr	r2, [pc, #12]	@ (8000310 <SystemInit+0x10>)
 8000302:	f8d2 3088 	ldr.w	r3, [r2, #136]	@ 0x88
 8000306:	f443 0370 	orr.w	r3, r3, #15728640	@ 0xf00000
 800030a:	f8c2 3088 	str.w	r3, [r2, #136]	@ 0x88
 800030e:	4770      	bx	lr
 8000310:	e000ed00 			@ <UNDEFINED> instruction: e000ed00

08000314 <SystemCoreClockUpdate>:
 8000314:	4a16      	ldr	r2, [pc, #88]	@ (8000370 <SystemCoreClockUpdate+0x5c>)
 8000316:	6893      	ldr	r3, [r2, #8]
 8000318:	f003 030c 	and.w	r3, r3, #12
 800031c:	2b04      	cmp	r3, #4
 800031e:	d025      	beq.n	800036c <SystemCoreClockUpdate+0x58>
 8000320:	2b08      	cmp	r3, #8
 8000322:	d00a      	beq.n	800033a <SystemCoreClockUpdate+0x26>
 8000324:	4b13      	ldr	r3, [pc, #76]	@ (8000374 <SystemCoreClockUpdate+0x60>)
 8000326:	4a12      	ldr	r2, [pc, #72]	@ (8000370 <SystemCoreClockUpdate+0x5c>)
 8000328:	4813      	ldr	r0, [pc, #76]	@ (8000378 <SystemCoreClockUpdate+0x64>)
 800032a:	6892      	ldr	r2, [r2, #8]
 800032c:	4913      	ldr	r1, [pc, #76]	@ (800037c <SystemCoreClockUpdate+0x68>)
 800032e:	f3c2 1203 	ubfx	r2, r2, #4, #4
 8000332:	5c82      	ldrb	r2, [r0, r2]
 8000334:	40d3      	lsrs	r3, r2
 8000336:	600b      	str	r3, [r1, #0]
 8000338:	4770      	bx	lr
 800033a:	6853      	ldr	r3, [r2, #4]
 800033c:	6851      	ldr	r1, [r2, #4]
 800033e:	f413 0f80 	tst.w	r3, #4194304	@ 0x400000
 8000342:	6853      	ldr	r3, [r2, #4]
 8000344:	bf14      	ite	ne
 8000346:	4a0e      	ldrne	r2, [pc, #56]	@ (8000380 <SystemCoreClockUpdate+0x6c>)
 8000348:	4a0a      	ldreq	r2, [pc, #40]	@ (8000374 <SystemCoreClockUpdate+0x60>)
 800034a:	f3c3 1388 	ubfx	r3, r3, #6, #9
 800034e:	f001 013f 	and.w	r1, r1, #63	@ 0x3f
 8000352:	fbb2 f2f1 	udiv	r2, r2, r1
 8000356:	fb02 f303 	mul.w	r3, r2, r3
 800035a:	4a05      	ldr	r2, [pc, #20]	@ (8000370 <SystemCoreClockUpdate+0x5c>)
 800035c:	6852      	ldr	r2, [r2, #4]
 800035e:	f3c2 4201 	ubfx	r2, r2, #16, #2
 8000362:	3201      	adds	r2, #1
 8000364:	0052      	lsls	r2, r2, #1
 8000366:	fbb3 f3f2 	udiv	r3, r3, r2
 800036a:	e7dc      	b.n	8000326 <SystemCoreClockUpdate+0x12>
 800036c:	4b04      	ldr	r3, [pc, #16]	@ (8000380 <SystemCoreClockUpdate+0x6c>)
 800036e:	e7da      	b.n	8000326 <SystemCoreClockUpdate+0x12>
 8000370:	40023800 			@ <UNDEFINED> instruction: 40023800
 8000374:	00f42400 			@ <UNDEFINED> instruction: 00f42400
 8000378:	08004b10 			@ <UNDEFINED> instruction: 08004b10
 800037c:	20000000 			@ <UNDEFINED> instruction: 20000000
 8000380:	017d7840 			@ <UNDEFINED> instruction: 017d7840

08000384 <SysTick_Run>:
 8000384:	f04f 23e0 	mov.w	r3, #3758153728	@ 0xe000e000
 8000388:	f642 61e0 	movw	r1, #12000	@ 0x2ee0
 800038c:	691a      	ldr	r2, [r3, #16]
 800038e:	f022 0207 	bic.w	r2, r2, #7
 8000392:	f042 0201 	orr.w	r2, r2, #1
 8000396:	fb01 f000 	mul.w	r0, r1, r0
 800039a:	2100      	movs	r1, #0
 800039c:	611a      	str	r2, [r3, #16]
 800039e:	6158      	str	r0, [r3, #20]
 80003a0:	6199      	str	r1, [r3, #24]
 80003a2:	691a      	ldr	r2, [r3, #16]
 80003a4:	f042 0201 	orr.w	r2, r2, #1
 80003a8:	611a      	str	r2, [r3, #16]
 80003aa:	4770      	bx	lr

080003ac <SysTick_Check_Timeout>:
 80003ac:	f04f 23e0 	mov.w	r3, #3758153728	@ 0xe000e000
 80003b0:	6918      	ldr	r0, [r3, #16]
 80003b2:	f3c0 4000 	ubfx	r0, r0, #16, #1
 80003b6:	4770      	bx	lr

080003b8 <SysTick_Get_Time>:
 80003b8:	f04f 23e0 	mov.w	r3, #3758153728	@ 0xe000e000
 80003bc:	6998      	ldr	r0, [r3, #24]
 80003be:	4770      	bx	lr

080003c0 <SysTick_Get_Load_Time>:
 80003c0:	f04f 23e0 	mov.w	r3, #3758153728	@ 0xe000e000
 80003c4:	6958      	ldr	r0, [r3, #20]
 80003c6:	4770      	bx	lr

080003c8 <SysTick_Stop>:
 80003c8:	f04f 22e0 	mov.w	r2, #3758153728	@ 0xe000e000
 80003cc:	6913      	ldr	r3, [r2, #16]
 80003ce:	f023 0301 	bic.w	r3, r3, #1
 80003d2:	6113      	str	r3, [r2, #16]
 80003d4:	4770      	bx	lr
 80003d6:	bf00      	nop

080003d8 <Uart2_Init>:
 80003d8:	b570      	push	{r4, r5, r6, lr}
 80003da:	4a35      	ldr	r2, [pc, #212]	@ (80004b0 <Uart2_Init+0xd8>)
 80003dc:	4b35      	ldr	r3, [pc, #212]	@ (80004b4 <Uart2_Init+0xdc>)
 80003de:	6b11      	ldr	r1, [r2, #48]	@ 0x30
 80003e0:	f041 0101 	orr.w	r1, r1, #1
 80003e4:	b082      	sub	sp, #8
 80003e6:	6311      	str	r1, [r2, #48]	@ 0x30
 80003e8:	6c11      	ldr	r1, [r2, #64]	@ 0x40
 80003ea:	f441 3100 	orr.w	r1, r1, #131072	@ 0x20000
 80003ee:	6411      	str	r1, [r2, #64]	@ 0x40
 80003f0:	681a      	ldr	r2, [r3, #0]
 80003f2:	f022 02f0 	bic.w	r2, r2, #240	@ 0xf0
 80003f6:	f042 02a0 	orr.w	r2, r2, #160	@ 0xa0
 80003fa:	601a      	str	r2, [r3, #0]
 80003fc:	6a1a      	ldr	r2, [r3, #32]
 80003fe:	f422 427f 	bic.w	r2, r2, #65280	@ 0xff00
 8000402:	f442 42ee 	orr.w	r2, r2, #30464	@ 0x7700
 8000406:	621a      	str	r2, [r3, #32]
 8000408:	68da      	ldr	r2, [r3, #12]
 800040a:	f022 02f0 	bic.w	r2, r2, #240	@ 0xf0
 800040e:	f042 0250 	orr.w	r2, r2, #80	@ 0x50
 8000412:	60da      	str	r2, [r3, #12]
 8000414:	69da      	ldr	r2, [r3, #28]
 8000416:	f3c2 020e 	ubfx	r2, r2, #0, #15
 800041a:	9201      	str	r2, [sp, #4]
 800041c:	9a01      	ldr	r2, [sp, #4]
 800041e:	f442 3280 	orr.w	r2, r2, #65536	@ 0x10000
 8000422:	f042 020c 	orr.w	r2, r2, #12
 8000426:	61da      	str	r2, [r3, #28]
 8000428:	9a01      	ldr	r2, [sp, #4]
 800042a:	f042 020c 	orr.w	r2, r2, #12
 800042e:	61da      	str	r2, [r3, #28]
 8000430:	9a01      	ldr	r2, [sp, #4]
 8000432:	f442 3280 	orr.w	r2, r2, #65536	@ 0x10000
 8000436:	f042 020c 	orr.w	r2, r2, #12
 800043a:	61da      	str	r2, [r3, #28]
 800043c:	69db      	ldr	r3, [r3, #28]
 800043e:	9301      	str	r3, [sp, #4]
 8000440:	f000 fc0c 	bl	8000c5c <__aeabi_i2d>
 8000444:	4b1c      	ldr	r3, [pc, #112]	@ (80004b8 <Uart2_Init+0xe0>)
 8000446:	2200      	movs	r2, #0
 8000448:	f000 fc72 	bl	8000d30 <__aeabi_dmul>
 800044c:	4602      	mov	r2, r0
 800044e:	460b      	mov	r3, r1
 8000450:	a115      	add	r1, pc, #84	@ (adr r1, 80004a8 <Uart2_Init+0xd0>)
 8000452:	e9d1 0100 	ldrd	r0, r1, [r1]
 8000456:	f000 fd95 	bl	8000f84 <__aeabi_ddiv>
 800045a:	460d      	mov	r5, r1
 800045c:	4604      	mov	r4, r0
 800045e:	f000 ff17 	bl	8001290 <__aeabi_d2iz>
 8000462:	4606      	mov	r6, r0
 8000464:	f000 fbea 	bl	8000c3c <__aeabi_ui2d>
 8000468:	4602      	mov	r2, r0
 800046a:	460b      	mov	r3, r1
 800046c:	4620      	mov	r0, r4
 800046e:	4629      	mov	r1, r5
 8000470:	f000 faa6 	bl	80009c0 <__aeabi_dsub>
 8000474:	4b10      	ldr	r3, [pc, #64]	@ (80004b8 <Uart2_Init+0xe0>)
 8000476:	2200      	movs	r2, #0
 8000478:	f000 fc5a 	bl	8000d30 <__aeabi_dmul>
 800047c:	4b0f      	ldr	r3, [pc, #60]	@ (80004bc <Uart2_Init+0xe4>)
 800047e:	2200      	movs	r2, #0
 8000480:	f000 faa0 	bl	80009c4 <__adddf3>
 8000484:	f000 ff04 	bl	8001290 <__aeabi_d2iz>
 8000488:	4b0d      	ldr	r3, [pc, #52]	@ (80004c0 <Uart2_Init+0xe8>)
 800048a:	eb06 1210 	add.w	r2, r6, r0, lsr #4
 800048e:	f000 000f 	and.w	r0, r0, #15
 8000492:	2100      	movs	r1, #0
 8000494:	ea40 1002 	orr.w	r0, r0, r2, lsl #4
 8000498:	f242 020c 	movw	r2, #8204	@ 0x200c
 800049c:	6098      	str	r0, [r3, #8]
 800049e:	60da      	str	r2, [r3, #12]
 80004a0:	6119      	str	r1, [r3, #16]
 80004a2:	6159      	str	r1, [r3, #20]
 80004a4:	b002      	add	sp, #8
 80004a6:	bd70      	pop	{r4, r5, r6, pc}
 80004a8:	00000000 			@ <UNDEFINED> instruction: 00000000
 80004ac:	4186e360 			@ <UNDEFINED> instruction: 4186e360
 80004b0:	40023800 			@ <UNDEFINED> instruction: 40023800
 80004b4:	40020000 			@ <UNDEFINED> instruction: 40020000
 80004b8:	40300000 			@ <UNDEFINED> instruction: 40300000
 80004bc:	3fe00000 			@ <UNDEFINED> instruction: 3fe00000
 80004c0:	40004400 			@ <UNDEFINED> instruction: 40004400

080004c4 <Uart2_Send_Byte>:
 80004c4:	280a      	cmp	r0, #10
 80004c6:	d005      	beq.n	80004d4 <Uart2_Send_Byte+0x10>
 80004c8:	4a06      	ldr	r2, [pc, #24]	@ (80004e4 <Uart2_Send_Byte+0x20>)
 80004ca:	6813      	ldr	r3, [r2, #0]
 80004cc:	061b      	lsls	r3, r3, #24
 80004ce:	d5fc      	bpl.n	80004ca <Uart2_Send_Byte+0x6>
 80004d0:	6050      	str	r0, [r2, #4]
 80004d2:	4770      	bx	lr
 80004d4:	4a03      	ldr	r2, [pc, #12]	@ (80004e4 <Uart2_Send_Byte+0x20>)
 80004d6:	6813      	ldr	r3, [r2, #0]
 80004d8:	0619      	lsls	r1, r3, #24
 80004da:	d5fc      	bpl.n	80004d6 <Uart2_Send_Byte+0x12>
 80004dc:	230d      	movs	r3, #13
 80004de:	6053      	str	r3, [r2, #4]
 80004e0:	e7f2      	b.n	80004c8 <Uart2_Send_Byte+0x4>
 80004e2:	bf00      	nop
 80004e4:	40004400 			@ <UNDEFINED> instruction: 40004400

080004e8 <Uart1_Init>:
 80004e8:	b570      	push	{r4, r5, r6, lr}
 80004ea:	4a33      	ldr	r2, [pc, #204]	@ (80005b8 <Uart1_Init+0xd0>)
 80004ec:	4b33      	ldr	r3, [pc, #204]	@ (80005bc <Uart1_Init+0xd4>)
 80004ee:	6b11      	ldr	r1, [r2, #48]	@ 0x30
 80004f0:	f041 0101 	orr.w	r1, r1, #1
 80004f4:	b082      	sub	sp, #8
 80004f6:	6311      	str	r1, [r2, #48]	@ 0x30
 80004f8:	6c51      	ldr	r1, [r2, #68]	@ 0x44
 80004fa:	f041 0110 	orr.w	r1, r1, #16
 80004fe:	6451      	str	r1, [r2, #68]	@ 0x44
 8000500:	681a      	ldr	r2, [r3, #0]
 8000502:	f422 1270 	bic.w	r2, r2, #3932160	@ 0x3c0000
 8000506:	f442 1220 	orr.w	r2, r2, #2621440	@ 0x280000
 800050a:	601a      	str	r2, [r3, #0]
 800050c:	6a5a      	ldr	r2, [r3, #36]	@ 0x24
 800050e:	f422 627f 	bic.w	r2, r2, #4080	@ 0xff0
 8000512:	f442 62ee 	orr.w	r2, r2, #1904	@ 0x770
 8000516:	625a      	str	r2, [r3, #36]	@ 0x24
 8000518:	68da      	ldr	r2, [r3, #12]
 800051a:	f422 1270 	bic.w	r2, r2, #3932160	@ 0x3c0000
 800051e:	f442 12a0 	orr.w	r2, r2, #1310720	@ 0x140000
 8000522:	60da      	str	r2, [r3, #12]
 8000524:	69da      	ldr	r2, [r3, #28]
 8000526:	f3c2 020e 	ubfx	r2, r2, #0, #15
 800052a:	9201      	str	r2, [sp, #4]
 800052c:	9a01      	ldr	r2, [sp, #4]
 800052e:	f442 3283 	orr.w	r2, r2, #67072	@ 0x10600
 8000532:	61da      	str	r2, [r3, #28]
 8000534:	9a01      	ldr	r2, [sp, #4]
 8000536:	f442 62c0 	orr.w	r2, r2, #1536	@ 0x600
 800053a:	61da      	str	r2, [r3, #28]
 800053c:	9a01      	ldr	r2, [sp, #4]
 800053e:	f442 3283 	orr.w	r2, r2, #67072	@ 0x10600
 8000542:	61da      	str	r2, [r3, #28]
 8000544:	69db      	ldr	r3, [r3, #28]
 8000546:	9301      	str	r3, [sp, #4]
 8000548:	f000 fb88 	bl	8000c5c <__aeabi_i2d>
 800054c:	4b1c      	ldr	r3, [pc, #112]	@ (80005c0 <Uart1_Init+0xd8>)
 800054e:	2200      	movs	r2, #0
 8000550:	f000 fbee 	bl	8000d30 <__aeabi_dmul>
 8000554:	4602      	mov	r2, r0
 8000556:	460b      	mov	r3, r1
 8000558:	a115      	add	r1, pc, #84	@ (adr r1, 80005b0 <Uart1_Init+0xc8>)
 800055a:	e9d1 0100 	ldrd	r0, r1, [r1]
 800055e:	f000 fd11 	bl	8000f84 <__aeabi_ddiv>
 8000562:	460d      	mov	r5, r1
 8000564:	4604      	mov	r4, r0
 8000566:	f000 fe93 	bl	8001290 <__aeabi_d2iz>
 800056a:	4606      	mov	r6, r0
 800056c:	f000 fb66 	bl	8000c3c <__aeabi_ui2d>
 8000570:	4602      	mov	r2, r0
 8000572:	460b      	mov	r3, r1
 8000574:	4620      	mov	r0, r4
 8000576:	4629      	mov	r1, r5
 8000578:	f000 fa22 	bl	80009c0 <__aeabi_dsub>
 800057c:	4b10      	ldr	r3, [pc, #64]	@ (80005c0 <Uart1_Init+0xd8>)
 800057e:	2200      	movs	r2, #0
 8000580:	f000 fbd6 	bl	8000d30 <__aeabi_dmul>
 8000584:	4b0f      	ldr	r3, [pc, #60]	@ (80005c4 <Uart1_Init+0xdc>)
 8000586:	2200      	movs	r2, #0
 8000588:	f000 fa1c 	bl	80009c4 <__adddf3>
 800058c:	f000 fe80 	bl	8001290 <__aeabi_d2iz>
 8000590:	4b0d      	ldr	r3, [pc, #52]	@ (80005c8 <Uart1_Init+0xe0>)
 8000592:	eb06 1210 	add.w	r2, r6, r0, lsr #4
 8000596:	f000 000f 	and.w	r0, r0, #15
 800059a:	2100      	movs	r1, #0
 800059c:	ea40 1002 	orr.w	r0, r0, r2, lsl #4
 80005a0:	f242 020c 	movw	r2, #8204	@ 0x200c
 80005a4:	6098      	str	r0, [r3, #8]
 80005a6:	60da      	str	r2, [r3, #12]
 80005a8:	6119      	str	r1, [r3, #16]
 80005aa:	6159      	str	r1, [r3, #20]
 80005ac:	b002      	add	sp, #8
 80005ae:	bd70      	pop	{r4, r5, r6, pc}
 80005b0:	00000000 			@ <UNDEFINED> instruction: 00000000
 80005b4:	4196e360 			@ <UNDEFINED> instruction: 4196e360
 80005b8:	40023800 			@ <UNDEFINED> instruction: 40023800
 80005bc:	40020000 			@ <UNDEFINED> instruction: 40020000
 80005c0:	40300000 			@ <UNDEFINED> instruction: 40300000
 80005c4:	3fe00000 			@ <UNDEFINED> instruction: 3fe00000
 80005c8:	40011000 			@ <UNDEFINED> instruction: 40011000

080005cc <Uart1_Send_Byte>:
 80005cc:	280a      	cmp	r0, #10
 80005ce:	d005      	beq.n	80005dc <Uart1_Send_Byte+0x10>
 80005d0:	4a06      	ldr	r2, [pc, #24]	@ (80005ec <Uart1_Send_Byte+0x20>)
 80005d2:	6813      	ldr	r3, [r2, #0]
 80005d4:	061b      	lsls	r3, r3, #24
 80005d6:	d5fc      	bpl.n	80005d2 <Uart1_Send_Byte+0x6>
 80005d8:	6050      	str	r0, [r2, #4]
 80005da:	4770      	bx	lr
 80005dc:	4a03      	ldr	r2, [pc, #12]	@ (80005ec <Uart1_Send_Byte+0x20>)
 80005de:	6813      	ldr	r3, [r2, #0]
 80005e0:	0619      	lsls	r1, r3, #24
 80005e2:	d5fc      	bpl.n	80005de <Uart1_Send_Byte+0x12>
 80005e4:	230d      	movs	r3, #13
 80005e6:	6053      	str	r3, [r2, #4]
 80005e8:	e7f2      	b.n	80005d0 <Uart1_Send_Byte+0x4>
 80005ea:	bf00      	nop
 80005ec:	40011000 			@ <UNDEFINED> instruction: 40011000

080005f0 <Uart1_Send_String>:
 80005f0:	7801      	ldrb	r1, [r0, #0]
 80005f2:	b161      	cbz	r1, 800060e <Uart1_Send_String+0x1e>
 80005f4:	4a09      	ldr	r2, [pc, #36]	@ (800061c <Uart1_Send_String+0x2c>)
 80005f6:	f04f 0c0d 	mov.w	ip, #13
 80005fa:	290a      	cmp	r1, #10
 80005fc:	d008      	beq.n	8000610 <Uart1_Send_String+0x20>
 80005fe:	6813      	ldr	r3, [r2, #0]
 8000600:	061b      	lsls	r3, r3, #24
 8000602:	d5fc      	bpl.n	80005fe <Uart1_Send_String+0xe>
 8000604:	6051      	str	r1, [r2, #4]
 8000606:	f810 1f01 	ldrb.w	r1, [r0, #1]!
 800060a:	2900      	cmp	r1, #0
 800060c:	d1f5      	bne.n	80005fa <Uart1_Send_String+0xa>
 800060e:	4770      	bx	lr
 8000610:	6813      	ldr	r3, [r2, #0]
 8000612:	061b      	lsls	r3, r3, #24
 8000614:	d5fc      	bpl.n	8000610 <Uart1_Send_String+0x20>
 8000616:	f8c2 c004 	str.w	ip, [r2, #4]
 800061a:	e7f0      	b.n	80005fe <Uart1_Send_String+0xe>
 800061c:	40011000 			@ <UNDEFINED> instruction: 40011000

08000620 <Uart1_Printf>:
 8000620:	b40f      	push	{r0, r1, r2, r3}
 8000622:	b510      	push	{r4, lr}
 8000624:	b0c2      	sub	sp, #264	@ 0x108
 8000626:	aa44      	add	r2, sp, #272	@ 0x110
 8000628:	a802      	add	r0, sp, #8
 800062a:	f852 1b04 	ldr.w	r1, [r2], #4
 800062e:	9201      	str	r2, [sp, #4]
 8000630:	f001 fb9e 	bl	8001d70 <vsiprintf>
 8000634:	f89d 1008 	ldrb.w	r1, [sp, #8]
 8000638:	b161      	cbz	r1, 8000654 <Uart1_Printf+0x34>
 800063a:	4a0b      	ldr	r2, [pc, #44]	@ (8000668 <Uart1_Printf+0x48>)
 800063c:	a802      	add	r0, sp, #8
 800063e:	240d      	movs	r4, #13
 8000640:	290a      	cmp	r1, #10
 8000642:	d00c      	beq.n	800065e <Uart1_Printf+0x3e>
 8000644:	6813      	ldr	r3, [r2, #0]
 8000646:	061b      	lsls	r3, r3, #24
 8000648:	d5fc      	bpl.n	8000644 <Uart1_Printf+0x24>
 800064a:	6051      	str	r1, [r2, #4]
 800064c:	f810 1f01 	ldrb.w	r1, [r0, #1]!
 8000650:	2900      	cmp	r1, #0
 8000652:	d1f5      	bne.n	8000640 <Uart1_Printf+0x20>
 8000654:	b042      	add	sp, #264	@ 0x108
 8000656:	e8bd 4010 	ldmia.w	sp!, {r4, lr}
 800065a:	b004      	add	sp, #16
 800065c:	4770      	bx	lr
 800065e:	6813      	ldr	r3, [r2, #0]
 8000660:	061b      	lsls	r3, r3, #24
 8000662:	d5fc      	bpl.n	800065e <Uart1_Printf+0x3e>
 8000664:	6054      	str	r4, [r2, #4]
 8000666:	e7ed      	b.n	8000644 <Uart1_Printf+0x24>
 8000668:	40011000 			@ <UNDEFINED> instruction: 40011000

0800066c <Uart1_Get_Pressed>:
 800066c:	4b03      	ldr	r3, [pc, #12]	@ (800067c <Uart1_Get_Pressed+0x10>)
 800066e:	6818      	ldr	r0, [r3, #0]
 8000670:	f010 0020 	ands.w	r0, r0, #32
 8000674:	bf1c      	itt	ne
 8000676:	6858      	ldrne	r0, [r3, #4]
 8000678:	b2c0      	uxtbne	r0, r0
 800067a:	4770      	bx	lr
 800067c:	40011000 			@ <UNDEFINED> instruction: 40011000

08000680 <Uart1_Get_Char>:
 8000680:	4a03      	ldr	r2, [pc, #12]	@ (8000690 <Uart1_Get_Char+0x10>)
 8000682:	6813      	ldr	r3, [r2, #0]
 8000684:	069b      	lsls	r3, r3, #26
 8000686:	d5fc      	bpl.n	8000682 <Uart1_Get_Char+0x2>
 8000688:	6850      	ldr	r0, [r2, #4]
 800068a:	b2c0      	uxtb	r0, r0
 800068c:	4770      	bx	lr
 800068e:	bf00      	nop
 8000690:	40011000 			@ <UNDEFINED> instruction: 40011000
	...

080006a0 <memchr>:
 80006a0:	f001 01ff 	and.w	r1, r1, #255	@ 0xff
 80006a4:	2a10      	cmp	r2, #16
 80006a6:	db2b      	blt.n	8000700 <memchr+0x60>
 80006a8:	f010 0f07 	tst.w	r0, #7
 80006ac:	d008      	beq.n	80006c0 <memchr+0x20>
 80006ae:	f810 3b01 	ldrb.w	r3, [r0], #1
 80006b2:	3a01      	subs	r2, #1
 80006b4:	428b      	cmp	r3, r1
 80006b6:	d02d      	beq.n	8000714 <memchr+0x74>
 80006b8:	f010 0f07 	tst.w	r0, #7
 80006bc:	b342      	cbz	r2, 8000710 <memchr+0x70>
 80006be:	d1f6      	bne.n	80006ae <memchr+0xe>
 80006c0:	b4f0      	push	{r4, r5, r6, r7}
 80006c2:	ea41 2101 	orr.w	r1, r1, r1, lsl #8
 80006c6:	ea41 4101 	orr.w	r1, r1, r1, lsl #16
 80006ca:	f022 0407 	bic.w	r4, r2, #7
 80006ce:	f07f 0700 	mvns.w	r7, #0
 80006d2:	2300      	movs	r3, #0
 80006d4:	e8f0 5602 	ldrd	r5, r6, [r0], #8
 80006d8:	3c08      	subs	r4, #8
 80006da:	ea85 0501 	eor.w	r5, r5, r1
 80006de:	ea86 0601 	eor.w	r6, r6, r1
 80006e2:	fa85 f547 	uadd8	r5, r5, r7
 80006e6:	faa3 f587 	sel	r5, r3, r7
 80006ea:	fa86 f647 	uadd8	r6, r6, r7
 80006ee:	faa5 f687 	sel	r6, r5, r7
 80006f2:	b98e      	cbnz	r6, 8000718 <memchr+0x78>
 80006f4:	d1ee      	bne.n	80006d4 <memchr+0x34>
 80006f6:	bcf0      	pop	{r4, r5, r6, r7}
 80006f8:	f001 01ff 	and.w	r1, r1, #255	@ 0xff
 80006fc:	f002 0207 	and.w	r2, r2, #7
 8000700:	b132      	cbz	r2, 8000710 <memchr+0x70>
 8000702:	f810 3b01 	ldrb.w	r3, [r0], #1
 8000706:	3a01      	subs	r2, #1
 8000708:	ea83 0301 	eor.w	r3, r3, r1
 800070c:	b113      	cbz	r3, 8000714 <memchr+0x74>
 800070e:	d1f8      	bne.n	8000702 <memchr+0x62>
 8000710:	2000      	movs	r0, #0
 8000712:	4770      	bx	lr
 8000714:	3801      	subs	r0, #1
 8000716:	4770      	bx	lr
 8000718:	2d00      	cmp	r5, #0
 800071a:	bf06      	itte	eq
 800071c:	4635      	moveq	r5, r6
 800071e:	3803      	subeq	r0, #3
 8000720:	3807      	subne	r0, #7
 8000722:	f015 0f01 	tst.w	r5, #1
 8000726:	d107      	bne.n	8000738 <memchr+0x98>
 8000728:	3001      	adds	r0, #1
 800072a:	f415 7f80 	tst.w	r5, #256	@ 0x100
 800072e:	bf02      	ittt	eq
 8000730:	3001      	addeq	r0, #1
 8000732:	f415 3fc0 	tsteq.w	r5, #98304	@ 0x18000
 8000736:	3001      	addeq	r0, #1
 8000738:	bcf0      	pop	{r4, r5, r6, r7}
 800073a:	3801      	subs	r0, #1
 800073c:	4770      	bx	lr
 800073e:	bf00      	nop

08000740 <strlen>:
 8000740:	4603      	mov	r3, r0
 8000742:	f813 2b01 	ldrb.w	r2, [r3], #1
 8000746:	2a00      	cmp	r2, #0
 8000748:	d1fb      	bne.n	8000742 <strlen+0x2>
 800074a:	1a18      	subs	r0, r3, r0
 800074c:	3801      	subs	r0, #1
 800074e:	4770      	bx	lr

08000750 <strcmp>:
 8000750:	f810 2b01 	ldrb.w	r2, [r0], #1
 8000754:	f811 3b01 	ldrb.w	r3, [r1], #1
 8000758:	2a01      	cmp	r2, #1
 800075a:	bf28      	it	cs
 800075c:	429a      	cmpcs	r2, r3
 800075e:	d0f7      	beq.n	8000750 <strcmp>
 8000760:	1ad0      	subs	r0, r2, r3
 8000762:	4770      	bx	lr
 8000764:	b570      	push	{r4, r5, r6, lr}
 8000766:	f04f 0cff 	mov.w	ip, #255	@ 0xff
 800076a:	f44c 6ce0 	orr.w	ip, ip, #1792	@ 0x700
 800076e:	ea1c 5411 	ands.w	r4, ip, r1, lsr #20
 8000772:	bf1d      	ittte	ne
 8000774:	ea1c 5513 	andsne.w	r5, ip, r3, lsr #20
 8000778:	ea94 0f0c 	teqne	r4, ip
 800077c:	ea95 0f0c 	teqne	r5, ip
 8000780:	f000 f8de 	bleq	8000940 <strcmp+0x1f0>
 8000784:	442c      	add	r4, r5
 8000786:	ea81 0603 	eor.w	r6, r1, r3
 800078a:	ea21 514c 	bic.w	r1, r1, ip, lsl #21
 800078e:	ea23 534c 	bic.w	r3, r3, ip, lsl #21
 8000792:	ea50 3501 	orrs.w	r5, r0, r1, lsl #12
 8000796:	bf18      	it	ne
 8000798:	ea52 3503 	orrsne.w	r5, r2, r3, lsl #12
 800079c:	f441 1180 	orr.w	r1, r1, #1048576	@ 0x100000
 80007a0:	f443 1380 	orr.w	r3, r3, #1048576	@ 0x100000
 80007a4:	d038      	beq.n	8000818 <strcmp+0xc8>
 80007a6:	fba0 ce02 	umull	ip, lr, r0, r2
 80007aa:	f04f 0500 	mov.w	r5, #0
 80007ae:	fbe1 e502 	umlal	lr, r5, r1, r2
 80007b2:	f006 4200 	and.w	r2, r6, #2147483648	@ 0x80000000
 80007b6:	fbe0 e503 	umlal	lr, r5, r0, r3
 80007ba:	f04f 0600 	mov.w	r6, #0
 80007be:	fbe1 5603 	umlal	r5, r6, r1, r3
 80007c2:	f09c 0f00 	teq	ip, #0
 80007c6:	bf18      	it	ne
 80007c8:	f04e 0e01 	orrne.w	lr, lr, #1
 80007cc:	f1a4 04ff 	sub.w	r4, r4, #255	@ 0xff
 80007d0:	f5b6 7f00 	cmp.w	r6, #512	@ 0x200
 80007d4:	f564 7440 	sbc.w	r4, r4, #768	@ 0x300
 80007d8:	d204      	bcs.n	80007e4 <strcmp+0x94>
 80007da:	ea5f 0e4e 	movs.w	lr, lr, lsl #1
 80007de:	416d      	adcs	r5, r5
 80007e0:	eb46 0606 	adc.w	r6, r6, r6
 80007e4:	ea42 21c6 	orr.w	r1, r2, r6, lsl #11
 80007e8:	ea41 5155 	orr.w	r1, r1, r5, lsr #21
 80007ec:	ea4f 20c5 	mov.w	r0, r5, lsl #11
 80007f0:	ea40 505e 	orr.w	r0, r0, lr, lsr #21
 80007f4:	ea4f 2ece 	mov.w	lr, lr, lsl #11
 80007f8:	f1b4 0cfd 	subs.w	ip, r4, #253	@ 0xfd
 80007fc:	bf88      	it	hi
 80007fe:	f5bc 6fe0 	cmphi.w	ip, #1792	@ 0x700
 8000802:	d81e      	bhi.n	8000842 <strcmp+0xf2>
 8000804:	f1be 4f00 	cmp.w	lr, #2147483648	@ 0x80000000
 8000808:	bf08      	it	eq
 800080a:	ea5f 0e50 	movseq.w	lr, r0, lsr #1
 800080e:	f150 0000 	adcs.w	r0, r0, #0
 8000812:	eb41 5104 	adc.w	r1, r1, r4, lsl #20
 8000816:	bd70      	pop	{r4, r5, r6, pc}
 8000818:	f006 4600 	and.w	r6, r6, #2147483648	@ 0x80000000
 800081c:	ea46 0101 	orr.w	r1, r6, r1
 8000820:	ea40 0002 	orr.w	r0, r0, r2
 8000824:	ea81 0103 	eor.w	r1, r1, r3
 8000828:	ebb4 045c 	subs.w	r4, r4, ip, lsr #1
 800082c:	bfc2      	ittt	gt
 800082e:	ebd4 050c 	rsbsgt	r5, r4, ip
 8000832:	ea41 5104 	orrgt.w	r1, r1, r4, lsl #20
 8000836:	bd70      	popgt	{r4, r5, r6, pc}
 8000838:	f441 1180 	orr.w	r1, r1, #1048576	@ 0x100000
 800083c:	f04f 0e00 	mov.w	lr, #0
 8000840:	3c01      	subs	r4, #1
 8000842:	f300 80ab 	bgt.w	800099c <strcmp+0x24c>
 8000846:	f114 0f36 	cmn.w	r4, #54	@ 0x36
 800084a:	bfde      	ittt	le
 800084c:	2000      	movle	r0, #0
 800084e:	f001 4100 	andle.w	r1, r1, #2147483648	@ 0x80000000
 8000852:	bd70      	pople	{r4, r5, r6, pc}
 8000854:	f1c4 0400 	rsb	r4, r4, #0
 8000858:	3c20      	subs	r4, #32
 800085a:	da35      	bge.n	80008c8 <strcmp+0x178>
 800085c:	340c      	adds	r4, #12
 800085e:	dc1b      	bgt.n	8000898 <strcmp+0x148>
 8000860:	f104 0414 	add.w	r4, r4, #20
 8000864:	f1c4 0520 	rsb	r5, r4, #32
 8000868:	fa00 f305 	lsl.w	r3, r0, r5
 800086c:	fa20 f004 	lsr.w	r0, r0, r4
 8000870:	fa01 f205 	lsl.w	r2, r1, r5
 8000874:	ea40 0002 	orr.w	r0, r0, r2
 8000878:	f001 4200 	and.w	r2, r1, #2147483648	@ 0x80000000
 800087c:	f021 4100 	bic.w	r1, r1, #2147483648	@ 0x80000000
 8000880:	eb10 70d3 	adds.w	r0, r0, r3, lsr #31
 8000884:	fa21 f604 	lsr.w	r6, r1, r4
 8000888:	eb42 0106 	adc.w	r1, r2, r6
 800088c:	ea5e 0e43 	orrs.w	lr, lr, r3, lsl #1
 8000890:	bf08      	it	eq
 8000892:	ea20 70d3 	biceq.w	r0, r0, r3, lsr #31
 8000896:	bd70      	pop	{r4, r5, r6, pc}
 8000898:	f1c4 040c 	rsb	r4, r4, #12
 800089c:	f1c4 0520 	rsb	r5, r4, #32
 80008a0:	fa00 f304 	lsl.w	r3, r0, r4
 80008a4:	fa20 f005 	lsr.w	r0, r0, r5
 80008a8:	fa01 f204 	lsl.w	r2, r1, r4
 80008ac:	ea40 0002 	orr.w	r0, r0, r2
 80008b0:	f001 4100 	and.w	r1, r1, #2147483648	@ 0x80000000
 80008b4:	eb10 70d3 	adds.w	r0, r0, r3, lsr #31
 80008b8:	f141 0100 	adc.w	r1, r1, #0
 80008bc:	ea5e 0e43 	orrs.w	lr, lr, r3, lsl #1
 80008c0:	bf08      	it	eq
 80008c2:	ea20 70d3 	biceq.w	r0, r0, r3, lsr #31
 80008c6:	bd70      	pop	{r4, r5, r6, pc}
 80008c8:	f1c4 0520 	rsb	r5, r4, #32
 80008cc:	fa00 f205 	lsl.w	r2, r0, r5
 80008d0:	ea4e 0e02 	orr.w	lr, lr, r2
 80008d4:	fa20 f304 	lsr.w	r3, r0, r4
 80008d8:	fa01 f205 	lsl.w	r2, r1, r5
 80008dc:	ea43 0302 	orr.w	r3, r3, r2
 80008e0:	fa21 f004 	lsr.w	r0, r1, r4
 80008e4:	f001 4100 	and.w	r1, r1, #2147483648	@ 0x80000000
 80008e8:	fa21 f204 	lsr.w	r2, r1, r4
 80008ec:	ea20 0002 	bic.w	r0, r0, r2
 80008f0:	eb00 70d3 	add.w	r0, r0, r3, lsr #31
 80008f4:	ea5e 0e43 	orrs.w	lr, lr, r3, lsl #1
 80008f8:	bf08      	it	eq
 80008fa:	ea20 70d3 	biceq.w	r0, r0, r3, lsr #31
 80008fe:	bd70      	pop	{r4, r5, r6, pc}
 8000900:	f094 0f00 	teq	r4, #0
 8000904:	d10f      	bne.n	8000926 <strcmp+0x1d6>
 8000906:	f001 4600 	and.w	r6, r1, #2147483648	@ 0x80000000
 800090a:	0040      	lsls	r0, r0, #1
 800090c:	eb41 0101 	adc.w	r1, r1, r1
 8000910:	f411 1f80 	tst.w	r1, #1048576	@ 0x100000
 8000914:	bf08      	it	eq
 8000916:	3c01      	subeq	r4, #1
 8000918:	d0f7      	beq.n	800090a <strcmp+0x1ba>
 800091a:	ea41 0106 	orr.w	r1, r1, r6
 800091e:	f095 0f00 	teq	r5, #0
 8000922:	bf18      	it	ne
 8000924:	4770      	bxne	lr
 8000926:	f003 4600 	and.w	r6, r3, #2147483648	@ 0x80000000
 800092a:	0052      	lsls	r2, r2, #1
 800092c:	eb43 0303 	adc.w	r3, r3, r3
 8000930:	f413 1f80 	tst.w	r3, #1048576	@ 0x100000
 8000934:	bf08      	it	eq
 8000936:	3d01      	subeq	r5, #1
 8000938:	d0f7      	beq.n	800092a <strcmp+0x1da>
 800093a:	ea43 0306 	orr.w	r3, r3, r6
 800093e:	4770      	bx	lr
 8000940:	ea94 0f0c 	teq	r4, ip
 8000944:	ea0c 5513 	and.w	r5, ip, r3, lsr #20
 8000948:	bf18      	it	ne
 800094a:	ea95 0f0c 	teqne	r5, ip
 800094e:	d00c      	beq.n	800096a <strcmp+0x21a>
 8000950:	ea50 0641 	orrs.w	r6, r0, r1, lsl #1
 8000954:	bf18      	it	ne
 8000956:	ea52 0643 	orrsne.w	r6, r2, r3, lsl #1
 800095a:	d1d1      	bne.n	8000900 <strcmp+0x1b0>
 800095c:	ea81 0103 	eor.w	r1, r1, r3
 8000960:	f001 4100 	and.w	r1, r1, #2147483648	@ 0x80000000
 8000964:	f04f 0000 	mov.w	r0, #0
 8000968:	bd70      	pop	{r4, r5, r6, pc}
 800096a:	ea50 0641 	orrs.w	r6, r0, r1, lsl #1
 800096e:	bf06      	itte	eq
 8000970:	4610      	moveq	r0, r2
 8000972:	4619      	moveq	r1, r3
 8000974:	ea52 0643 	orrsne.w	r6, r2, r3, lsl #1
 8000978:	d019      	beq.n	80009ae <strcmp+0x25e>
 800097a:	ea94 0f0c 	teq	r4, ip
 800097e:	d102      	bne.n	8000986 <strcmp+0x236>
 8000980:	ea50 3601 	orrs.w	r6, r0, r1, lsl #12
 8000984:	d113      	bne.n	80009ae <strcmp+0x25e>
 8000986:	ea95 0f0c 	teq	r5, ip
 800098a:	d105      	bne.n	8000998 <strcmp+0x248>
 800098c:	ea52 3603 	orrs.w	r6, r2, r3, lsl #12
 8000990:	bf1c      	itt	ne
 8000992:	4610      	movne	r0, r2
 8000994:	4619      	movne	r1, r3
 8000996:	d10a      	bne.n	80009ae <strcmp+0x25e>
 8000998:	ea81 0103 	eor.w	r1, r1, r3
 800099c:	f001 4100 	and.w	r1, r1, #2147483648	@ 0x80000000
 80009a0:	f041 41fe 	orr.w	r1, r1, #2130706432	@ 0x7f000000
 80009a4:	f441 0170 	orr.w	r1, r1, #15728640	@ 0xf00000
 80009a8:	f04f 0000 	mov.w	r0, #0
 80009ac:	bd70      	pop	{r4, r5, r6, pc}
 80009ae:	f041 41fe 	orr.w	r1, r1, #2130706432	@ 0x7f000000
 80009b2:	f441 0178 	orr.w	r1, r1, #16252928	@ 0xf80000
 80009b6:	bd70      	pop	{r4, r5, r6, pc}

080009b8 <__aeabi_drsub>:
 80009b8:	f081 4100 	eor.w	r1, r1, #2147483648	@ 0x80000000
 80009bc:	e002      	b.n	80009c4 <__adddf3>
 80009be:	bf00      	nop

080009c0 <__aeabi_dsub>:
 80009c0:	f083 4300 	eor.w	r3, r3, #2147483648	@ 0x80000000

080009c4 <__adddf3>:
 80009c4:	b530      	push	{r4, r5, lr}
 80009c6:	ea4f 0441 	mov.w	r4, r1, lsl #1
 80009ca:	ea4f 0543 	mov.w	r5, r3, lsl #1
 80009ce:	ea94 0f05 	teq	r4, r5
 80009d2:	bf08      	it	eq
 80009d4:	ea90 0f02 	teqeq	r0, r2
 80009d8:	bf1f      	itttt	ne
 80009da:	ea54 0c00 	orrsne.w	ip, r4, r0
 80009de:	ea55 0c02 	orrsne.w	ip, r5, r2
 80009e2:	ea7f 5c64 	mvnsne.w	ip, r4, asr #21
 80009e6:	ea7f 5c65 	mvnsne.w	ip, r5, asr #21
 80009ea:	f000 80e2 	beq.w	8000bb2 <__adddf3+0x1ee>
 80009ee:	ea4f 5454 	mov.w	r4, r4, lsr #21
 80009f2:	ebd4 5555 	rsbs	r5, r4, r5, lsr #21
 80009f6:	bfb8      	it	lt
 80009f8:	426d      	neglt	r5, r5
 80009fa:	dd0c      	ble.n	8000a16 <__adddf3+0x52>
 80009fc:	442c      	add	r4, r5
 80009fe:	ea80 0202 	eor.w	r2, r0, r2
 8000a02:	ea81 0303 	eor.w	r3, r1, r3
 8000a06:	ea82 0000 	eor.w	r0, r2, r0
 8000a0a:	ea83 0101 	eor.w	r1, r3, r1
 8000a0e:	ea80 0202 	eor.w	r2, r0, r2
 8000a12:	ea81 0303 	eor.w	r3, r1, r3
 8000a16:	2d36      	cmp	r5, #54	@ 0x36
 8000a18:	bf88      	it	hi
 8000a1a:	bd30      	pophi	{r4, r5, pc}
 8000a1c:	f011 4f00 	tst.w	r1, #2147483648	@ 0x80000000
 8000a20:	ea4f 3101 	mov.w	r1, r1, lsl #12
 8000a24:	f44f 1c80 	mov.w	ip, #1048576	@ 0x100000
 8000a28:	ea4c 3111 	orr.w	r1, ip, r1, lsr #12
 8000a2c:	d002      	beq.n	8000a34 <__adddf3+0x70>
 8000a2e:	4240      	negs	r0, r0
 8000a30:	eb61 0141 	sbc.w	r1, r1, r1, lsl #1
 8000a34:	f013 4f00 	tst.w	r3, #2147483648	@ 0x80000000
 8000a38:	ea4f 3303 	mov.w	r3, r3, lsl #12
 8000a3c:	ea4c 3313 	orr.w	r3, ip, r3, lsr #12
 8000a40:	d002      	beq.n	8000a48 <__adddf3+0x84>
 8000a42:	4252      	negs	r2, r2
 8000a44:	eb63 0343 	sbc.w	r3, r3, r3, lsl #1
 8000a48:	ea94 0f05 	teq	r4, r5
 8000a4c:	f000 80a7 	beq.w	8000b9e <__adddf3+0x1da>
 8000a50:	f1a4 0401 	sub.w	r4, r4, #1
 8000a54:	f1d5 0e20 	rsbs	lr, r5, #32
 8000a58:	db0d      	blt.n	8000a76 <__adddf3+0xb2>
 8000a5a:	fa02 fc0e 	lsl.w	ip, r2, lr
 8000a5e:	fa22 f205 	lsr.w	r2, r2, r5
 8000a62:	1880      	adds	r0, r0, r2
 8000a64:	f141 0100 	adc.w	r1, r1, #0
 8000a68:	fa03 f20e 	lsl.w	r2, r3, lr
 8000a6c:	1880      	adds	r0, r0, r2
 8000a6e:	fa43 f305 	asr.w	r3, r3, r5
 8000a72:	4159      	adcs	r1, r3
 8000a74:	e00e      	b.n	8000a94 <__adddf3+0xd0>
 8000a76:	f1a5 0520 	sub.w	r5, r5, #32
 8000a7a:	f10e 0e20 	add.w	lr, lr, #32
 8000a7e:	2a01      	cmp	r2, #1
 8000a80:	fa03 fc0e 	lsl.w	ip, r3, lr
 8000a84:	bf28      	it	cs
 8000a86:	f04c 0c02 	orrcs.w	ip, ip, #2
 8000a8a:	fa43 f305 	asr.w	r3, r3, r5
 8000a8e:	18c0      	adds	r0, r0, r3
 8000a90:	eb51 71e3 	adcs.w	r1, r1, r3, asr #31
 8000a94:	f001 4500 	and.w	r5, r1, #2147483648	@ 0x80000000
 8000a98:	d507      	bpl.n	8000aaa <__adddf3+0xe6>
 8000a9a:	f04f 0e00 	mov.w	lr, #0
 8000a9e:	f1dc 0c00 	rsbs	ip, ip, #0
 8000aa2:	eb7e 0000 	sbcs.w	r0, lr, r0
 8000aa6:	eb6e 0101 	sbc.w	r1, lr, r1
 8000aaa:	f5b1 1f80 	cmp.w	r1, #1048576	@ 0x100000
 8000aae:	d31b      	bcc.n	8000ae8 <__adddf3+0x124>
 8000ab0:	f5b1 1f00 	cmp.w	r1, #2097152	@ 0x200000
 8000ab4:	d30c      	bcc.n	8000ad0 <__adddf3+0x10c>
 8000ab6:	0849      	lsrs	r1, r1, #1
 8000ab8:	ea5f 0030 	movs.w	r0, r0, rrx
 8000abc:	ea4f 0c3c 	mov.w	ip, ip, rrx
 8000ac0:	f104 0401 	add.w	r4, r4, #1
 8000ac4:	ea4f 5244 	mov.w	r2, r4, lsl #21
 8000ac8:	f512 0f80 	cmn.w	r2, #4194304	@ 0x400000
 8000acc:	f080 809a 	bcs.w	8000c04 <__adddf3+0x240>
 8000ad0:	f1bc 4f00 	cmp.w	ip, #2147483648	@ 0x80000000
 8000ad4:	bf08      	it	eq
 8000ad6:	ea5f 0c50 	movseq.w	ip, r0, lsr #1
 8000ada:	f150 0000 	adcs.w	r0, r0, #0
 8000ade:	eb41 5104 	adc.w	r1, r1, r4, lsl #20
 8000ae2:	ea41 0105 	orr.w	r1, r1, r5
 8000ae6:	bd30      	pop	{r4, r5, pc}
 8000ae8:	ea5f 0c4c 	movs.w	ip, ip, lsl #1
 8000aec:	4140      	adcs	r0, r0
 8000aee:	eb41 0101 	adc.w	r1, r1, r1
 8000af2:	3c01      	subs	r4, #1
 8000af4:	bf28      	it	cs
 8000af6:	f5b1 1f80 	cmpcs.w	r1, #1048576	@ 0x100000
 8000afa:	d2e9      	bcs.n	8000ad0 <__adddf3+0x10c>
 8000afc:	f091 0f00 	teq	r1, #0
 8000b00:	bf04      	itt	eq
 8000b02:	4601      	moveq	r1, r0
 8000b04:	2000      	moveq	r0, #0
 8000b06:	fab1 f381 	clz	r3, r1
 8000b0a:	bf08      	it	eq
 8000b0c:	3320      	addeq	r3, #32
 8000b0e:	f1a3 030b 	sub.w	r3, r3, #11
 8000b12:	f1b3 0220 	subs.w	r2, r3, #32
 8000b16:	da0c      	bge.n	8000b32 <__adddf3+0x16e>
 8000b18:	320c      	adds	r2, #12
 8000b1a:	dd08      	ble.n	8000b2e <__adddf3+0x16a>
 8000b1c:	f102 0c14 	add.w	ip, r2, #20
 8000b20:	f1c2 020c 	rsb	r2, r2, #12
 8000b24:	fa01 f00c 	lsl.w	r0, r1, ip
 8000b28:	fa21 f102 	lsr.w	r1, r1, r2
 8000b2c:	e00c      	b.n	8000b48 <__adddf3+0x184>
 8000b2e:	f102 0214 	add.w	r2, r2, #20
 8000b32:	bfd8      	it	le
 8000b34:	f1c2 0c20 	rsble	ip, r2, #32
 8000b38:	fa01 f102 	lsl.w	r1, r1, r2
 8000b3c:	fa20 fc0c 	lsr.w	ip, r0, ip
 8000b40:	bfdc      	itt	le
 8000b42:	ea41 010c 	orrle.w	r1, r1, ip
 8000b46:	4090      	lslle	r0, r2
 8000b48:	1ae4      	subs	r4, r4, r3
 8000b4a:	bfa2      	ittt	ge
 8000b4c:	eb01 5104 	addge.w	r1, r1, r4, lsl #20
 8000b50:	4329      	orrge	r1, r5
 8000b52:	bd30      	popge	{r4, r5, pc}
 8000b54:	ea6f 0404 	mvn.w	r4, r4
 8000b58:	3c1f      	subs	r4, #31
 8000b5a:	da1c      	bge.n	8000b96 <__adddf3+0x1d2>
 8000b5c:	340c      	adds	r4, #12
 8000b5e:	dc0e      	bgt.n	8000b7e <__adddf3+0x1ba>
 8000b60:	f104 0414 	add.w	r4, r4, #20
 8000b64:	f1c4 0220 	rsb	r2, r4, #32
 8000b68:	fa20 f004 	lsr.w	r0, r0, r4
 8000b6c:	fa01 f302 	lsl.w	r3, r1, r2
 8000b70:	ea40 0003 	orr.w	r0, r0, r3
 8000b74:	fa21 f304 	lsr.w	r3, r1, r4
 8000b78:	ea45 0103 	orr.w	r1, r5, r3
 8000b7c:	bd30      	pop	{r4, r5, pc}
 8000b7e:	f1c4 040c 	rsb	r4, r4, #12
 8000b82:	f1c4 0220 	rsb	r2, r4, #32
 8000b86:	fa20 f002 	lsr.w	r0, r0, r2
 8000b8a:	fa01 f304 	lsl.w	r3, r1, r4
 8000b8e:	ea40 0003 	orr.w	r0, r0, r3
 8000b92:	4629      	mov	r1, r5
 8000b94:	bd30      	pop	{r4, r5, pc}
 8000b96:	fa21 f004 	lsr.w	r0, r1, r4
 8000b9a:	4629      	mov	r1, r5
 8000b9c:	bd30      	pop	{r4, r5, pc}
 8000b9e:	f094 0f00 	teq	r4, #0
 8000ba2:	f483 1380 	eor.w	r3, r3, #1048576	@ 0x100000
 8000ba6:	bf06      	itte	eq
 8000ba8:	f481 1180 	eoreq.w	r1, r1, #1048576	@ 0x100000
 8000bac:	3401      	addeq	r4, #1
 8000bae:	3d01      	subne	r5, #1
 8000bb0:	e74e      	b.n	8000a50 <__adddf3+0x8c>
 8000bb2:	ea7f 5c64 	mvns.w	ip, r4, asr #21
 8000bb6:	bf18      	it	ne
 8000bb8:	ea7f 5c65 	mvnsne.w	ip, r5, asr #21
 8000bbc:	d029      	beq.n	8000c12 <__adddf3+0x24e>
 8000bbe:	ea94 0f05 	teq	r4, r5
 8000bc2:	bf08      	it	eq
 8000bc4:	ea90 0f02 	teqeq	r0, r2
 8000bc8:	d005      	beq.n	8000bd6 <__adddf3+0x212>
 8000bca:	ea54 0c00 	orrs.w	ip, r4, r0
 8000bce:	bf04      	itt	eq
 8000bd0:	4619      	moveq	r1, r3
 8000bd2:	4610      	moveq	r0, r2
 8000bd4:	bd30      	pop	{r4, r5, pc}
 8000bd6:	ea91 0f03 	teq	r1, r3
 8000bda:	bf1e      	ittt	ne
 8000bdc:	2100      	movne	r1, #0
 8000bde:	2000      	movne	r0, #0
 8000be0:	bd30      	popne	{r4, r5, pc}
 8000be2:	ea5f 5c54 	movs.w	ip, r4, lsr #21
 8000be6:	d105      	bne.n	8000bf4 <__adddf3+0x230>
 8000be8:	0040      	lsls	r0, r0, #1
 8000bea:	4149      	adcs	r1, r1
 8000bec:	bf28      	it	cs
 8000bee:	f041 4100 	orrcs.w	r1, r1, #2147483648	@ 0x80000000
 8000bf2:	bd30      	pop	{r4, r5, pc}
 8000bf4:	f514 0480 	adds.w	r4, r4, #4194304	@ 0x400000
 8000bf8:	bf3c      	itt	cc
 8000bfa:	f501 1180 	addcc.w	r1, r1, #1048576	@ 0x100000
 8000bfe:	bd30      	popcc	{r4, r5, pc}
 8000c00:	f001 4500 	and.w	r5, r1, #2147483648	@ 0x80000000
 8000c04:	f045 41fe 	orr.w	r1, r5, #2130706432	@ 0x7f000000
 8000c08:	f441 0170 	orr.w	r1, r1, #15728640	@ 0xf00000
 8000c0c:	f04f 0000 	mov.w	r0, #0
 8000c10:	bd30      	pop	{r4, r5, pc}
 8000c12:	ea7f 5c64 	mvns.w	ip, r4, asr #21
 8000c16:	bf1a      	itte	ne
 8000c18:	4619      	movne	r1, r3
 8000c1a:	4610      	movne	r0, r2
 8000c1c:	ea7f 5c65 	mvnseq.w	ip, r5, asr #21
 8000c20:	bf1c      	itt	ne
 8000c22:	460b      	movne	r3, r1
 8000c24:	4602      	movne	r2, r0
 8000c26:	ea50 3401 	orrs.w	r4, r0, r1, lsl #12
 8000c2a:	bf06      	itte	eq
 8000c2c:	ea52 3503 	orrseq.w	r5, r2, r3, lsl #12
 8000c30:	ea91 0f03 	teqeq	r1, r3
 8000c34:	f441 2100 	orrne.w	r1, r1, #524288	@ 0x80000
 8000c38:	bd30      	pop	{r4, r5, pc}
 8000c3a:	bf00      	nop

08000c3c <__aeabi_ui2d>:
 8000c3c:	f090 0f00 	teq	r0, #0
 8000c40:	bf04      	itt	eq
 8000c42:	2100      	moveq	r1, #0
 8000c44:	4770      	bxeq	lr
 8000c46:	b530      	push	{r4, r5, lr}
 8000c48:	f44f 6480 	mov.w	r4, #1024	@ 0x400
 8000c4c:	f104 0432 	add.w	r4, r4, #50	@ 0x32
 8000c50:	f04f 0500 	mov.w	r5, #0
 8000c54:	f04f 0100 	mov.w	r1, #0
 8000c58:	e750      	b.n	8000afc <__adddf3+0x138>
 8000c5a:	bf00      	nop

08000c5c <__aeabi_i2d>:
 8000c5c:	f090 0f00 	teq	r0, #0
 8000c60:	bf04      	itt	eq
 8000c62:	2100      	moveq	r1, #0
 8000c64:	4770      	bxeq	lr
 8000c66:	b530      	push	{r4, r5, lr}
 8000c68:	f44f 6480 	mov.w	r4, #1024	@ 0x400
 8000c6c:	f104 0432 	add.w	r4, r4, #50	@ 0x32
 8000c70:	f010 4500 	ands.w	r5, r0, #2147483648	@ 0x80000000
 8000c74:	bf48      	it	mi
 8000c76:	4240      	negmi	r0, r0
 8000c78:	f04f 0100 	mov.w	r1, #0
 8000c7c:	e73e      	b.n	8000afc <__adddf3+0x138>
 8000c7e:	bf00      	nop

08000c80 <__aeabi_f2d>:
 8000c80:	0042      	lsls	r2, r0, #1
 8000c82:	ea4f 01e2 	mov.w	r1, r2, asr #3
 8000c86:	ea4f 0131 	mov.w	r1, r1, rrx
 8000c8a:	ea4f 7002 	mov.w	r0, r2, lsl #28
 8000c8e:	bf1f      	itttt	ne
 8000c90:	f012 437f 	andsne.w	r3, r2, #4278190080	@ 0xff000000
 8000c94:	f093 4f7f 	teqne	r3, #4278190080	@ 0xff000000
 8000c98:	f081 5160 	eorne.w	r1, r1, #939524096	@ 0x38000000
 8000c9c:	4770      	bxne	lr
 8000c9e:	f032 427f 	bics.w	r2, r2, #4278190080	@ 0xff000000
 8000ca2:	bf08      	it	eq
 8000ca4:	4770      	bxeq	lr
 8000ca6:	f093 4f7f 	teq	r3, #4278190080	@ 0xff000000
 8000caa:	bf04      	itt	eq
 8000cac:	f441 2100 	orreq.w	r1, r1, #524288	@ 0x80000
 8000cb0:	4770      	bxeq	lr
 8000cb2:	b530      	push	{r4, r5, lr}
 8000cb4:	f44f 7460 	mov.w	r4, #896	@ 0x380
 8000cb8:	f001 4500 	and.w	r5, r1, #2147483648	@ 0x80000000
 8000cbc:	f021 4100 	bic.w	r1, r1, #2147483648	@ 0x80000000
 8000cc0:	e71c      	b.n	8000afc <__adddf3+0x138>
 8000cc2:	bf00      	nop

08000cc4 <__aeabi_ul2d>:
 8000cc4:	ea50 0201 	orrs.w	r2, r0, r1
 8000cc8:	bf08      	it	eq
 8000cca:	4770      	bxeq	lr
 8000ccc:	b530      	push	{r4, r5, lr}
 8000cce:	f04f 0500 	mov.w	r5, #0
 8000cd2:	e00a      	b.n	8000cea <__aeabi_l2d+0x16>

08000cd4 <__aeabi_l2d>:
 8000cd4:	ea50 0201 	orrs.w	r2, r0, r1
 8000cd8:	bf08      	it	eq
 8000cda:	4770      	bxeq	lr
 8000cdc:	b530      	push	{r4, r5, lr}
 8000cde:	f011 4500 	ands.w	r5, r1, #2147483648	@ 0x80000000
 8000ce2:	d502      	bpl.n	8000cea <__aeabi_l2d+0x16>
 8000ce4:	4240      	negs	r0, r0
 8000ce6:	eb61 0141 	sbc.w	r1, r1, r1, lsl #1
 8000cea:	f44f 6480 	mov.w	r4, #1024	@ 0x400
 8000cee:	f104 0432 	add.w	r4, r4, #50	@ 0x32
 8000cf2:	ea5f 5c91 	movs.w	ip, r1, lsr #22
 8000cf6:	f43f aed8 	beq.w	8000aaa <__adddf3+0xe6>
 8000cfa:	f04f 0203 	mov.w	r2, #3
 8000cfe:	ea5f 0cdc 	movs.w	ip, ip, lsr #3
 8000d02:	bf18      	it	ne
 8000d04:	3203      	addne	r2, #3
 8000d06:	ea5f 0cdc 	movs.w	ip, ip, lsr #3
 8000d0a:	bf18      	it	ne
 8000d0c:	3203      	addne	r2, #3
 8000d0e:	eb02 02dc 	add.w	r2, r2, ip, lsr #3
 8000d12:	f1c2 0320 	rsb	r3, r2, #32
 8000d16:	fa00 fc03 	lsl.w	ip, r0, r3
 8000d1a:	fa20 f002 	lsr.w	r0, r0, r2
 8000d1e:	fa01 fe03 	lsl.w	lr, r1, r3
 8000d22:	ea40 000e 	orr.w	r0, r0, lr
 8000d26:	fa21 f102 	lsr.w	r1, r1, r2
 8000d2a:	4414      	add	r4, r2
 8000d2c:	e6bd      	b.n	8000aaa <__adddf3+0xe6>
 8000d2e:	bf00      	nop

08000d30 <__aeabi_dmul>:
 8000d30:	b570      	push	{r4, r5, r6, lr}
 8000d32:	f04f 0cff 	mov.w	ip, #255	@ 0xff
 8000d36:	f44c 6ce0 	orr.w	ip, ip, #1792	@ 0x700
 8000d3a:	ea1c 5411 	ands.w	r4, ip, r1, lsr #20
 8000d3e:	bf1d      	ittte	ne
 8000d40:	ea1c 5513 	andsne.w	r5, ip, r3, lsr #20
 8000d44:	ea94 0f0c 	teqne	r4, ip
 8000d48:	ea95 0f0c 	teqne	r5, ip
 8000d4c:	f000 f8de 	bleq	8000f0c <__aeabi_dmul+0x1dc>
 8000d50:	442c      	add	r4, r5
 8000d52:	ea81 0603 	eor.w	r6, r1, r3
 8000d56:	ea21 514c 	bic.w	r1, r1, ip, lsl #21
 8000d5a:	ea23 534c 	bic.w	r3, r3, ip, lsl #21
 8000d5e:	ea50 3501 	orrs.w	r5, r0, r1, lsl #12
 8000d62:	bf18      	it	ne
 8000d64:	ea52 3503 	orrsne.w	r5, r2, r3, lsl #12
 8000d68:	f441 1180 	orr.w	r1, r1, #1048576	@ 0x100000
 8000d6c:	f443 1380 	orr.w	r3, r3, #1048576	@ 0x100000
 8000d70:	d038      	beq.n	8000de4 <__aeabi_dmul+0xb4>
 8000d72:	fba0 ce02 	umull	ip, lr, r0, r2
 8000d76:	f04f 0500 	mov.w	r5, #0
 8000d7a:	fbe1 e502 	umlal	lr, r5, r1, r2
 8000d7e:	f006 4200 	and.w	r2, r6, #2147483648	@ 0x80000000
 8000d82:	fbe0 e503 	umlal	lr, r5, r0, r3
 8000d86:	f04f 0600 	mov.w	r6, #0
 8000d8a:	fbe1 5603 	umlal	r5, r6, r1, r3
 8000d8e:	f09c 0f00 	teq	ip, #0
 8000d92:	bf18      	it	ne
 8000d94:	f04e 0e01 	orrne.w	lr, lr, #1
 8000d98:	f1a4 04ff 	sub.w	r4, r4, #255	@ 0xff
 8000d9c:	f5b6 7f00 	cmp.w	r6, #512	@ 0x200
 8000da0:	f564 7440 	sbc.w	r4, r4, #768	@ 0x300
 8000da4:	d204      	bcs.n	8000db0 <__aeabi_dmul+0x80>
 8000da6:	ea5f 0e4e 	movs.w	lr, lr, lsl #1
 8000daa:	416d      	adcs	r5, r5
 8000dac:	eb46 0606 	adc.w	r6, r6, r6
 8000db0:	ea42 21c6 	orr.w	r1, r2, r6, lsl #11
 8000db4:	ea41 5155 	orr.w	r1, r1, r5, lsr #21
 8000db8:	ea4f 20c5 	mov.w	r0, r5, lsl #11
 8000dbc:	ea40 505e 	orr.w	r0, r0, lr, lsr #21
 8000dc0:	ea4f 2ece 	mov.w	lr, lr, lsl #11
 8000dc4:	f1b4 0cfd 	subs.w	ip, r4, #253	@ 0xfd
 8000dc8:	bf88      	it	hi
 8000dca:	f5bc 6fe0 	cmphi.w	ip, #1792	@ 0x700
 8000dce:	d81e      	bhi.n	8000e0e <__aeabi_dmul+0xde>
 8000dd0:	f1be 4f00 	cmp.w	lr, #2147483648	@ 0x80000000
 8000dd4:	bf08      	it	eq
 8000dd6:	ea5f 0e50 	movseq.w	lr, r0, lsr #1
 8000dda:	f150 0000 	adcs.w	r0, r0, #0
 8000dde:	eb41 5104 	adc.w	r1, r1, r4, lsl #20
 8000de2:	bd70      	pop	{r4, r5, r6, pc}
 8000de4:	f006 4600 	and.w	r6, r6, #2147483648	@ 0x80000000
 8000de8:	ea46 0101 	orr.w	r1, r6, r1
 8000dec:	ea40 0002 	orr.w	r0, r0, r2
 8000df0:	ea81 0103 	eor.w	r1, r1, r3
 8000df4:	ebb4 045c 	subs.w	r4, r4, ip, lsr #1
 8000df8:	bfc2      	ittt	gt
 8000dfa:	ebd4 050c 	rsbsgt	r5, r4, ip
 8000dfe:	ea41 5104 	orrgt.w	r1, r1, r4, lsl #20
 8000e02:	bd70      	popgt	{r4, r5, r6, pc}
 8000e04:	f441 1180 	orr.w	r1, r1, #1048576	@ 0x100000
 8000e08:	f04f 0e00 	mov.w	lr, #0
 8000e0c:	3c01      	subs	r4, #1
 8000e0e:	f300 80ab 	bgt.w	8000f68 <__aeabi_dmul+0x238>
 8000e12:	f114 0f36 	cmn.w	r4, #54	@ 0x36
 8000e16:	bfde      	ittt	le
 8000e18:	2000      	movle	r0, #0
 8000e1a:	f001 4100 	andle.w	r1, r1, #2147483648	@ 0x80000000
 8000e1e:	bd70      	pople	{r4, r5, r6, pc}
 8000e20:	f1c4 0400 	rsb	r4, r4, #0
 8000e24:	3c20      	subs	r4, #32
 8000e26:	da35      	bge.n	8000e94 <__aeabi_dmul+0x164>
 8000e28:	340c      	adds	r4, #12
 8000e2a:	dc1b      	bgt.n	8000e64 <__aeabi_dmul+0x134>
 8000e2c:	f104 0414 	add.w	r4, r4, #20
 8000e30:	f1c4 0520 	rsb	r5, r4, #32
 8000e34:	fa00 f305 	lsl.w	r3, r0, r5
 8000e38:	fa20 f004 	lsr.w	r0, r0, r4
 8000e3c:	fa01 f205 	lsl.w	r2, r1, r5
 8000e40:	ea40 0002 	orr.w	r0, r0, r2
 8000e44:	f001 4200 	and.w	r2, r1, #2147483648	@ 0x80000000
 8000e48:	f021 4100 	bic.w	r1, r1, #2147483648	@ 0x80000000
 8000e4c:	eb10 70d3 	adds.w	r0, r0, r3, lsr #31
 8000e50:	fa21 f604 	lsr.w	r6, r1, r4
 8000e54:	eb42 0106 	adc.w	r1, r2, r6
 8000e58:	ea5e 0e43 	orrs.w	lr, lr, r3, lsl #1
 8000e5c:	bf08      	it	eq
 8000e5e:	ea20 70d3 	biceq.w	r0, r0, r3, lsr #31
 8000e62:	bd70      	pop	{r4, r5, r6, pc}
 8000e64:	f1c4 040c 	rsb	r4, r4, #12
 8000e68:	f1c4 0520 	rsb	r5, r4, #32
 8000e6c:	fa00 f304 	lsl.w	r3, r0, r4
 8000e70:	fa20 f005 	lsr.w	r0, r0, r5
 8000e74:	fa01 f204 	lsl.w	r2, r1, r4
 8000e78:	ea40 0002 	orr.w	r0, r0, r2
 8000e7c:	f001 4100 	and.w	r1, r1, #2147483648	@ 0x80000000
 8000e80:	eb10 70d3 	adds.w	r0, r0, r3, lsr #31
 8000e84:	f141 0100 	adc.w	r1, r1, #0
 8000e88:	ea5e 0e43 	orrs.w	lr, lr, r3, lsl #1
 8000e8c:	bf08      	it	eq
 8000e8e:	ea20 70d3 	biceq.w	r0, r0, r3, lsr #31
 8000e92:	bd70      	pop	{r4, r5, r6, pc}
 8000e94:	f1c4 0520 	rsb	r5, r4, #32
 8000e98:	fa00 f205 	lsl.w	r2, r0, r5
 8000e9c:	ea4e 0e02 	orr.w	lr, lr, r2
 8000ea0:	fa20 f304 	lsr.w	r3, r0, r4
 8000ea4:	fa01 f205 	lsl.w	r2, r1, r5
 8000ea8:	ea43 0302 	orr.w	r3, r3, r2
 8000eac:	fa21 f004 	lsr.w	r0, r1, r4
 8000eb0:	f001 4100 	and.w	r1, r1, #2147483648	@ 0x80000000
 8000eb4:	fa21 f204 	lsr.w	r2, r1, r4
 8000eb8:	ea20 0002 	bic.w	r0, r0, r2
 8000ebc:	eb00 70d3 	add.w	r0, r0, r3, lsr #31
 8000ec0:	ea5e 0e43 	orrs.w	lr, lr, r3, lsl #1
 8000ec4:	bf08      	it	eq
 8000ec6:	ea20 70d3 	biceq.w	r0, r0, r3, lsr #31
 8000eca:	bd70      	pop	{r4, r5, r6, pc}
 8000ecc:	f094 0f00 	teq	r4, #0
 8000ed0:	d10f      	bne.n	8000ef2 <__aeabi_dmul+0x1c2>
 8000ed2:	f001 4600 	and.w	r6, r1, #2147483648	@ 0x80000000
 8000ed6:	0040      	lsls	r0, r0, #1
 8000ed8:	eb41 0101 	adc.w	r1, r1, r1
 8000edc:	f411 1f80 	tst.w	r1, #1048576	@ 0x100000
 8000ee0:	bf08      	it	eq
 8000ee2:	3c01      	subeq	r4, #1
 8000ee4:	d0f7      	beq.n	8000ed6 <__aeabi_dmul+0x1a6>
 8000ee6:	ea41 0106 	orr.w	r1, r1, r6
 8000eea:	f095 0f00 	teq	r5, #0
 8000eee:	bf18      	it	ne
 8000ef0:	4770      	bxne	lr
 8000ef2:	f003 4600 	and.w	r6, r3, #2147483648	@ 0x80000000
 8000ef6:	0052      	lsls	r2, r2, #1
 8000ef8:	eb43 0303 	adc.w	r3, r3, r3
 8000efc:	f413 1f80 	tst.w	r3, #1048576	@ 0x100000
 8000f00:	bf08      	it	eq
 8000f02:	3d01      	subeq	r5, #1
 8000f04:	d0f7      	beq.n	8000ef6 <__aeabi_dmul+0x1c6>
 8000f06:	ea43 0306 	orr.w	r3, r3, r6
 8000f0a:	4770      	bx	lr
 8000f0c:	ea94 0f0c 	teq	r4, ip
 8000f10:	ea0c 5513 	and.w	r5, ip, r3, lsr #20
 8000f14:	bf18      	it	ne
 8000f16:	ea95 0f0c 	teqne	r5, ip
 8000f1a:	d00c      	beq.n	8000f36 <__aeabi_dmul+0x206>
 8000f1c:	ea50 0641 	orrs.w	r6, r0, r1, lsl #1
 8000f20:	bf18      	it	ne
 8000f22:	ea52 0643 	orrsne.w	r6, r2, r3, lsl #1
 8000f26:	d1d1      	bne.n	8000ecc <__aeabi_dmul+0x19c>
 8000f28:	ea81 0103 	eor.w	r1, r1, r3
 8000f2c:	f001 4100 	and.w	r1, r1, #2147483648	@ 0x80000000
 8000f30:	f04f 0000 	mov.w	r0, #0
 8000f34:	bd70      	pop	{r4, r5, r6, pc}
 8000f36:	ea50 0641 	orrs.w	r6, r0, r1, lsl #1
 8000f3a:	bf06      	itte	eq
 8000f3c:	4610      	moveq	r0, r2
 8000f3e:	4619      	moveq	r1, r3
 8000f40:	ea52 0643 	orrsne.w	r6, r2, r3, lsl #1
 8000f44:	d019      	beq.n	8000f7a <__aeabi_dmul+0x24a>
 8000f46:	ea94 0f0c 	teq	r4, ip
 8000f4a:	d102      	bne.n	8000f52 <__aeabi_dmul+0x222>
 8000f4c:	ea50 3601 	orrs.w	r6, r0, r1, lsl #12
 8000f50:	d113      	bne.n	8000f7a <__aeabi_dmul+0x24a>
 8000f52:	ea95 0f0c 	teq	r5, ip
 8000f56:	d105      	bne.n	8000f64 <__aeabi_dmul+0x234>
 8000f58:	ea52 3603 	orrs.w	r6, r2, r3, lsl #12
 8000f5c:	bf1c      	itt	ne
 8000f5e:	4610      	movne	r0, r2
 8000f60:	4619      	movne	r1, r3
 8000f62:	d10a      	bne.n	8000f7a <__aeabi_dmul+0x24a>
 8000f64:	ea81 0103 	eor.w	r1, r1, r3
 8000f68:	f001 4100 	and.w	r1, r1, #2147483648	@ 0x80000000
 8000f6c:	f041 41fe 	orr.w	r1, r1, #2130706432	@ 0x7f000000
 8000f70:	f441 0170 	orr.w	r1, r1, #15728640	@ 0xf00000
 8000f74:	f04f 0000 	mov.w	r0, #0
 8000f78:	bd70      	pop	{r4, r5, r6, pc}
 8000f7a:	f041 41fe 	orr.w	r1, r1, #2130706432	@ 0x7f000000
 8000f7e:	f441 0178 	orr.w	r1, r1, #16252928	@ 0xf80000
 8000f82:	bd70      	pop	{r4, r5, r6, pc}

08000f84 <__aeabi_ddiv>:
 8000f84:	b570      	push	{r4, r5, r6, lr}
 8000f86:	f04f 0cff 	mov.w	ip, #255	@ 0xff
 8000f8a:	f44c 6ce0 	orr.w	ip, ip, #1792	@ 0x700
 8000f8e:	ea1c 5411 	ands.w	r4, ip, r1, lsr #20
 8000f92:	bf1d      	ittte	ne
 8000f94:	ea1c 5513 	andsne.w	r5, ip, r3, lsr #20
 8000f98:	ea94 0f0c 	teqne	r4, ip
 8000f9c:	ea95 0f0c 	teqne	r5, ip
 8000fa0:	f000 f8a7 	bleq	80010f2 <__aeabi_ddiv+0x16e>
 8000fa4:	eba4 0405 	sub.w	r4, r4, r5
 8000fa8:	ea81 0e03 	eor.w	lr, r1, r3
 8000fac:	ea52 3503 	orrs.w	r5, r2, r3, lsl #12
 8000fb0:	ea4f 3101 	mov.w	r1, r1, lsl #12
 8000fb4:	f000 8088 	beq.w	80010c8 <__aeabi_ddiv+0x144>
 8000fb8:	ea4f 3303 	mov.w	r3, r3, lsl #12
 8000fbc:	f04f 5580 	mov.w	r5, #268435456	@ 0x10000000
 8000fc0:	ea45 1313 	orr.w	r3, r5, r3, lsr #4
 8000fc4:	ea43 6312 	orr.w	r3, r3, r2, lsr #24
 8000fc8:	ea4f 2202 	mov.w	r2, r2, lsl #8
 8000fcc:	ea45 1511 	orr.w	r5, r5, r1, lsr #4
 8000fd0:	ea45 6510 	orr.w	r5, r5, r0, lsr #24
 8000fd4:	ea4f 2600 	mov.w	r6, r0, lsl #8
 8000fd8:	f00e 4100 	and.w	r1, lr, #2147483648	@ 0x80000000
 8000fdc:	429d      	cmp	r5, r3
 8000fde:	bf08      	it	eq
 8000fe0:	4296      	cmpeq	r6, r2
 8000fe2:	f144 04fd 	adc.w	r4, r4, #253	@ 0xfd
 8000fe6:	f504 7440 	add.w	r4, r4, #768	@ 0x300
 8000fea:	d202      	bcs.n	8000ff2 <__aeabi_ddiv+0x6e>
 8000fec:	085b      	lsrs	r3, r3, #1
 8000fee:	ea4f 0232 	mov.w	r2, r2, rrx
 8000ff2:	1ab6      	subs	r6, r6, r2
 8000ff4:	eb65 0503 	sbc.w	r5, r5, r3
 8000ff8:	085b      	lsrs	r3, r3, #1
 8000ffa:	ea4f 0232 	mov.w	r2, r2, rrx
 8000ffe:	f44f 1080 	mov.w	r0, #1048576	@ 0x100000
 8001002:	f44f 2c00 	mov.w	ip, #524288	@ 0x80000
 8001006:	ebb6 0e02 	subs.w	lr, r6, r2
 800100a:	eb75 0e03 	sbcs.w	lr, r5, r3
 800100e:	bf22      	ittt	cs
 8001010:	1ab6      	subcs	r6, r6, r2
 8001012:	4675      	movcs	r5, lr
 8001014:	ea40 000c 	orrcs.w	r0, r0, ip
 8001018:	085b      	lsrs	r3, r3, #1
 800101a:	ea4f 0232 	mov.w	r2, r2, rrx
 800101e:	ebb6 0e02 	subs.w	lr, r6, r2
 8001022:	eb75 0e03 	sbcs.w	lr, r5, r3
 8001026:	bf22      	ittt	cs
 8001028:	1ab6      	subcs	r6, r6, r2
 800102a:	4675      	movcs	r5, lr
 800102c:	ea40 005c 	orrcs.w	r0, r0, ip, lsr #1
 8001030:	085b      	lsrs	r3, r3, #1
 8001032:	ea4f 0232 	mov.w	r2, r2, rrx
 8001036:	ebb6 0e02 	subs.w	lr, r6, r2
 800103a:	eb75 0e03 	sbcs.w	lr, r5, r3
 800103e:	bf22      	ittt	cs
 8001040:	1ab6      	subcs	r6, r6, r2
 8001042:	4675      	movcs	r5, lr
 8001044:	ea40 009c 	orrcs.w	r0, r0, ip, lsr #2
 8001048:	085b      	lsrs	r3, r3, #1
 800104a:	ea4f 0232 	mov.w	r2, r2, rrx
 800104e:	ebb6 0e02 	subs.w	lr, r6, r2
 8001052:	eb75 0e03 	sbcs.w	lr, r5, r3
 8001056:	bf22      	ittt	cs
 8001058:	1ab6      	subcs	r6, r6, r2
 800105a:	4675      	movcs	r5, lr
 800105c:	ea40 00dc 	orrcs.w	r0, r0, ip, lsr #3
 8001060:	ea55 0e06 	orrs.w	lr, r5, r6
 8001064:	d018      	beq.n	8001098 <__aeabi_ddiv+0x114>
 8001066:	ea4f 1505 	mov.w	r5, r5, lsl #4
 800106a:	ea45 7516 	orr.w	r5, r5, r6, lsr #28
 800106e:	ea4f 1606 	mov.w	r6, r6, lsl #4
 8001072:	ea4f 03c3 	mov.w	r3, r3, lsl #3
 8001076:	ea43 7352 	orr.w	r3, r3, r2, lsr #29
 800107a:	ea4f 02c2 	mov.w	r2, r2, lsl #3
 800107e:	ea5f 1c1c 	movs.w	ip, ip, lsr #4
 8001082:	d1c0      	bne.n	8001006 <__aeabi_ddiv+0x82>
 8001084:	f411 1f80 	tst.w	r1, #1048576	@ 0x100000
 8001088:	d10b      	bne.n	80010a2 <__aeabi_ddiv+0x11e>
 800108a:	ea41 0100 	orr.w	r1, r1, r0
 800108e:	f04f 0000 	mov.w	r0, #0
 8001092:	f04f 4c00 	mov.w	ip, #2147483648	@ 0x80000000
 8001096:	e7b6      	b.n	8001006 <__aeabi_ddiv+0x82>
 8001098:	f411 1f80 	tst.w	r1, #1048576	@ 0x100000
 800109c:	bf04      	itt	eq
 800109e:	4301      	orreq	r1, r0
 80010a0:	2000      	moveq	r0, #0
 80010a2:	f1b4 0cfd 	subs.w	ip, r4, #253	@ 0xfd
 80010a6:	bf88      	it	hi
 80010a8:	f5bc 6fe0 	cmphi.w	ip, #1792	@ 0x700
 80010ac:	f63f aeaf 	bhi.w	8000e0e <__aeabi_dmul+0xde>
 80010b0:	ebb5 0c03 	subs.w	ip, r5, r3
 80010b4:	bf04      	itt	eq
 80010b6:	ebb6 0c02 	subseq.w	ip, r6, r2
 80010ba:	ea5f 0c50 	movseq.w	ip, r0, lsr #1
 80010be:	f150 0000 	adcs.w	r0, r0, #0
 80010c2:	eb41 5104 	adc.w	r1, r1, r4, lsl #20
 80010c6:	bd70      	pop	{r4, r5, r6, pc}
 80010c8:	f00e 4e00 	and.w	lr, lr, #2147483648	@ 0x80000000
 80010cc:	ea4e 3111 	orr.w	r1, lr, r1, lsr #12
 80010d0:	eb14 045c 	adds.w	r4, r4, ip, lsr #1
 80010d4:	bfc2      	ittt	gt
 80010d6:	ebd4 050c 	rsbsgt	r5, r4, ip
 80010da:	ea41 5104 	orrgt.w	r1, r1, r4, lsl #20
 80010de:	bd70      	popgt	{r4, r5, r6, pc}
 80010e0:	f441 1180 	orr.w	r1, r1, #1048576	@ 0x100000
 80010e4:	f04f 0e00 	mov.w	lr, #0
 80010e8:	3c01      	subs	r4, #1
 80010ea:	e690      	b.n	8000e0e <__aeabi_dmul+0xde>
 80010ec:	ea45 0e06 	orr.w	lr, r5, r6
 80010f0:	e68d      	b.n	8000e0e <__aeabi_dmul+0xde>
 80010f2:	ea0c 5513 	and.w	r5, ip, r3, lsr #20
 80010f6:	ea94 0f0c 	teq	r4, ip
 80010fa:	bf08      	it	eq
 80010fc:	ea95 0f0c 	teqeq	r5, ip
 8001100:	f43f af3b 	beq.w	8000f7a <__aeabi_dmul+0x24a>
 8001104:	ea94 0f0c 	teq	r4, ip
 8001108:	d10a      	bne.n	8001120 <__aeabi_ddiv+0x19c>
 800110a:	ea50 3401 	orrs.w	r4, r0, r1, lsl #12
 800110e:	f47f af34 	bne.w	8000f7a <__aeabi_dmul+0x24a>
 8001112:	ea95 0f0c 	teq	r5, ip
 8001116:	f47f af25 	bne.w	8000f64 <__aeabi_dmul+0x234>
 800111a:	4610      	mov	r0, r2
 800111c:	4619      	mov	r1, r3
 800111e:	e72c      	b.n	8000f7a <__aeabi_dmul+0x24a>
 8001120:	ea95 0f0c 	teq	r5, ip
 8001124:	d106      	bne.n	8001134 <__aeabi_ddiv+0x1b0>
 8001126:	ea52 3503 	orrs.w	r5, r2, r3, lsl #12
 800112a:	f43f aefd 	beq.w	8000f28 <__aeabi_dmul+0x1f8>
 800112e:	4610      	mov	r0, r2
 8001130:	4619      	mov	r1, r3
 8001132:	e722      	b.n	8000f7a <__aeabi_dmul+0x24a>
 8001134:	ea50 0641 	orrs.w	r6, r0, r1, lsl #1
 8001138:	bf18      	it	ne
 800113a:	ea52 0643 	orrsne.w	r6, r2, r3, lsl #1
 800113e:	f47f aec5 	bne.w	8000ecc <__aeabi_dmul+0x19c>
 8001142:	ea50 0441 	orrs.w	r4, r0, r1, lsl #1
 8001146:	f47f af0d 	bne.w	8000f64 <__aeabi_dmul+0x234>
 800114a:	ea52 0543 	orrs.w	r5, r2, r3, lsl #1
 800114e:	f47f aeeb 	bne.w	8000f28 <__aeabi_dmul+0x1f8>
 8001152:	e712      	b.n	8000f7a <__aeabi_dmul+0x24a>

08001154 <__gedf2>:
 8001154:	f04f 3cff 	mov.w	ip, #4294967295
 8001158:	e006      	b.n	8001168 <__cmpdf2+0x4>
 800115a:	bf00      	nop

0800115c <__ledf2>:
 800115c:	f04f 0c01 	mov.w	ip, #1
 8001160:	e002      	b.n	8001168 <__cmpdf2+0x4>
 8001162:	bf00      	nop

08001164 <__cmpdf2>:
 8001164:	f04f 0c01 	mov.w	ip, #1
 8001168:	f84d cd04 	str.w	ip, [sp, #-4]!
 800116c:	ea4f 0c41 	mov.w	ip, r1, lsl #1
 8001170:	ea7f 5c6c 	mvns.w	ip, ip, asr #21
 8001174:	ea4f 0c43 	mov.w	ip, r3, lsl #1
 8001178:	bf18      	it	ne
 800117a:	ea7f 5c6c 	mvnsne.w	ip, ip, asr #21
 800117e:	d01b      	beq.n	80011b8 <__cmpdf2+0x54>
 8001180:	b001      	add	sp, #4
 8001182:	ea50 0c41 	orrs.w	ip, r0, r1, lsl #1
 8001186:	bf0c      	ite	eq
 8001188:	ea52 0c43 	orrseq.w	ip, r2, r3, lsl #1
 800118c:	ea91 0f03 	teqne	r1, r3
 8001190:	bf02      	ittt	eq
 8001192:	ea90 0f02 	teqeq	r0, r2
 8001196:	2000      	moveq	r0, #0
 8001198:	4770      	bxeq	lr
 800119a:	f110 0f00 	cmn.w	r0, #0
 800119e:	ea91 0f03 	teq	r1, r3
 80011a2:	bf58      	it	pl
 80011a4:	4299      	cmppl	r1, r3
 80011a6:	bf08      	it	eq
 80011a8:	4290      	cmpeq	r0, r2
 80011aa:	bf2c      	ite	cs
 80011ac:	17d8      	asrcs	r0, r3, #31
 80011ae:	ea6f 70e3 	mvncc.w	r0, r3, asr #31
 80011b2:	f040 0001 	orr.w	r0, r0, #1
 80011b6:	4770      	bx	lr
 80011b8:	ea4f 0c41 	mov.w	ip, r1, lsl #1
 80011bc:	ea7f 5c6c 	mvns.w	ip, ip, asr #21
 80011c0:	d102      	bne.n	80011c8 <__cmpdf2+0x64>
 80011c2:	ea50 3c01 	orrs.w	ip, r0, r1, lsl #12
 80011c6:	d107      	bne.n	80011d8 <__cmpdf2+0x74>
 80011c8:	ea4f 0c43 	mov.w	ip, r3, lsl #1
 80011cc:	ea7f 5c6c 	mvns.w	ip, ip, asr #21
 80011d0:	d1d6      	bne.n	8001180 <__cmpdf2+0x1c>
 80011d2:	ea52 3c03 	orrs.w	ip, r2, r3, lsl #12
 80011d6:	d0d3      	beq.n	8001180 <__cmpdf2+0x1c>
 80011d8:	f85d 0b04 	ldr.w	r0, [sp], #4
 80011dc:	4770      	bx	lr
 80011de:	bf00      	nop

080011e0 <__aeabi_cdrcmple>:
 80011e0:	4684      	mov	ip, r0
 80011e2:	4610      	mov	r0, r2
 80011e4:	4662      	mov	r2, ip
 80011e6:	468c      	mov	ip, r1
 80011e8:	4619      	mov	r1, r3
 80011ea:	4663      	mov	r3, ip
 80011ec:	e000      	b.n	80011f0 <__aeabi_cdcmpeq>
 80011ee:	bf00      	nop

080011f0 <__aeabi_cdcmpeq>:
 80011f0:	b501      	push	{r0, lr}
 80011f2:	f7ff ffb7 	bl	8001164 <__cmpdf2>
 80011f6:	2800      	cmp	r0, #0
 80011f8:	bf48      	it	mi
 80011fa:	f110 0f00 	cmnmi.w	r0, #0
 80011fe:	bd01      	pop	{r0, pc}

08001200 <__aeabi_dcmpeq>:
 8001200:	f84d ed08 	str.w	lr, [sp, #-8]!
 8001204:	f7ff fff4 	bl	80011f0 <__aeabi_cdcmpeq>
 8001208:	bf0c      	ite	eq
 800120a:	2001      	moveq	r0, #1
 800120c:	2000      	movne	r0, #0
 800120e:	f85d fb08 	ldr.w	pc, [sp], #8
 8001212:	bf00      	nop

08001214 <__aeabi_dcmplt>:
 8001214:	f84d ed08 	str.w	lr, [sp, #-8]!
 8001218:	f7ff ffea 	bl	80011f0 <__aeabi_cdcmpeq>
 800121c:	bf34      	ite	cc
 800121e:	2001      	movcc	r0, #1
 8001220:	2000      	movcs	r0, #0
 8001222:	f85d fb08 	ldr.w	pc, [sp], #8
 8001226:	bf00      	nop

08001228 <__aeabi_dcmple>:
 8001228:	f84d ed08 	str.w	lr, [sp, #-8]!
 800122c:	f7ff ffe0 	bl	80011f0 <__aeabi_cdcmpeq>
 8001230:	bf94      	ite	ls
 8001232:	2001      	movls	r0, #1
 8001234:	2000      	movhi	r0, #0
 8001236:	f85d fb08 	ldr.w	pc, [sp], #8
 800123a:	bf00      	nop

0800123c <__aeabi_dcmpge>:
 800123c:	f84d ed08 	str.w	lr, [sp, #-8]!
 8001240:	f7ff ffce 	bl	80011e0 <__aeabi_cdrcmple>
 8001244:	bf94      	ite	ls
 8001246:	2001      	movls	r0, #1
 8001248:	2000      	movhi	r0, #0
 800124a:	f85d fb08 	ldr.w	pc, [sp], #8
 800124e:	bf00      	nop

08001250 <__aeabi_dcmpgt>:
 8001250:	f84d ed08 	str.w	lr, [sp, #-8]!
 8001254:	f7ff ffc4 	bl	80011e0 <__aeabi_cdrcmple>
 8001258:	bf34      	ite	cc
 800125a:	2001      	movcc	r0, #1
 800125c:	2000      	movcs	r0, #0
 800125e:	f85d fb08 	ldr.w	pc, [sp], #8
 8001262:	bf00      	nop

08001264 <__aeabi_dcmpun>:
 8001264:	ea4f 0c41 	mov.w	ip, r1, lsl #1
 8001268:	ea7f 5c6c 	mvns.w	ip, ip, asr #21
 800126c:	d102      	bne.n	8001274 <__aeabi_dcmpun+0x10>
 800126e:	ea50 3c01 	orrs.w	ip, r0, r1, lsl #12
 8001272:	d10a      	bne.n	800128a <__aeabi_dcmpun+0x26>
 8001274:	ea4f 0c43 	mov.w	ip, r3, lsl #1
 8001278:	ea7f 5c6c 	mvns.w	ip, ip, asr #21
 800127c:	d102      	bne.n	8001284 <__aeabi_dcmpun+0x20>
 800127e:	ea52 3c03 	orrs.w	ip, r2, r3, lsl #12
 8001282:	d102      	bne.n	800128a <__aeabi_dcmpun+0x26>
 8001284:	f04f 0000 	mov.w	r0, #0
 8001288:	4770      	bx	lr
 800128a:	f04f 0001 	mov.w	r0, #1
 800128e:	4770      	bx	lr

08001290 <__aeabi_d2iz>:
 8001290:	ea4f 0241 	mov.w	r2, r1, lsl #1
 8001294:	f512 1200 	adds.w	r2, r2, #2097152	@ 0x200000
 8001298:	d215      	bcs.n	80012c6 <__aeabi_d2iz+0x36>
 800129a:	d511      	bpl.n	80012c0 <__aeabi_d2iz+0x30>
 800129c:	f46f 7378 	mvn.w	r3, #992	@ 0x3e0
 80012a0:	ebb3 5262 	subs.w	r2, r3, r2, asr #21
 80012a4:	d912      	bls.n	80012cc <__aeabi_d2iz+0x3c>
 80012a6:	ea4f 23c1 	mov.w	r3, r1, lsl #11
 80012aa:	f043 4300 	orr.w	r3, r3, #2147483648	@ 0x80000000
 80012ae:	ea43 5350 	orr.w	r3, r3, r0, lsr #21
 80012b2:	f011 4f00 	tst.w	r1, #2147483648	@ 0x80000000
 80012b6:	fa23 f002 	lsr.w	r0, r3, r2
 80012ba:	bf18      	it	ne
 80012bc:	4240      	negne	r0, r0
 80012be:	4770      	bx	lr
 80012c0:	f04f 0000 	mov.w	r0, #0
 80012c4:	4770      	bx	lr
 80012c6:	ea50 3001 	orrs.w	r0, r0, r1, lsl #12
 80012ca:	d105      	bne.n	80012d8 <__aeabi_d2iz+0x48>
 80012cc:	f011 4000 	ands.w	r0, r1, #2147483648	@ 0x80000000
 80012d0:	bf08      	it	eq
 80012d2:	f06f 4000 	mvneq.w	r0, #2147483648	@ 0x80000000
 80012d6:	4770      	bx	lr
 80012d8:	f04f 0000 	mov.w	r0, #0
 80012dc:	4770      	bx	lr
 80012de:	bf00      	nop

Disassembly of section .text.__cvt:

080012e0 <__cvt>:
 80012e0:	e92d 47ff 	stmdb	sp!, {r0, r1, r2, r3, r4, r5, r6, r7, r8, r9, sl, lr}
 80012e4:	ec57 6b10 	vmov	r6, r7, d0
 80012e8:	2f00      	cmp	r7, #0
 80012ea:	460c      	mov	r4, r1
 80012ec:	4691      	mov	r9, r2
 80012ee:	f8dd a030 	ldr.w	sl, [sp, #48]	@ 0x30
 80012f2:	4619      	mov	r1, r3
 80012f4:	f04f 0200 	mov.w	r2, #0
 80012f8:	da03      	bge.n	8001302 <__cvt+0x22>
 80012fa:	f107 4300 	add.w	r3, r7, #2147483648	@ 0x80000000
 80012fe:	461f      	mov	r7, r3
 8001300:	222d      	movs	r2, #45	@ 0x2d
 8001302:	9d0d      	ldr	r5, [sp, #52]	@ 0x34
 8001304:	700a      	strb	r2, [r1, #0]
 8001306:	f025 0520 	bic.w	r5, r5, #32
 800130a:	2d46      	cmp	r5, #70	@ 0x46
 800130c:	d004      	beq.n	8001318 <__cvt+0x38>
 800130e:	2d45      	cmp	r5, #69	@ 0x45
 8001310:	d100      	bne.n	8001314 <__cvt+0x34>
 8001312:	3401      	adds	r4, #1
 8001314:	2102      	movs	r1, #2
 8001316:	e000      	b.n	800131a <__cvt+0x3a>
 8001318:	2103      	movs	r1, #3
 800131a:	ab03      	add	r3, sp, #12
 800131c:	9301      	str	r3, [sp, #4]
 800131e:	ab02      	add	r3, sp, #8
 8001320:	9300      	str	r3, [sp, #0]
 8001322:	ec47 6b10 	vmov	d0, r6, r7
 8001326:	4653      	mov	r3, sl
 8001328:	4622      	mov	r2, r4
 800132a:	f000 fdd1 	bl	8001ed0 <_dtoa_r>
 800132e:	2d47      	cmp	r5, #71	@ 0x47
 8001330:	4680      	mov	r8, r0
 8001332:	d11a      	bne.n	800136a <__cvt+0x8a>
 8001334:	f019 0f01 	tst.w	r9, #1
 8001338:	d00e      	beq.n	8001358 <__cvt+0x78>
 800133a:	eb00 0904 	add.w	r9, r0, r4
 800133e:	2200      	movs	r2, #0
 8001340:	2300      	movs	r3, #0
 8001342:	4630      	mov	r0, r6
 8001344:	4639      	mov	r1, r7
 8001346:	f7ff ff5b 	bl	8001200 <__aeabi_dcmpeq>
 800134a:	b108      	cbz	r0, 8001350 <__cvt+0x70>
 800134c:	f8cd 900c 	str.w	r9, [sp, #12]
 8001350:	2230      	movs	r2, #48	@ 0x30
 8001352:	9b03      	ldr	r3, [sp, #12]
 8001354:	454b      	cmp	r3, r9
 8001356:	d31e      	bcc.n	8001396 <__cvt+0xb6>
 8001358:	9b03      	ldr	r3, [sp, #12]
 800135a:	9a0e      	ldr	r2, [sp, #56]	@ 0x38
 800135c:	eba3 0308 	sub.w	r3, r3, r8
 8001360:	4640      	mov	r0, r8
 8001362:	6013      	str	r3, [r2, #0]
 8001364:	b004      	add	sp, #16
 8001366:	e8bd 87f0 	ldmia.w	sp!, {r4, r5, r6, r7, r8, r9, sl, pc}
 800136a:	2d46      	cmp	r5, #70	@ 0x46
 800136c:	eb00 0904 	add.w	r9, r0, r4
 8001370:	d1e5      	bne.n	800133e <__cvt+0x5e>
 8001372:	7803      	ldrb	r3, [r0, #0]
 8001374:	2b30      	cmp	r3, #48	@ 0x30
 8001376:	d10a      	bne.n	800138e <__cvt+0xae>
 8001378:	2200      	movs	r2, #0
 800137a:	2300      	movs	r3, #0
 800137c:	4630      	mov	r0, r6
 800137e:	4639      	mov	r1, r7
 8001380:	f7ff ff3e 	bl	8001200 <__aeabi_dcmpeq>
 8001384:	b918      	cbnz	r0, 800138e <__cvt+0xae>
 8001386:	f1c4 0401 	rsb	r4, r4, #1
 800138a:	f8ca 4000 	str.w	r4, [sl]
 800138e:	f8da 3000 	ldr.w	r3, [sl]
 8001392:	4499      	add	r9, r3
 8001394:	e7d3      	b.n	800133e <__cvt+0x5e>
 8001396:	1c59      	adds	r1, r3, #1
 8001398:	9103      	str	r1, [sp, #12]
 800139a:	701a      	strb	r2, [r3, #0]
 800139c:	e7d9      	b.n	8001352 <__cvt+0x72>

Disassembly of section .text.__exponent:

0800139e <__exponent>:
 800139e:	b5f7      	push	{r0, r1, r2, r4, r5, r6, r7, lr}
 80013a0:	2900      	cmp	r1, #0
 80013a2:	bfba      	itte	lt
 80013a4:	4249      	neglt	r1, r1
 80013a6:	232d      	movlt	r3, #45	@ 0x2d
 80013a8:	232b      	movge	r3, #43	@ 0x2b
 80013aa:	2909      	cmp	r1, #9
 80013ac:	7002      	strb	r2, [r0, #0]
 80013ae:	7043      	strb	r3, [r0, #1]
 80013b0:	dd2a      	ble.n	8001408 <__exponent+0x6a>
 80013b2:	f10d 0407 	add.w	r4, sp, #7
 80013b6:	1c87      	adds	r7, r0, #2
 80013b8:	46a6      	mov	lr, r4
 80013ba:	260a      	movs	r6, #10
 80013bc:	46a4      	mov	ip, r4
 80013be:	fbb1 f5f6 	udiv	r5, r1, r6
 80013c2:	fb06 1215 	mls	r2, r6, r5, r1
 80013c6:	3230      	adds	r2, #48	@ 0x30
 80013c8:	2963      	cmp	r1, #99	@ 0x63
 80013ca:	f104 34ff 	add.w	r4, r4, #4294967295
 80013ce:	f80c 2c01 	strb.w	r2, [ip, #-1]
 80013d2:	4629      	mov	r1, r5
 80013d4:	dcf2      	bgt.n	80013bc <__exponent+0x1e>
 80013d6:	3130      	adds	r1, #48	@ 0x30
 80013d8:	f1ac 0202 	sub.w	r2, ip, #2
 80013dc:	f804 1c01 	strb.w	r1, [r4, #-1]
 80013e0:	1c41      	adds	r1, r0, #1
 80013e2:	4614      	mov	r4, r2
 80013e4:	4572      	cmp	r2, lr
 80013e6:	d30a      	bcc.n	80013fe <__exponent+0x60>
 80013e8:	f10d 0309 	add.w	r3, sp, #9
 80013ec:	eba3 030c 	sub.w	r3, r3, ip
 80013f0:	45a6      	cmp	lr, r4
 80013f2:	bf38      	it	cc
 80013f4:	2300      	movcc	r3, #0
 80013f6:	443b      	add	r3, r7
 80013f8:	1a18      	subs	r0, r3, r0
 80013fa:	b003      	add	sp, #12
 80013fc:	bdf0      	pop	{r4, r5, r6, r7, pc}
 80013fe:	f812 3b01 	ldrb.w	r3, [r2], #1
 8001402:	f801 3f01 	strb.w	r3, [r1, #1]!
 8001406:	e7ed      	b.n	80013e4 <__exponent+0x46>
 8001408:	2330      	movs	r3, #48	@ 0x30
 800140a:	3130      	adds	r1, #48	@ 0x30
 800140c:	7083      	strb	r3, [r0, #2]
 800140e:	70c1      	strb	r1, [r0, #3]
 8001410:	1d03      	adds	r3, r0, #4
 8001412:	e7f1      	b.n	80013f8 <__exponent+0x5a>

Disassembly of section .text._printf_float:

08001414 <_printf_float>:
 8001414:	e92d 4ff0 	stmdb	sp!, {r4, r5, r6, r7, r8, r9, sl, fp, lr}
 8001418:	b08f      	sub	sp, #60	@ 0x3c
 800141a:	460c      	mov	r4, r1
 800141c:	f8dd 8060 	ldr.w	r8, [sp, #96]	@ 0x60
 8001420:	4616      	mov	r6, r2
 8001422:	461f      	mov	r7, r3
 8001424:	4605      	mov	r5, r0
 8001426:	f000 fcaf 	bl	8001d88 <_localeconv_r>
 800142a:	6803      	ldr	r3, [r0, #0]
 800142c:	9307      	str	r3, [sp, #28]
 800142e:	4618      	mov	r0, r3
 8001430:	f7ff f986 	bl	8000740 <strlen>
 8001434:	2300      	movs	r3, #0
 8001436:	930c      	str	r3, [sp, #48]	@ 0x30
 8001438:	f8d8 3000 	ldr.w	r3, [r8]
 800143c:	f894 a018 	ldrb.w	sl, [r4, #24]
 8001440:	f8d4 b000 	ldr.w	fp, [r4]
 8001444:	9008      	str	r0, [sp, #32]
 8001446:	3307      	adds	r3, #7
 8001448:	f023 0307 	bic.w	r3, r3, #7
 800144c:	ecb3 7b02 	vldmia	r3!, {d7}
 8001450:	ed8d 7b04 	vstr	d7, [sp, #16]
 8001454:	f8c8 3000 	str.w	r3, [r8]
 8001458:	e9dd 8304 	ldrd	r8, r3, [sp, #16]
 800145c:	f023 4900 	bic.w	r9, r3, #2147483648	@ 0x80000000
 8001460:	ed84 7b12 	vstr	d7, [r4, #72]	@ 0x48
 8001464:	4b9a      	ldr	r3, [pc, #616]	@ (80016d0 <_printf_float+0x2bc>)
 8001466:	f04f 32ff 	mov.w	r2, #4294967295
 800146a:	4640      	mov	r0, r8
 800146c:	4649      	mov	r1, r9
 800146e:	f7ff fef9 	bl	8001264 <__aeabi_dcmpun>
 8001472:	bb70      	cbnz	r0, 80014d2 <_printf_float+0xbe>
 8001474:	4b96      	ldr	r3, [pc, #600]	@ (80016d0 <_printf_float+0x2bc>)
 8001476:	f04f 32ff 	mov.w	r2, #4294967295
 800147a:	4640      	mov	r0, r8
 800147c:	4649      	mov	r1, r9
 800147e:	f7ff fed3 	bl	8001228 <__aeabi_dcmple>
 8001482:	bb30      	cbnz	r0, 80014d2 <_printf_float+0xbe>
 8001484:	e9dd 0104 	ldrd	r0, r1, [sp, #16]
 8001488:	2200      	movs	r2, #0
 800148a:	2300      	movs	r3, #0
 800148c:	f7ff fec2 	bl	8001214 <__aeabi_dcmplt>
 8001490:	b110      	cbz	r0, 8001498 <_printf_float+0x84>
 8001492:	232d      	movs	r3, #45	@ 0x2d
 8001494:	f884 3043 	strb.w	r3, [r4, #67]	@ 0x43
 8001498:	4a8e      	ldr	r2, [pc, #568]	@ (80016d4 <_printf_float+0x2c0>)
 800149a:	4b8f      	ldr	r3, [pc, #572]	@ (80016d8 <_printf_float+0x2c4>)
 800149c:	f1ba 0f47 	cmp.w	sl, #71	@ 0x47
 80014a0:	bf8c      	ite	hi
 80014a2:	4690      	movhi	r8, r2
 80014a4:	4698      	movls	r8, r3
 80014a6:	2303      	movs	r3, #3
 80014a8:	6123      	str	r3, [r4, #16]
 80014aa:	f02b 0304 	bic.w	r3, fp, #4
 80014ae:	6023      	str	r3, [r4, #0]
 80014b0:	f04f 0900 	mov.w	r9, #0
 80014b4:	9700      	str	r7, [sp, #0]
 80014b6:	4633      	mov	r3, r6
 80014b8:	aa0d      	add	r2, sp, #52	@ 0x34
 80014ba:	4621      	mov	r1, r4
 80014bc:	4628      	mov	r0, r5
 80014be:	f000 f9cd 	bl	800185c <_printf_common>
 80014c2:	3001      	adds	r0, #1
 80014c4:	f040 808c 	bne.w	80015e0 <_printf_float+0x1cc>
 80014c8:	f04f 30ff 	mov.w	r0, #4294967295
 80014cc:	b00f      	add	sp, #60	@ 0x3c
 80014ce:	e8bd 8ff0 	ldmia.w	sp!, {r4, r5, r6, r7, r8, r9, sl, fp, pc}
 80014d2:	e9dd 2304 	ldrd	r2, r3, [sp, #16]
 80014d6:	4610      	mov	r0, r2
 80014d8:	4619      	mov	r1, r3
 80014da:	f7ff fec3 	bl	8001264 <__aeabi_dcmpun>
 80014de:	b140      	cbz	r0, 80014f2 <_printf_float+0xde>
 80014e0:	9b05      	ldr	r3, [sp, #20]
 80014e2:	4a7e      	ldr	r2, [pc, #504]	@ (80016dc <_printf_float+0x2c8>)
 80014e4:	2b00      	cmp	r3, #0
 80014e6:	bfbc      	itt	lt
 80014e8:	232d      	movlt	r3, #45	@ 0x2d
 80014ea:	f884 3043 	strblt.w	r3, [r4, #67]	@ 0x43
 80014ee:	4b7c      	ldr	r3, [pc, #496]	@ (80016e0 <_printf_float+0x2cc>)
 80014f0:	e7d4      	b.n	800149c <_printf_float+0x88>
 80014f2:	6863      	ldr	r3, [r4, #4]
 80014f4:	1c5a      	adds	r2, r3, #1
 80014f6:	f00a 09df 	and.w	r9, sl, #223	@ 0xdf
 80014fa:	d13b      	bne.n	8001574 <_printf_float+0x160>
 80014fc:	2306      	movs	r3, #6
 80014fe:	6063      	str	r3, [r4, #4]
 8001500:	f44b 6280 	orr.w	r2, fp, #1024	@ 0x400
 8001504:	2300      	movs	r3, #0
 8001506:	6022      	str	r2, [r4, #0]
 8001508:	9303      	str	r3, [sp, #12]
 800150a:	ab0c      	add	r3, sp, #48	@ 0x30
 800150c:	e9cd a301 	strd	sl, r3, [sp, #4]
 8001510:	ab0b      	add	r3, sp, #44	@ 0x2c
 8001512:	9300      	str	r3, [sp, #0]
 8001514:	6861      	ldr	r1, [r4, #4]
 8001516:	ed9d 0b04 	vldr	d0, [sp, #16]
 800151a:	f10d 032b 	add.w	r3, sp, #43	@ 0x2b
 800151e:	4628      	mov	r0, r5
 8001520:	f7ff fede 	bl	80012e0 <__cvt>
 8001524:	f1b9 0f47 	cmp.w	r9, #71	@ 0x47
 8001528:	990b      	ldr	r1, [sp, #44]	@ 0x2c
 800152a:	4680      	mov	r8, r0
 800152c:	d129      	bne.n	8001582 <_printf_float+0x16e>
 800152e:	1cc8      	adds	r0, r1, #3
 8001530:	db02      	blt.n	8001538 <_printf_float+0x124>
 8001532:	6863      	ldr	r3, [r4, #4]
 8001534:	428b      	cmp	r3, r1
 8001536:	da41      	bge.n	80015bc <_printf_float+0x1a8>
 8001538:	f1aa 0a02 	sub.w	sl, sl, #2
 800153c:	fa5f fa8a 	uxtb.w	sl, sl
 8001540:	3901      	subs	r1, #1
 8001542:	4652      	mov	r2, sl
 8001544:	f104 0050 	add.w	r0, r4, #80	@ 0x50
 8001548:	910b      	str	r1, [sp, #44]	@ 0x2c
 800154a:	f7ff ff28 	bl	800139e <__exponent>
 800154e:	9a0c      	ldr	r2, [sp, #48]	@ 0x30
 8001550:	1813      	adds	r3, r2, r0
 8001552:	2a01      	cmp	r2, #1
 8001554:	4681      	mov	r9, r0
 8001556:	6123      	str	r3, [r4, #16]
 8001558:	dc02      	bgt.n	8001560 <_printf_float+0x14c>
 800155a:	6822      	ldr	r2, [r4, #0]
 800155c:	07d2      	lsls	r2, r2, #31
 800155e:	d501      	bpl.n	8001564 <_printf_float+0x150>
 8001560:	3301      	adds	r3, #1
 8001562:	6123      	str	r3, [r4, #16]
 8001564:	f89d 302b 	ldrb.w	r3, [sp, #43]	@ 0x2b
 8001568:	2b00      	cmp	r3, #0
 800156a:	d0a3      	beq.n	80014b4 <_printf_float+0xa0>
 800156c:	232d      	movs	r3, #45	@ 0x2d
 800156e:	f884 3043 	strb.w	r3, [r4, #67]	@ 0x43
 8001572:	e79f      	b.n	80014b4 <_printf_float+0xa0>
 8001574:	f1b9 0f47 	cmp.w	r9, #71	@ 0x47
 8001578:	d1c2      	bne.n	8001500 <_printf_float+0xec>
 800157a:	2b00      	cmp	r3, #0
 800157c:	d1c0      	bne.n	8001500 <_printf_float+0xec>
 800157e:	2301      	movs	r3, #1
 8001580:	e7bd      	b.n	80014fe <_printf_float+0xea>
 8001582:	f1ba 0f65 	cmp.w	sl, #101	@ 0x65
 8001586:	d9db      	bls.n	8001540 <_printf_float+0x12c>
 8001588:	f1ba 0f66 	cmp.w	sl, #102	@ 0x66
 800158c:	d118      	bne.n	80015c0 <_printf_float+0x1ac>
 800158e:	2900      	cmp	r1, #0
 8001590:	6863      	ldr	r3, [r4, #4]
 8001592:	dd0b      	ble.n	80015ac <_printf_float+0x198>
 8001594:	6121      	str	r1, [r4, #16]
 8001596:	b913      	cbnz	r3, 800159e <_printf_float+0x18a>
 8001598:	6822      	ldr	r2, [r4, #0]
 800159a:	07d0      	lsls	r0, r2, #31
 800159c:	d502      	bpl.n	80015a4 <_printf_float+0x190>
 800159e:	3301      	adds	r3, #1
 80015a0:	440b      	add	r3, r1
 80015a2:	6123      	str	r3, [r4, #16]
 80015a4:	65a1      	str	r1, [r4, #88]	@ 0x58
 80015a6:	f04f 0900 	mov.w	r9, #0
 80015aa:	e7db      	b.n	8001564 <_printf_float+0x150>
 80015ac:	b913      	cbnz	r3, 80015b4 <_printf_float+0x1a0>
 80015ae:	6822      	ldr	r2, [r4, #0]
 80015b0:	07d2      	lsls	r2, r2, #31
 80015b2:	d501      	bpl.n	80015b8 <_printf_float+0x1a4>
 80015b4:	3302      	adds	r3, #2
 80015b6:	e7f4      	b.n	80015a2 <_printf_float+0x18e>
 80015b8:	2301      	movs	r3, #1
 80015ba:	e7f2      	b.n	80015a2 <_printf_float+0x18e>
 80015bc:	f04f 0a67 	mov.w	sl, #103	@ 0x67
 80015c0:	9b0c      	ldr	r3, [sp, #48]	@ 0x30
 80015c2:	428b      	cmp	r3, r1
 80015c4:	dc05      	bgt.n	80015d2 <_printf_float+0x1be>
 80015c6:	6823      	ldr	r3, [r4, #0]
 80015c8:	6121      	str	r1, [r4, #16]
 80015ca:	07d8      	lsls	r0, r3, #31
 80015cc:	d5ea      	bpl.n	80015a4 <_printf_float+0x190>
 80015ce:	1c4b      	adds	r3, r1, #1
 80015d0:	e7e7      	b.n	80015a2 <_printf_float+0x18e>
 80015d2:	2900      	cmp	r1, #0
 80015d4:	bfd4      	ite	le
 80015d6:	f1c1 0202 	rsble	r2, r1, #2
 80015da:	2201      	movgt	r2, #1
 80015dc:	4413      	add	r3, r2
 80015de:	e7e0      	b.n	80015a2 <_printf_float+0x18e>
 80015e0:	6823      	ldr	r3, [r4, #0]
 80015e2:	055a      	lsls	r2, r3, #21
 80015e4:	d407      	bmi.n	80015f6 <_printf_float+0x1e2>
 80015e6:	6923      	ldr	r3, [r4, #16]
 80015e8:	4642      	mov	r2, r8
 80015ea:	4631      	mov	r1, r6
 80015ec:	4628      	mov	r0, r5
 80015ee:	47b8      	blx	r7
 80015f0:	3001      	adds	r0, #1
 80015f2:	d128      	bne.n	8001646 <_printf_float+0x232>
 80015f4:	e768      	b.n	80014c8 <_printf_float+0xb4>
 80015f6:	f1ba 0f65 	cmp.w	sl, #101	@ 0x65
 80015fa:	f240 80db 	bls.w	80017b4 <_printf_float+0x3a0>
 80015fe:	e9d4 0112 	ldrd	r0, r1, [r4, #72]	@ 0x48
 8001602:	2200      	movs	r2, #0
 8001604:	2300      	movs	r3, #0
 8001606:	f7ff fdfb 	bl	8001200 <__aeabi_dcmpeq>
 800160a:	b390      	cbz	r0, 8001672 <_printf_float+0x25e>
 800160c:	4a35      	ldr	r2, [pc, #212]	@ (80016e4 <_printf_float+0x2d0>)
 800160e:	2301      	movs	r3, #1
 8001610:	4631      	mov	r1, r6
 8001612:	4628      	mov	r0, r5
 8001614:	47b8      	blx	r7
 8001616:	3001      	adds	r0, #1
 8001618:	f43f af56 	beq.w	80014c8 <_printf_float+0xb4>
 800161c:	e9dd 380b 	ldrd	r3, r8, [sp, #44]	@ 0x2c
 8001620:	4543      	cmp	r3, r8
 8001622:	db02      	blt.n	800162a <_printf_float+0x216>
 8001624:	6823      	ldr	r3, [r4, #0]
 8001626:	07d8      	lsls	r0, r3, #31
 8001628:	d50d      	bpl.n	8001646 <_printf_float+0x232>
 800162a:	e9dd 2307 	ldrd	r2, r3, [sp, #28]
 800162e:	4631      	mov	r1, r6
 8001630:	4628      	mov	r0, r5
 8001632:	47b8      	blx	r7
 8001634:	3001      	adds	r0, #1
 8001636:	f43f af47 	beq.w	80014c8 <_printf_float+0xb4>
 800163a:	f04f 0900 	mov.w	r9, #0
 800163e:	f108 38ff 	add.w	r8, r8, #4294967295
 8001642:	45c8      	cmp	r8, r9
 8001644:	dc09      	bgt.n	800165a <_printf_float+0x246>
 8001646:	6823      	ldr	r3, [r4, #0]
 8001648:	079b      	lsls	r3, r3, #30
 800164a:	f100 8104 	bmi.w	8001856 <_printf_float+0x442>
 800164e:	68e0      	ldr	r0, [r4, #12]
 8001650:	9b0d      	ldr	r3, [sp, #52]	@ 0x34
 8001652:	4298      	cmp	r0, r3
 8001654:	bfb8      	it	lt
 8001656:	4618      	movlt	r0, r3
 8001658:	e738      	b.n	80014cc <_printf_float+0xb8>
 800165a:	2301      	movs	r3, #1
 800165c:	f104 021a 	add.w	r2, r4, #26
 8001660:	4631      	mov	r1, r6
 8001662:	4628      	mov	r0, r5
 8001664:	47b8      	blx	r7
 8001666:	3001      	adds	r0, #1
 8001668:	f43f af2e 	beq.w	80014c8 <_printf_float+0xb4>
 800166c:	f109 0901 	add.w	r9, r9, #1
 8001670:	e7e7      	b.n	8001642 <_printf_float+0x22e>
 8001672:	9b0b      	ldr	r3, [sp, #44]	@ 0x2c
 8001674:	4283      	cmp	r3, r0
 8001676:	dc37      	bgt.n	80016e8 <_printf_float+0x2d4>
 8001678:	4a1a      	ldr	r2, [pc, #104]	@ (80016e4 <_printf_float+0x2d0>)
 800167a:	2301      	movs	r3, #1
 800167c:	4631      	mov	r1, r6
 800167e:	4628      	mov	r0, r5
 8001680:	47b8      	blx	r7
 8001682:	3001      	adds	r0, #1
 8001684:	f43f af20 	beq.w	80014c8 <_printf_float+0xb4>
 8001688:	e9dd 390b 	ldrd	r3, r9, [sp, #44]	@ 0x2c
 800168c:	ea59 0303 	orrs.w	r3, r9, r3
 8001690:	d102      	bne.n	8001698 <_printf_float+0x284>
 8001692:	6823      	ldr	r3, [r4, #0]
 8001694:	07d9      	lsls	r1, r3, #31
 8001696:	d5d6      	bpl.n	8001646 <_printf_float+0x232>
 8001698:	e9dd 2307 	ldrd	r2, r3, [sp, #28]
 800169c:	4631      	mov	r1, r6
 800169e:	4628      	mov	r0, r5
 80016a0:	47b8      	blx	r7
 80016a2:	3001      	adds	r0, #1
 80016a4:	f43f af10 	beq.w	80014c8 <_printf_float+0xb4>
 80016a8:	f04f 0a00 	mov.w	sl, #0
 80016ac:	9b0b      	ldr	r3, [sp, #44]	@ 0x2c
 80016ae:	425b      	negs	r3, r3
 80016b0:	4553      	cmp	r3, sl
 80016b2:	dc01      	bgt.n	80016b8 <_printf_float+0x2a4>
 80016b4:	464b      	mov	r3, r9
 80016b6:	e797      	b.n	80015e8 <_printf_float+0x1d4>
 80016b8:	2301      	movs	r3, #1
 80016ba:	f104 021a 	add.w	r2, r4, #26
 80016be:	4631      	mov	r1, r6
 80016c0:	4628      	mov	r0, r5
 80016c2:	47b8      	blx	r7
 80016c4:	3001      	adds	r0, #1
 80016c6:	f43f aeff 	beq.w	80014c8 <_printf_float+0xb4>
 80016ca:	f10a 0a01 	add.w	sl, sl, #1
 80016ce:	e7ed      	b.n	80016ac <_printf_float+0x298>
 80016d0:	7fefffff 			@ <UNDEFINED> instruction: 7fefffff
 80016d4:	08004b7e 			@ <UNDEFINED> instruction: 08004b7e
 80016d8:	08004b7a 			@ <UNDEFINED> instruction: 08004b7a
 80016dc:	08004b86 			@ <UNDEFINED> instruction: 08004b86
 80016e0:	08004b82 			@ <UNDEFINED> instruction: 08004b82
 80016e4:	08004b8a 			@ <UNDEFINED> instruction: 08004b8a
 80016e8:	6da3      	ldr	r3, [r4, #88]	@ 0x58
 80016ea:	f8dd b030 	ldr.w	fp, [sp, #48]	@ 0x30
 80016ee:	455b      	cmp	r3, fp
 80016f0:	bfa8      	it	ge
 80016f2:	465b      	movge	r3, fp
 80016f4:	2b00      	cmp	r3, #0
 80016f6:	9304      	str	r3, [sp, #16]
 80016f8:	dc37      	bgt.n	800176a <_printf_float+0x356>
 80016fa:	f04f 0900 	mov.w	r9, #0
 80016fe:	f104 021a 	add.w	r2, r4, #26
 8001702:	9b04      	ldr	r3, [sp, #16]
 8001704:	f8d4 a058 	ldr.w	sl, [r4, #88]	@ 0x58
 8001708:	2b00      	cmp	r3, #0
 800170a:	bfac      	ite	ge
 800170c:	ebaa 0303 	subge.w	r3, sl, r3
 8001710:	4653      	movlt	r3, sl
 8001712:	454b      	cmp	r3, r9
 8001714:	dc31      	bgt.n	800177a <_printf_float+0x366>
 8001716:	9b0b      	ldr	r3, [sp, #44]	@ 0x2c
 8001718:	459b      	cmp	fp, r3
 800171a:	dc3a      	bgt.n	8001792 <_printf_float+0x37e>
 800171c:	6823      	ldr	r3, [r4, #0]
 800171e:	07da      	lsls	r2, r3, #31
 8001720:	d437      	bmi.n	8001792 <_printf_float+0x37e>
 8001722:	9b0b      	ldr	r3, [sp, #44]	@ 0x2c
 8001724:	ebab 0903 	sub.w	r9, fp, r3
 8001728:	ebab 030a 	sub.w	r3, fp, sl
 800172c:	4599      	cmp	r9, r3
 800172e:	bfa8      	it	ge
 8001730:	4699      	movge	r9, r3
 8001732:	f1b9 0f00 	cmp.w	r9, #0
 8001736:	dc34      	bgt.n	80017a2 <_printf_float+0x38e>
 8001738:	f04f 0800 	mov.w	r8, #0
 800173c:	9b0b      	ldr	r3, [sp, #44]	@ 0x2c
 800173e:	f1b9 0f00 	cmp.w	r9, #0
 8001742:	ebab 0303 	sub.w	r3, fp, r3
 8001746:	bfa8      	it	ge
 8001748:	eba3 0309 	subge.w	r3, r3, r9
 800174c:	4543      	cmp	r3, r8
 800174e:	f77f af7a 	ble.w	8001646 <_printf_float+0x232>
 8001752:	2301      	movs	r3, #1
 8001754:	f104 021a 	add.w	r2, r4, #26
 8001758:	4631      	mov	r1, r6
 800175a:	4628      	mov	r0, r5
 800175c:	47b8      	blx	r7
 800175e:	3001      	adds	r0, #1
 8001760:	f43f aeb2 	beq.w	80014c8 <_printf_float+0xb4>
 8001764:	f108 0801 	add.w	r8, r8, #1
 8001768:	e7e8      	b.n	800173c <_printf_float+0x328>
 800176a:	9b04      	ldr	r3, [sp, #16]
 800176c:	4642      	mov	r2, r8
 800176e:	4631      	mov	r1, r6
 8001770:	4628      	mov	r0, r5
 8001772:	47b8      	blx	r7
 8001774:	3001      	adds	r0, #1
 8001776:	d1c0      	bne.n	80016fa <_printf_float+0x2e6>
 8001778:	e6a6      	b.n	80014c8 <_printf_float+0xb4>
 800177a:	2301      	movs	r3, #1
 800177c:	4631      	mov	r1, r6
 800177e:	4628      	mov	r0, r5
 8001780:	9209      	str	r2, [sp, #36]	@ 0x24
 8001782:	47b8      	blx	r7
 8001784:	3001      	adds	r0, #1
 8001786:	f43f ae9f 	beq.w	80014c8 <_printf_float+0xb4>
 800178a:	9a09      	ldr	r2, [sp, #36]	@ 0x24
 800178c:	f109 0901 	add.w	r9, r9, #1
 8001790:	e7b7      	b.n	8001702 <_printf_float+0x2ee>
 8001792:	e9dd 2307 	ldrd	r2, r3, [sp, #28]
 8001796:	4631      	mov	r1, r6
 8001798:	4628      	mov	r0, r5
 800179a:	47b8      	blx	r7
 800179c:	3001      	adds	r0, #1
 800179e:	d1c0      	bne.n	8001722 <_printf_float+0x30e>
 80017a0:	e692      	b.n	80014c8 <_printf_float+0xb4>
 80017a2:	464b      	mov	r3, r9
 80017a4:	eb08 020a 	add.w	r2, r8, sl
 80017a8:	4631      	mov	r1, r6
 80017aa:	4628      	mov	r0, r5
 80017ac:	47b8      	blx	r7
 80017ae:	3001      	adds	r0, #1
 80017b0:	d1c2      	bne.n	8001738 <_printf_float+0x324>
 80017b2:	e689      	b.n	80014c8 <_printf_float+0xb4>
 80017b4:	f8dd a030 	ldr.w	sl, [sp, #48]	@ 0x30
 80017b8:	f1ba 0f01 	cmp.w	sl, #1
 80017bc:	dc01      	bgt.n	80017c2 <_printf_float+0x3ae>
 80017be:	07db      	lsls	r3, r3, #31
 80017c0:	d535      	bpl.n	800182e <_printf_float+0x41a>
 80017c2:	2301      	movs	r3, #1
 80017c4:	4642      	mov	r2, r8
 80017c6:	4631      	mov	r1, r6
 80017c8:	4628      	mov	r0, r5
 80017ca:	47b8      	blx	r7
 80017cc:	3001      	adds	r0, #1
 80017ce:	f43f ae7b 	beq.w	80014c8 <_printf_float+0xb4>
 80017d2:	e9dd 2307 	ldrd	r2, r3, [sp, #28]
 80017d6:	4631      	mov	r1, r6
 80017d8:	4628      	mov	r0, r5
 80017da:	47b8      	blx	r7
 80017dc:	3001      	adds	r0, #1
 80017de:	f43f ae73 	beq.w	80014c8 <_printf_float+0xb4>
 80017e2:	e9d4 0112 	ldrd	r0, r1, [r4, #72]	@ 0x48
 80017e6:	2200      	movs	r2, #0
 80017e8:	2300      	movs	r3, #0
 80017ea:	f10a 3aff 	add.w	sl, sl, #4294967295
 80017ee:	f7ff fd07 	bl	8001200 <__aeabi_dcmpeq>
 80017f2:	b9c8      	cbnz	r0, 8001828 <_printf_float+0x414>
 80017f4:	4653      	mov	r3, sl
 80017f6:	f108 0201 	add.w	r2, r8, #1
 80017fa:	4631      	mov	r1, r6
 80017fc:	4628      	mov	r0, r5
 80017fe:	47b8      	blx	r7
 8001800:	3001      	adds	r0, #1
 8001802:	d10d      	bne.n	8001820 <_printf_float+0x40c>
 8001804:	e660      	b.n	80014c8 <_printf_float+0xb4>
 8001806:	2301      	movs	r3, #1
 8001808:	f104 021a 	add.w	r2, r4, #26
 800180c:	4631      	mov	r1, r6
 800180e:	4628      	mov	r0, r5
 8001810:	47b8      	blx	r7
 8001812:	3001      	adds	r0, #1
 8001814:	f43f ae58 	beq.w	80014c8 <_printf_float+0xb4>
 8001818:	f108 0801 	add.w	r8, r8, #1
 800181c:	45d0      	cmp	r8, sl
 800181e:	dbf2      	blt.n	8001806 <_printf_float+0x3f2>
 8001820:	464b      	mov	r3, r9
 8001822:	f104 0250 	add.w	r2, r4, #80	@ 0x50
 8001826:	e6e0      	b.n	80015ea <_printf_float+0x1d6>
 8001828:	f04f 0800 	mov.w	r8, #0
 800182c:	e7f6      	b.n	800181c <_printf_float+0x408>
 800182e:	2301      	movs	r3, #1
 8001830:	4642      	mov	r2, r8
 8001832:	e7e2      	b.n	80017fa <_printf_float+0x3e6>
 8001834:	2301      	movs	r3, #1
 8001836:	f104 0219 	add.w	r2, r4, #25
 800183a:	4631      	mov	r1, r6
 800183c:	4628      	mov	r0, r5
 800183e:	47b8      	blx	r7
 8001840:	3001      	adds	r0, #1
 8001842:	f43f ae41 	beq.w	80014c8 <_printf_float+0xb4>
 8001846:	f108 0801 	add.w	r8, r8, #1
 800184a:	68e3      	ldr	r3, [r4, #12]
 800184c:	990d      	ldr	r1, [sp, #52]	@ 0x34
 800184e:	1a5b      	subs	r3, r3, r1
 8001850:	4543      	cmp	r3, r8
 8001852:	dcef      	bgt.n	8001834 <_printf_float+0x420>
 8001854:	e6fb      	b.n	800164e <_printf_float+0x23a>
 8001856:	f04f 0800 	mov.w	r8, #0
 800185a:	e7f6      	b.n	800184a <_printf_float+0x436>

Disassembly of section .text._printf_common:

0800185c <_printf_common>:
 800185c:	e92d 47f0 	stmdb	sp!, {r4, r5, r6, r7, r8, r9, sl, lr}
 8001860:	4691      	mov	r9, r2
 8001862:	4698      	mov	r8, r3
 8001864:	688a      	ldr	r2, [r1, #8]
 8001866:	690b      	ldr	r3, [r1, #16]
 8001868:	9e08      	ldr	r6, [sp, #32]
 800186a:	4293      	cmp	r3, r2
 800186c:	bfb8      	it	lt
 800186e:	4613      	movlt	r3, r2
 8001870:	f8c9 3000 	str.w	r3, [r9]
 8001874:	f891 2043 	ldrb.w	r2, [r1, #67]	@ 0x43
 8001878:	4607      	mov	r7, r0
 800187a:	460c      	mov	r4, r1
 800187c:	b112      	cbz	r2, 8001884 <_printf_common+0x28>
 800187e:	3301      	adds	r3, #1
 8001880:	f8c9 3000 	str.w	r3, [r9]
 8001884:	6823      	ldr	r3, [r4, #0]
 8001886:	0699      	lsls	r1, r3, #26
 8001888:	bf42      	ittt	mi
 800188a:	f8d9 3000 	ldrmi.w	r3, [r9]
 800188e:	3302      	addmi	r3, #2
 8001890:	f8c9 3000 	strmi.w	r3, [r9]
 8001894:	6825      	ldr	r5, [r4, #0]
 8001896:	f015 0506 	ands.w	r5, r5, #6
 800189a:	d107      	bne.n	80018ac <_printf_common+0x50>
 800189c:	f104 0a19 	add.w	sl, r4, #25
 80018a0:	68e3      	ldr	r3, [r4, #12]
 80018a2:	f8d9 2000 	ldr.w	r2, [r9]
 80018a6:	1a9b      	subs	r3, r3, r2
 80018a8:	42ab      	cmp	r3, r5
 80018aa:	dc29      	bgt.n	8001900 <_printf_common+0xa4>
 80018ac:	f894 3043 	ldrb.w	r3, [r4, #67]	@ 0x43
 80018b0:	6822      	ldr	r2, [r4, #0]
 80018b2:	3b00      	subs	r3, #0
 80018b4:	bf18      	it	ne
 80018b6:	2301      	movne	r3, #1
 80018b8:	0692      	lsls	r2, r2, #26
 80018ba:	d42e      	bmi.n	800191a <_printf_common+0xbe>
 80018bc:	f104 0243 	add.w	r2, r4, #67	@ 0x43
 80018c0:	4641      	mov	r1, r8
 80018c2:	4638      	mov	r0, r7
 80018c4:	47b0      	blx	r6
 80018c6:	3001      	adds	r0, #1
 80018c8:	d021      	beq.n	800190e <_printf_common+0xb2>
 80018ca:	6823      	ldr	r3, [r4, #0]
 80018cc:	68a1      	ldr	r1, [r4, #8]
 80018ce:	6922      	ldr	r2, [r4, #16]
 80018d0:	f003 0306 	and.w	r3, r3, #6
 80018d4:	2b04      	cmp	r3, #4
 80018d6:	bf01      	itttt	eq
 80018d8:	68e5      	ldreq	r5, [r4, #12]
 80018da:	f8d9 3000 	ldreq.w	r3, [r9]
 80018de:	1aed      	subeq	r5, r5, r3
 80018e0:	ea25 75e5 	biceq.w	r5, r5, r5, asr #31
 80018e4:	bf18      	it	ne
 80018e6:	2500      	movne	r5, #0
 80018e8:	1a8b      	subs	r3, r1, r2
 80018ea:	442b      	add	r3, r5
 80018ec:	4291      	cmp	r1, r2
 80018ee:	bfc8      	it	gt
 80018f0:	461d      	movgt	r5, r3
 80018f2:	f04f 0900 	mov.w	r9, #0
 80018f6:	341a      	adds	r4, #26
 80018f8:	454d      	cmp	r5, r9
 80018fa:	d11a      	bne.n	8001932 <_printf_common+0xd6>
 80018fc:	2000      	movs	r0, #0
 80018fe:	e008      	b.n	8001912 <_printf_common+0xb6>
 8001900:	2301      	movs	r3, #1
 8001902:	4652      	mov	r2, sl
 8001904:	4641      	mov	r1, r8
 8001906:	4638      	mov	r0, r7
 8001908:	47b0      	blx	r6
 800190a:	3001      	adds	r0, #1
 800190c:	d103      	bne.n	8001916 <_printf_common+0xba>
 800190e:	f04f 30ff 	mov.w	r0, #4294967295
 8001912:	e8bd 87f0 	ldmia.w	sp!, {r4, r5, r6, r7, r8, r9, sl, pc}
 8001916:	3501      	adds	r5, #1
 8001918:	e7c2      	b.n	80018a0 <_printf_common+0x44>
 800191a:	18e1      	adds	r1, r4, r3
 800191c:	1c5a      	adds	r2, r3, #1
 800191e:	2030      	movs	r0, #48	@ 0x30
 8001920:	f881 0043 	strb.w	r0, [r1, #67]	@ 0x43
 8001924:	4422      	add	r2, r4
 8001926:	f894 1045 	ldrb.w	r1, [r4, #69]	@ 0x45
 800192a:	f882 1043 	strb.w	r1, [r2, #67]	@ 0x43
 800192e:	3302      	adds	r3, #2
 8001930:	e7c4      	b.n	80018bc <_printf_common+0x60>
 8001932:	2301      	movs	r3, #1
 8001934:	4622      	mov	r2, r4
 8001936:	4641      	mov	r1, r8
 8001938:	4638      	mov	r0, r7
 800193a:	47b0      	blx	r6
 800193c:	3001      	adds	r0, #1
 800193e:	d0e6      	beq.n	800190e <_printf_common+0xb2>
 8001940:	f109 0901 	add.w	r9, r9, #1
 8001944:	e7d8      	b.n	80018f8 <_printf_common+0x9c>

Disassembly of section .text._printf_i:

08001948 <_printf_i>:
 8001948:	e92d 43f0 	stmdb	sp!, {r4, r5, r6, r7, r8, r9, lr}
 800194c:	4698      	mov	r8, r3
 800194e:	7e0b      	ldrb	r3, [r1, #24]
 8001950:	b085      	sub	sp, #20
 8001952:	2b78      	cmp	r3, #120	@ 0x78
 8001954:	4617      	mov	r7, r2
 8001956:	4606      	mov	r6, r0
 8001958:	9a0c      	ldr	r2, [sp, #48]	@ 0x30
 800195a:	460c      	mov	r4, r1
 800195c:	d809      	bhi.n	8001972 <_printf_i+0x2a>
 800195e:	2b62      	cmp	r3, #98	@ 0x62
 8001960:	f101 0143 	add.w	r1, r1, #67	@ 0x43
 8001964:	d808      	bhi.n	8001978 <_printf_i+0x30>
 8001966:	2b00      	cmp	r3, #0
 8001968:	f000 80dc 	beq.w	8001b24 <_printf_i+0x1dc>
 800196c:	2b58      	cmp	r3, #88	@ 0x58
 800196e:	f000 80bd 	beq.w	8001aec <_printf_i+0x1a4>
 8001972:	f104 0542 	add.w	r5, r4, #66	@ 0x42
 8001976:	e039      	b.n	80019ec <_printf_i+0xa4>
 8001978:	f1a3 0063 	sub.w	r0, r3, #99	@ 0x63
 800197c:	2815      	cmp	r0, #21
 800197e:	d8f8      	bhi.n	8001972 <_printf_i+0x2a>
 8001980:	a501      	add	r5, pc, #4	@ (adr r5, 8001988 <_printf_i+0x40>)
 8001982:	f855 f020 	ldr.w	pc, [r5, r0, lsl #2]
 8001986:	bf00      	nop
 8001988:	080019e1 			@ <UNDEFINED> instruction: 080019e1
 800198c:	080019f5 			@ <UNDEFINED> instruction: 080019f5
 8001990:	08001973 			@ <UNDEFINED> instruction: 08001973
 8001994:	08001973 			@ <UNDEFINED> instruction: 08001973
 8001998:	08001973 			@ <UNDEFINED> instruction: 08001973
 800199c:	08001973 			@ <UNDEFINED> instruction: 08001973
 80019a0:	080019f5 			@ <UNDEFINED> instruction: 080019f5
 80019a4:	08001973 			@ <UNDEFINED> instruction: 08001973
 80019a8:	08001973 			@ <UNDEFINED> instruction: 08001973
 80019ac:	08001973 			@ <UNDEFINED> instruction: 08001973
 80019b0:	08001973 			@ <UNDEFINED> instruction: 08001973
 80019b4:	08001b05 			@ <UNDEFINED> instruction: 08001b05
 80019b8:	08001a21 			@ <UNDEFINED> instruction: 08001a21
 80019bc:	08001ab3 			@ <UNDEFINED> instruction: 08001ab3
 80019c0:	08001973 			@ <UNDEFINED> instruction: 08001973
 80019c4:	08001973 			@ <UNDEFINED> instruction: 08001973
 80019c8:	08001b2d 			@ <UNDEFINED> instruction: 08001b2d
 80019cc:	08001973 			@ <UNDEFINED> instruction: 08001973
 80019d0:	08001a21 			@ <UNDEFINED> instruction: 08001a21
 80019d4:	08001973 			@ <UNDEFINED> instruction: 08001973
 80019d8:	08001973 			@ <UNDEFINED> instruction: 08001973
 80019dc:	08001abb 			@ <UNDEFINED> instruction: 08001abb
 80019e0:	6813      	ldr	r3, [r2, #0]
 80019e2:	1d19      	adds	r1, r3, #4
 80019e4:	681b      	ldr	r3, [r3, #0]
 80019e6:	6011      	str	r1, [r2, #0]
 80019e8:	f104 0542 	add.w	r5, r4, #66	@ 0x42
 80019ec:	f884 3042 	strb.w	r3, [r4, #66]	@ 0x42
 80019f0:	2301      	movs	r3, #1
 80019f2:	e0a8      	b.n	8001b46 <_printf_i+0x1fe>
 80019f4:	6813      	ldr	r3, [r2, #0]
 80019f6:	6825      	ldr	r5, [r4, #0]
 80019f8:	1d18      	adds	r0, r3, #4
 80019fa:	6010      	str	r0, [r2, #0]
 80019fc:	0628      	lsls	r0, r5, #24
 80019fe:	d501      	bpl.n	8001a04 <_printf_i+0xbc>
 8001a00:	681b      	ldr	r3, [r3, #0]
 8001a02:	e003      	b.n	8001a0c <_printf_i+0xc4>
 8001a04:	066a      	lsls	r2, r5, #25
 8001a06:	d5fb      	bpl.n	8001a00 <_printf_i+0xb8>
 8001a08:	f9b3 3000 	ldrsh.w	r3, [r3]
 8001a0c:	2b00      	cmp	r3, #0
 8001a0e:	da03      	bge.n	8001a18 <_printf_i+0xd0>
 8001a10:	222d      	movs	r2, #45	@ 0x2d
 8001a12:	425b      	negs	r3, r3
 8001a14:	f884 2043 	strb.w	r2, [r4, #67]	@ 0x43
 8001a18:	f8df c178 	ldr.w	ip, [pc, #376]	@ 8001b94 <_printf_i+0x24c>
 8001a1c:	220a      	movs	r2, #10
 8001a1e:	e013      	b.n	8001a48 <_printf_i+0x100>
 8001a20:	6825      	ldr	r5, [r4, #0]
 8001a22:	6810      	ldr	r0, [r2, #0]
 8001a24:	f015 0f80 	tst.w	r5, #128	@ 0x80
 8001a28:	f850 3b04 	ldr.w	r3, [r0], #4
 8001a2c:	d102      	bne.n	8001a34 <_printf_i+0xec>
 8001a2e:	066d      	lsls	r5, r5, #25
 8001a30:	bf48      	it	mi
 8001a32:	b29b      	uxthmi	r3, r3
 8001a34:	6010      	str	r0, [r2, #0]
 8001a36:	7e22      	ldrb	r2, [r4, #24]
 8001a38:	f8df c158 	ldr.w	ip, [pc, #344]	@ 8001b94 <_printf_i+0x24c>
 8001a3c:	2a6f      	cmp	r2, #111	@ 0x6f
 8001a3e:	d15d      	bne.n	8001afc <_printf_i+0x1b4>
 8001a40:	2208      	movs	r2, #8
 8001a42:	2000      	movs	r0, #0
 8001a44:	f884 0043 	strb.w	r0, [r4, #67]	@ 0x43
 8001a48:	6865      	ldr	r5, [r4, #4]
 8001a4a:	60a5      	str	r5, [r4, #8]
 8001a4c:	2d00      	cmp	r5, #0
 8001a4e:	db05      	blt.n	8001a5c <_printf_i+0x114>
 8001a50:	6820      	ldr	r0, [r4, #0]
 8001a52:	431d      	orrs	r5, r3
 8001a54:	f020 0004 	bic.w	r0, r0, #4
 8001a58:	6020      	str	r0, [r4, #0]
 8001a5a:	d051      	beq.n	8001b00 <_printf_i+0x1b8>
 8001a5c:	460d      	mov	r5, r1
 8001a5e:	fbb3 f0f2 	udiv	r0, r3, r2
 8001a62:	fb02 3e10 	mls	lr, r2, r0, r3
 8001a66:	429a      	cmp	r2, r3
 8001a68:	f81c e00e 	ldrb.w	lr, [ip, lr]
 8001a6c:	f805 ed01 	strb.w	lr, [r5, #-1]!
 8001a70:	4603      	mov	r3, r0
 8001a72:	d9f4      	bls.n	8001a5e <_printf_i+0x116>
 8001a74:	2a08      	cmp	r2, #8
 8001a76:	d10b      	bne.n	8001a90 <_printf_i+0x148>
 8001a78:	6823      	ldr	r3, [r4, #0]
 8001a7a:	07da      	lsls	r2, r3, #31
 8001a7c:	d508      	bpl.n	8001a90 <_printf_i+0x148>
 8001a7e:	6923      	ldr	r3, [r4, #16]
 8001a80:	6862      	ldr	r2, [r4, #4]
 8001a82:	429a      	cmp	r2, r3
 8001a84:	bfde      	ittt	le
 8001a86:	2330      	movle	r3, #48	@ 0x30
 8001a88:	f805 3c01 	strble.w	r3, [r5, #-1]
 8001a8c:	f105 35ff 	addle.w	r5, r5, #4294967295
 8001a90:	1b49      	subs	r1, r1, r5
 8001a92:	6121      	str	r1, [r4, #16]
 8001a94:	f8cd 8000 	str.w	r8, [sp]
 8001a98:	463b      	mov	r3, r7
 8001a9a:	aa03      	add	r2, sp, #12
 8001a9c:	4621      	mov	r1, r4
 8001a9e:	4630      	mov	r0, r6
 8001aa0:	f7ff fedc 	bl	800185c <_printf_common>
 8001aa4:	3001      	adds	r0, #1
 8001aa6:	d153      	bne.n	8001b50 <_printf_i+0x208>
 8001aa8:	f04f 30ff 	mov.w	r0, #4294967295
 8001aac:	b005      	add	sp, #20
 8001aae:	e8bd 83f0 	ldmia.w	sp!, {r4, r5, r6, r7, r8, r9, pc}
 8001ab2:	6823      	ldr	r3, [r4, #0]
 8001ab4:	f043 0320 	orr.w	r3, r3, #32
 8001ab8:	6023      	str	r3, [r4, #0]
 8001aba:	f8df c0dc 	ldr.w	ip, [pc, #220]	@ 8001b98 <_printf_i+0x250>
 8001abe:	2378      	movs	r3, #120	@ 0x78
 8001ac0:	f884 3045 	strb.w	r3, [r4, #69]	@ 0x45
 8001ac4:	6820      	ldr	r0, [r4, #0]
 8001ac6:	6815      	ldr	r5, [r2, #0]
 8001ac8:	f010 0f80 	tst.w	r0, #128	@ 0x80
 8001acc:	f855 3b04 	ldr.w	r3, [r5], #4
 8001ad0:	d103      	bne.n	8001ada <_printf_i+0x192>
 8001ad2:	f010 0f40 	tst.w	r0, #64	@ 0x40
 8001ad6:	bf18      	it	ne
 8001ad8:	b29b      	uxthne	r3, r3
 8001ada:	6015      	str	r5, [r2, #0]
 8001adc:	07c5      	lsls	r5, r0, #31
 8001ade:	bf44      	itt	mi
 8001ae0:	f040 0020 	orrmi.w	r0, r0, #32
 8001ae4:	6020      	strmi	r0, [r4, #0]
 8001ae6:	b123      	cbz	r3, 8001af2 <_printf_i+0x1aa>
 8001ae8:	2210      	movs	r2, #16
 8001aea:	e7aa      	b.n	8001a42 <_printf_i+0xfa>
 8001aec:	f8df c0a4 	ldr.w	ip, [pc, #164]	@ 8001b94 <_printf_i+0x24c>
 8001af0:	e7e6      	b.n	8001ac0 <_printf_i+0x178>
 8001af2:	6822      	ldr	r2, [r4, #0]
 8001af4:	f022 0220 	bic.w	r2, r2, #32
 8001af8:	6022      	str	r2, [r4, #0]
 8001afa:	e7f5      	b.n	8001ae8 <_printf_i+0x1a0>
 8001afc:	220a      	movs	r2, #10
 8001afe:	e7a0      	b.n	8001a42 <_printf_i+0xfa>
 8001b00:	460d      	mov	r5, r1
 8001b02:	e7b7      	b.n	8001a74 <_printf_i+0x12c>
 8001b04:	6813      	ldr	r3, [r2, #0]
 8001b06:	f8d4 c000 	ldr.w	ip, [r4]
 8001b0a:	6960      	ldr	r0, [r4, #20]
 8001b0c:	1d1d      	adds	r5, r3, #4
 8001b0e:	6015      	str	r5, [r2, #0]
 8001b10:	f01c 0f80 	tst.w	ip, #128	@ 0x80
 8001b14:	681b      	ldr	r3, [r3, #0]
 8001b16:	d001      	beq.n	8001b1c <_printf_i+0x1d4>
 8001b18:	6018      	str	r0, [r3, #0]
 8001b1a:	e003      	b.n	8001b24 <_printf_i+0x1dc>
 8001b1c:	f01c 0f40 	tst.w	ip, #64	@ 0x40
 8001b20:	d0fa      	beq.n	8001b18 <_printf_i+0x1d0>
 8001b22:	8018      	strh	r0, [r3, #0]
 8001b24:	2300      	movs	r3, #0
 8001b26:	6123      	str	r3, [r4, #16]
 8001b28:	460d      	mov	r5, r1
 8001b2a:	e7b3      	b.n	8001a94 <_printf_i+0x14c>
 8001b2c:	6813      	ldr	r3, [r2, #0]
 8001b2e:	1d19      	adds	r1, r3, #4
 8001b30:	6011      	str	r1, [r2, #0]
 8001b32:	681d      	ldr	r5, [r3, #0]
 8001b34:	6862      	ldr	r2, [r4, #4]
 8001b36:	2100      	movs	r1, #0
 8001b38:	4628      	mov	r0, r5
 8001b3a:	f7fe fdb1 	bl	80006a0 <memchr>
 8001b3e:	b108      	cbz	r0, 8001b44 <_printf_i+0x1fc>
 8001b40:	1b40      	subs	r0, r0, r5
 8001b42:	6060      	str	r0, [r4, #4]
 8001b44:	6863      	ldr	r3, [r4, #4]
 8001b46:	6123      	str	r3, [r4, #16]
 8001b48:	2300      	movs	r3, #0
 8001b4a:	f884 3043 	strb.w	r3, [r4, #67]	@ 0x43
 8001b4e:	e7a1      	b.n	8001a94 <_printf_i+0x14c>
 8001b50:	6923      	ldr	r3, [r4, #16]
 8001b52:	462a      	mov	r2, r5
 8001b54:	4639      	mov	r1, r7
 8001b56:	4630      	mov	r0, r6
 8001b58:	47c0      	blx	r8
 8001b5a:	3001      	adds	r0, #1
 8001b5c:	d0a4      	beq.n	8001aa8 <_printf_i+0x160>
 8001b5e:	6823      	ldr	r3, [r4, #0]
 8001b60:	079b      	lsls	r3, r3, #30
 8001b62:	d414      	bmi.n	8001b8e <_printf_i+0x246>
 8001b64:	68e0      	ldr	r0, [r4, #12]
 8001b66:	9b03      	ldr	r3, [sp, #12]
 8001b68:	4298      	cmp	r0, r3
 8001b6a:	bfb8      	it	lt
 8001b6c:	4618      	movlt	r0, r3
 8001b6e:	e79d      	b.n	8001aac <_printf_i+0x164>
 8001b70:	2301      	movs	r3, #1
 8001b72:	f104 0219 	add.w	r2, r4, #25
 8001b76:	4639      	mov	r1, r7
 8001b78:	4630      	mov	r0, r6
 8001b7a:	47c0      	blx	r8
 8001b7c:	3001      	adds	r0, #1
 8001b7e:	d093      	beq.n	8001aa8 <_printf_i+0x160>
 8001b80:	3501      	adds	r5, #1
 8001b82:	68e3      	ldr	r3, [r4, #12]
 8001b84:	9903      	ldr	r1, [sp, #12]
 8001b86:	1a5b      	subs	r3, r3, r1
 8001b88:	42ab      	cmp	r3, r5
 8001b8a:	dcf1      	bgt.n	8001b70 <_printf_i+0x228>
 8001b8c:	e7ea      	b.n	8001b64 <_printf_i+0x21c>
 8001b8e:	2500      	movs	r5, #0
 8001b90:	e7f7      	b.n	8001b82 <_printf_i+0x23a>
 8001b92:	bf00      	nop
 8001b94:	08004b8c 			@ <UNDEFINED> instruction: 08004b8c
 8001b98:	08004b9d 			@ <UNDEFINED> instruction: 08004b9d

Disassembly of section .text._printf_r:

08001b9c <_iprintf_r>:
 8001b9c:	b40e      	push	{r1, r2, r3}
 8001b9e:	b503      	push	{r0, r1, lr}
 8001ba0:	ab03      	add	r3, sp, #12
 8001ba2:	6881      	ldr	r1, [r0, #8]
 8001ba4:	f853 2b04 	ldr.w	r2, [r3], #4
 8001ba8:	9301      	str	r3, [sp, #4]
 8001baa:	f001 ff59 	bl	8003a60 <_vfiprintf_r>
 8001bae:	b002      	add	sp, #8
 8001bb0:	f85d eb04 	ldr.w	lr, [sp], #4
 8001bb4:	b003      	add	sp, #12
 8001bb6:	4770      	bx	lr

Disassembly of section .text.printf:

08001bb8 <iprintf>:
 8001bb8:	b40f      	push	{r0, r1, r2, r3}
 8001bba:	b507      	push	{r0, r1, r2, lr}
 8001bbc:	4906      	ldr	r1, [pc, #24]	@ (8001bd8 <iprintf+0x20>)
 8001bbe:	ab04      	add	r3, sp, #16
 8001bc0:	6808      	ldr	r0, [r1, #0]
 8001bc2:	f853 2b04 	ldr.w	r2, [r3], #4
 8001bc6:	6881      	ldr	r1, [r0, #8]
 8001bc8:	9301      	str	r3, [sp, #4]
 8001bca:	f001 ff49 	bl	8003a60 <_vfiprintf_r>
 8001bce:	b003      	add	sp, #12
 8001bd0:	f85d eb04 	ldr.w	lr, [sp], #4
 8001bd4:	b004      	add	sp, #16
 8001bd6:	4770      	bx	lr
 8001bd8:	20000004 			@ <UNDEFINED> instruction: 20000004

Disassembly of section .text.setvbuf:

08001bdc <setvbuf>:
 8001bdc:	e92d 43f7 	stmdb	sp!, {r0, r1, r2, r4, r5, r6, r7, r8, r9, lr}
 8001be0:	461d      	mov	r5, r3
 8001be2:	4b57      	ldr	r3, [pc, #348]	@ (8001d40 <setvbuf+0x164>)
 8001be4:	681f      	ldr	r7, [r3, #0]
 8001be6:	4604      	mov	r4, r0
 8001be8:	460e      	mov	r6, r1
 8001bea:	4690      	mov	r8, r2
 8001bec:	b127      	cbz	r7, 8001bf8 <setvbuf+0x1c>
 8001bee:	6a3b      	ldr	r3, [r7, #32]
 8001bf0:	b913      	cbnz	r3, 8001bf8 <setvbuf+0x1c>
 8001bf2:	4638      	mov	r0, r7
 8001bf4:	f002 fa06 	bl	8004004 <__sinit>
 8001bf8:	f1b8 0f02 	cmp.w	r8, #2
 8001bfc:	d006      	beq.n	8001c0c <setvbuf+0x30>
 8001bfe:	f1b8 0f01 	cmp.w	r8, #1
 8001c02:	f200 809a 	bhi.w	8001d3a <setvbuf+0x15e>
 8001c06:	2d00      	cmp	r5, #0
 8001c08:	f2c0 8097 	blt.w	8001d3a <setvbuf+0x15e>
 8001c0c:	6e63      	ldr	r3, [r4, #100]	@ 0x64
 8001c0e:	07d9      	lsls	r1, r3, #31
 8001c10:	d405      	bmi.n	8001c1e <setvbuf+0x42>
 8001c12:	89a3      	ldrh	r3, [r4, #12]
 8001c14:	059a      	lsls	r2, r3, #22
 8001c16:	d402      	bmi.n	8001c1e <setvbuf+0x42>
 8001c18:	6da0      	ldr	r0, [r4, #88]	@ 0x58
 8001c1a:	f000 f8c8 	bl	8001dae <__retarget_lock_acquire_recursive>
 8001c1e:	4621      	mov	r1, r4
 8001c20:	4638      	mov	r0, r7
 8001c22:	f002 f8bb 	bl	8003d9c <_fflush_r>
 8001c26:	6b61      	ldr	r1, [r4, #52]	@ 0x34
 8001c28:	b141      	cbz	r1, 8001c3c <setvbuf+0x60>
 8001c2a:	f104 0344 	add.w	r3, r4, #68	@ 0x44
 8001c2e:	4299      	cmp	r1, r3
 8001c30:	d002      	beq.n	8001c38 <setvbuf+0x5c>
 8001c32:	4638      	mov	r0, r7
 8001c34:	f000 ff22 	bl	8002a7c <_free_r>
 8001c38:	2300      	movs	r3, #0
 8001c3a:	6363      	str	r3, [r4, #52]	@ 0x34
 8001c3c:	2300      	movs	r3, #0
 8001c3e:	61a3      	str	r3, [r4, #24]
 8001c40:	6063      	str	r3, [r4, #4]
 8001c42:	89a3      	ldrh	r3, [r4, #12]
 8001c44:	061b      	lsls	r3, r3, #24
 8001c46:	d503      	bpl.n	8001c50 <setvbuf+0x74>
 8001c48:	6921      	ldr	r1, [r4, #16]
 8001c4a:	4638      	mov	r0, r7
 8001c4c:	f000 ff16 	bl	8002a7c <_free_r>
 8001c50:	89a3      	ldrh	r3, [r4, #12]
 8001c52:	f423 634a 	bic.w	r3, r3, #3232	@ 0xca0
 8001c56:	f023 0303 	bic.w	r3, r3, #3
 8001c5a:	f1b8 0f02 	cmp.w	r8, #2
 8001c5e:	81a3      	strh	r3, [r4, #12]
 8001c60:	d061      	beq.n	8001d26 <setvbuf+0x14a>
 8001c62:	ab01      	add	r3, sp, #4
 8001c64:	466a      	mov	r2, sp
 8001c66:	4621      	mov	r1, r4
 8001c68:	4638      	mov	r0, r7
 8001c6a:	f002 fb6c 	bl	8004346 <__swhatbuf_r>
 8001c6e:	89a3      	ldrh	r3, [r4, #12]
 8001c70:	4318      	orrs	r0, r3
 8001c72:	81a0      	strh	r0, [r4, #12]
 8001c74:	bb2d      	cbnz	r5, 8001cc2 <setvbuf+0xe6>
 8001c76:	9d00      	ldr	r5, [sp, #0]
 8001c78:	4628      	mov	r0, r5
 8001c7a:	f000 ff4b 	bl	8002b14 <malloc>
 8001c7e:	4606      	mov	r6, r0
 8001c80:	2800      	cmp	r0, #0
 8001c82:	d152      	bne.n	8001d2a <setvbuf+0x14e>
 8001c84:	f8dd 9000 	ldr.w	r9, [sp]
 8001c88:	45a9      	cmp	r9, r5
 8001c8a:	d140      	bne.n	8001d0e <setvbuf+0x132>
 8001c8c:	f04f 35ff 	mov.w	r5, #4294967295
 8001c90:	f9b4 300c 	ldrsh.w	r3, [r4, #12]
 8001c94:	f043 0202 	orr.w	r2, r3, #2
 8001c98:	81a2      	strh	r2, [r4, #12]
 8001c9a:	2200      	movs	r2, #0
 8001c9c:	60a2      	str	r2, [r4, #8]
 8001c9e:	f104 0247 	add.w	r2, r4, #71	@ 0x47
 8001ca2:	6022      	str	r2, [r4, #0]
 8001ca4:	6122      	str	r2, [r4, #16]
 8001ca6:	2201      	movs	r2, #1
 8001ca8:	6162      	str	r2, [r4, #20]
 8001caa:	6e62      	ldr	r2, [r4, #100]	@ 0x64
 8001cac:	07d6      	lsls	r6, r2, #31
 8001cae:	d404      	bmi.n	8001cba <setvbuf+0xde>
 8001cb0:	0598      	lsls	r0, r3, #22
 8001cb2:	d402      	bmi.n	8001cba <setvbuf+0xde>
 8001cb4:	6da0      	ldr	r0, [r4, #88]	@ 0x58
 8001cb6:	f000 f880 	bl	8001dba <__retarget_lock_release_recursive>
 8001cba:	4628      	mov	r0, r5
 8001cbc:	b003      	add	sp, #12
 8001cbe:	e8bd 83f0 	ldmia.w	sp!, {r4, r5, r6, r7, r8, r9, pc}
 8001cc2:	2e00      	cmp	r6, #0
 8001cc4:	d0d8      	beq.n	8001c78 <setvbuf+0x9c>
 8001cc6:	6a3b      	ldr	r3, [r7, #32]
 8001cc8:	b913      	cbnz	r3, 8001cd0 <setvbuf+0xf4>
 8001cca:	4638      	mov	r0, r7
 8001ccc:	f002 f99a 	bl	8004004 <__sinit>
 8001cd0:	f1b8 0f01 	cmp.w	r8, #1
 8001cd4:	bf08      	it	eq
 8001cd6:	89a3      	ldrheq	r3, [r4, #12]
 8001cd8:	6026      	str	r6, [r4, #0]
 8001cda:	bf04      	itt	eq
 8001cdc:	f043 0301 	orreq.w	r3, r3, #1
 8001ce0:	81a3      	strheq	r3, [r4, #12]
 8001ce2:	f9b4 300c 	ldrsh.w	r3, [r4, #12]
 8001ce6:	f013 0208 	ands.w	r2, r3, #8
 8001cea:	e9c4 6504 	strd	r6, r5, [r4, #16]
 8001cee:	d01e      	beq.n	8001d2e <setvbuf+0x152>
 8001cf0:	07d9      	lsls	r1, r3, #31
 8001cf2:	bf41      	itttt	mi
 8001cf4:	2200      	movmi	r2, #0
 8001cf6:	426d      	negmi	r5, r5
 8001cf8:	60a2      	strmi	r2, [r4, #8]
 8001cfa:	61a5      	strmi	r5, [r4, #24]
 8001cfc:	bf58      	it	pl
 8001cfe:	60a5      	strpl	r5, [r4, #8]
 8001d00:	6e62      	ldr	r2, [r4, #100]	@ 0x64
 8001d02:	07d2      	lsls	r2, r2, #31
 8001d04:	d401      	bmi.n	8001d0a <setvbuf+0x12e>
 8001d06:	059b      	lsls	r3, r3, #22
 8001d08:	d513      	bpl.n	8001d32 <setvbuf+0x156>
 8001d0a:	2500      	movs	r5, #0
 8001d0c:	e7d5      	b.n	8001cba <setvbuf+0xde>
 8001d0e:	4648      	mov	r0, r9
 8001d10:	f000 ff00 	bl	8002b14 <malloc>
 8001d14:	4606      	mov	r6, r0
 8001d16:	2800      	cmp	r0, #0
 8001d18:	d0b8      	beq.n	8001c8c <setvbuf+0xb0>
 8001d1a:	89a3      	ldrh	r3, [r4, #12]
 8001d1c:	f043 0380 	orr.w	r3, r3, #128	@ 0x80
 8001d20:	81a3      	strh	r3, [r4, #12]
 8001d22:	464d      	mov	r5, r9
 8001d24:	e7cf      	b.n	8001cc6 <setvbuf+0xea>
 8001d26:	2500      	movs	r5, #0
 8001d28:	e7b2      	b.n	8001c90 <setvbuf+0xb4>
 8001d2a:	46a9      	mov	r9, r5
 8001d2c:	e7f5      	b.n	8001d1a <setvbuf+0x13e>
 8001d2e:	60a2      	str	r2, [r4, #8]
 8001d30:	e7e6      	b.n	8001d00 <setvbuf+0x124>
 8001d32:	6da0      	ldr	r0, [r4, #88]	@ 0x58
 8001d34:	f000 f841 	bl	8001dba <__retarget_lock_release_recursive>
 8001d38:	e7e7      	b.n	8001d0a <setvbuf+0x12e>
 8001d3a:	f04f 35ff 	mov.w	r5, #4294967295
 8001d3e:	e7bc      	b.n	8001cba <setvbuf+0xde>
 8001d40:	20000004 			@ <UNDEFINED> instruction: 20000004

Disassembly of section .text._vsprintf_r:

08001d44 <_vsiprintf_r>:
 8001d44:	b510      	push	{r4, lr}
 8001d46:	b09a      	sub	sp, #104	@ 0x68
 8001d48:	2400      	movs	r4, #0
 8001d4a:	9100      	str	r1, [sp, #0]
 8001d4c:	9104      	str	r1, [sp, #16]
 8001d4e:	f06f 4100 	mvn.w	r1, #2147483648	@ 0x80000000
 8001d52:	9105      	str	r1, [sp, #20]
 8001d54:	9102      	str	r1, [sp, #8]
 8001d56:	4905      	ldr	r1, [pc, #20]	@ (8001d6c <_vsiprintf_r+0x28>)
 8001d58:	9103      	str	r1, [sp, #12]
 8001d5a:	4669      	mov	r1, sp
 8001d5c:	9419      	str	r4, [sp, #100]	@ 0x64
 8001d5e:	f001 fd53 	bl	8003808 <_svfiprintf_r>
 8001d62:	9b00      	ldr	r3, [sp, #0]
 8001d64:	701c      	strb	r4, [r3, #0]
 8001d66:	b01a      	add	sp, #104	@ 0x68
 8001d68:	bd10      	pop	{r4, pc}
 8001d6a:	bf00      	nop
 8001d6c:	ffff0208 			@ <UNDEFINED> instruction: ffff0208

Disassembly of section .text.vsprintf:

08001d70 <vsiprintf>:
 8001d70:	4613      	mov	r3, r2
 8001d72:	460a      	mov	r2, r1
 8001d74:	4601      	mov	r1, r0
 8001d76:	4802      	ldr	r0, [pc, #8]	@ (8001d80 <vsiprintf+0x10>)
 8001d78:	6800      	ldr	r0, [r0, #0]
 8001d7a:	f7ff bfe3 	b.w	8001d44 <_vsiprintf_r>
 8001d7e:	bf00      	nop
 8001d80:	20000004 			@ <UNDEFINED> instruction: 20000004

Disassembly of section .text.__localeconv_l:

08001d84 <__localeconv_l>:
 8001d84:	30f0      	adds	r0, #240	@ 0xf0
 8001d86:	4770      	bx	lr

Disassembly of section .text._localeconv_r:

08001d88 <_localeconv_r>:
 8001d88:	4800      	ldr	r0, [pc, #0]	@ (8001d8c <_localeconv_r+0x4>)
 8001d8a:	4770      	bx	lr
 8001d8c:	20000150 			@ <UNDEFINED> instruction: 20000150

Disassembly of section .text.localeconv:

08001d90 <localeconv>:
 8001d90:	4800      	ldr	r0, [pc, #0]	@ (8001d94 <localeconv+0x4>)
 8001d92:	4770      	bx	lr
 8001d94:	20000150 			@ <UNDEFINED> instruction: 20000150

Disassembly of section .text.__errno:

08001d98 <__errno>:
 8001d98:	4b01      	ldr	r3, [pc, #4]	@ (8001da0 <__errno+0x8>)
 8001d9a:	6818      	ldr	r0, [r3, #0]
 8001d9c:	4770      	bx	lr
 8001d9e:	bf00      	nop
 8001da0:	20000004 			@ <UNDEFINED> instruction: 20000004

Disassembly of section .text.__retarget_lock_init:

08001da4 <__retarget_lock_init>:
 8001da4:	4770      	bx	lr

Disassembly of section .text.__retarget_lock_init_recursive:

08001da6 <__retarget_lock_init_recursive>:
 8001da6:	4770      	bx	lr

Disassembly of section .text.__retarget_lock_close:

08001da8 <__retarget_lock_close>:
 8001da8:	4770      	bx	lr

Disassembly of section .text.__retarget_lock_close_recursive:

08001daa <__retarget_lock_close_recursive>:
 8001daa:	4770      	bx	lr

Disassembly of section .text.__retarget_lock_acquire:

08001dac <__retarget_lock_acquire>:
 8001dac:	4770      	bx	lr

Disassembly of section .text.__retarget_lock_acquire_recursive:

08001dae <__retarget_lock_acquire_recursive>:
 8001dae:	4770      	bx	lr

Disassembly of section .text.__retarget_lock_try_acquire:

08001db0 <__retarget_lock_try_acquire>:
 8001db0:	2001      	movs	r0, #1
 8001db2:	4770      	bx	lr

Disassembly of section .text.__retarget_lock_try_acquire_recursive:

08001db4 <__retarget_lock_try_acquire_recursive>:
 8001db4:	2001      	movs	r0, #1
 8001db6:	4770      	bx	lr

Disassembly of section .text.__retarget_lock_release:

08001db8 <__retarget_lock_release>:
 8001db8:	4770      	bx	lr

Disassembly of section .text.__retarget_lock_release_recursive:

08001dba <__retarget_lock_release_recursive>:
 8001dba:	4770      	bx	lr

Disassembly of section .text.quorem:

08001dbc <quorem>:
 8001dbc:	e92d 4ff7 	stmdb	sp!, {r0, r1, r2, r4, r5, r6, r7, r8, r9, sl, fp, lr}
 8001dc0:	6903      	ldr	r3, [r0, #16]
 8001dc2:	690c      	ldr	r4, [r1, #16]
 8001dc4:	42a3      	cmp	r3, r4
 8001dc6:	4680      	mov	r8, r0
 8001dc8:	db7e      	blt.n	8001ec8 <quorem+0x10c>
 8001dca:	3c01      	subs	r4, #1
 8001dcc:	f101 0714 	add.w	r7, r1, #20
 8001dd0:	00a3      	lsls	r3, r4, #2
 8001dd2:	f100 0514 	add.w	r5, r0, #20
 8001dd6:	9300      	str	r3, [sp, #0]
 8001dd8:	eb05 0384 	add.w	r3, r5, r4, lsl #2
 8001ddc:	9301      	str	r3, [sp, #4]
 8001dde:	f857 3024 	ldr.w	r3, [r7, r4, lsl #2]
 8001de2:	f855 2024 	ldr.w	r2, [r5, r4, lsl #2]
 8001de6:	3301      	adds	r3, #1
 8001de8:	429a      	cmp	r2, r3
 8001dea:	eb07 0984 	add.w	r9, r7, r4, lsl #2
 8001dee:	fbb2 f6f3 	udiv	r6, r2, r3
 8001df2:	d32e      	bcc.n	8001e52 <quorem+0x96>
 8001df4:	f04f 0a00 	mov.w	sl, #0
 8001df8:	46bc      	mov	ip, r7
 8001dfa:	46ae      	mov	lr, r5
 8001dfc:	46d3      	mov	fp, sl
 8001dfe:	f85c 3b04 	ldr.w	r3, [ip], #4
 8001e02:	b298      	uxth	r0, r3
 8001e04:	fb06 a000 	mla	r0, r6, r0, sl
 8001e08:	0c02      	lsrs	r2, r0, #16
 8001e0a:	0c1b      	lsrs	r3, r3, #16
 8001e0c:	fb06 2303 	mla	r3, r6, r3, r2
 8001e10:	f8de 2000 	ldr.w	r2, [lr]
 8001e14:	b280      	uxth	r0, r0
 8001e16:	b292      	uxth	r2, r2
 8001e18:	1a12      	subs	r2, r2, r0
 8001e1a:	445a      	add	r2, fp
 8001e1c:	f8de 0000 	ldr.w	r0, [lr]
 8001e20:	ea4f 4a13 	mov.w	sl, r3, lsr #16
 8001e24:	b29b      	uxth	r3, r3
 8001e26:	ebc3 4322 	rsb	r3, r3, r2, asr #16
 8001e2a:	eb03 4310 	add.w	r3, r3, r0, lsr #16
 8001e2e:	b292      	uxth	r2, r2
 8001e30:	ea42 4203 	orr.w	r2, r2, r3, lsl #16
 8001e34:	45e1      	cmp	r9, ip
 8001e36:	f84e 2b04 	str.w	r2, [lr], #4
 8001e3a:	ea4f 4b23 	mov.w	fp, r3, asr #16
 8001e3e:	d2de      	bcs.n	8001dfe <quorem+0x42>
 8001e40:	9b00      	ldr	r3, [sp, #0]
 8001e42:	58eb      	ldr	r3, [r5, r3]
 8001e44:	b92b      	cbnz	r3, 8001e52 <quorem+0x96>
 8001e46:	9b01      	ldr	r3, [sp, #4]
 8001e48:	1f1a      	subs	r2, r3, #4
 8001e4a:	4295      	cmp	r5, r2
 8001e4c:	d330      	bcc.n	8001eb0 <quorem+0xf4>
 8001e4e:	f8c8 4010 	str.w	r4, [r8, #16]
 8001e52:	4640      	mov	r0, r8
 8001e54:	f001 f9ee 	bl	8003234 <__mcmp>
 8001e58:	2800      	cmp	r0, #0
 8001e5a:	db25      	blt.n	8001ea8 <quorem+0xec>
 8001e5c:	3601      	adds	r6, #1
 8001e5e:	4629      	mov	r1, r5
 8001e60:	2000      	movs	r0, #0
 8001e62:	f857 2b04 	ldr.w	r2, [r7], #4
 8001e66:	f8d1 c000 	ldr.w	ip, [r1]
 8001e6a:	fa1f fe82 	uxth.w	lr, r2
 8001e6e:	fa1f f38c 	uxth.w	r3, ip
 8001e72:	eba3 030e 	sub.w	r3, r3, lr
 8001e76:	4403      	add	r3, r0
 8001e78:	0c12      	lsrs	r2, r2, #16
 8001e7a:	ebc2 4223 	rsb	r2, r2, r3, asr #16
 8001e7e:	eb02 421c 	add.w	r2, r2, ip, lsr #16
 8001e82:	b29b      	uxth	r3, r3
 8001e84:	ea43 4302 	orr.w	r3, r3, r2, lsl #16
 8001e88:	45b9      	cmp	r9, r7
 8001e8a:	f841 3b04 	str.w	r3, [r1], #4
 8001e8e:	ea4f 4022 	mov.w	r0, r2, asr #16
 8001e92:	d2e6      	bcs.n	8001e62 <quorem+0xa6>
 8001e94:	f855 2024 	ldr.w	r2, [r5, r4, lsl #2]
 8001e98:	eb05 0384 	add.w	r3, r5, r4, lsl #2
 8001e9c:	b922      	cbnz	r2, 8001ea8 <quorem+0xec>
 8001e9e:	3b04      	subs	r3, #4
 8001ea0:	429d      	cmp	r5, r3
 8001ea2:	d30b      	bcc.n	8001ebc <quorem+0x100>
 8001ea4:	f8c8 4010 	str.w	r4, [r8, #16]
 8001ea8:	4630      	mov	r0, r6
 8001eaa:	b003      	add	sp, #12
 8001eac:	e8bd 8ff0 	ldmia.w	sp!, {r4, r5, r6, r7, r8, r9, sl, fp, pc}
 8001eb0:	6813      	ldr	r3, [r2, #0]
 8001eb2:	2b00      	cmp	r3, #0
 8001eb4:	d1cb      	bne.n	8001e4e <quorem+0x92>
 8001eb6:	3a04      	subs	r2, #4
 8001eb8:	3c01      	subs	r4, #1
 8001eba:	e7c6      	b.n	8001e4a <quorem+0x8e>
 8001ebc:	681a      	ldr	r2, [r3, #0]
 8001ebe:	2a00      	cmp	r2, #0
 8001ec0:	d1f0      	bne.n	8001ea4 <quorem+0xe8>
 8001ec2:	3b04      	subs	r3, #4
 8001ec4:	3c01      	subs	r4, #1
 8001ec6:	e7eb      	b.n	8001ea0 <quorem+0xe4>
 8001ec8:	2000      	movs	r0, #0
 8001eca:	e7ee      	b.n	8001eaa <quorem+0xee>

Disassembly of section .text._dtoa_r:

08001ed0 <_dtoa_r>:
 8001ed0:	e92d 4ff0 	stmdb	sp!, {r4, r5, r6, r7, r8, r9, sl, fp, lr}
 8001ed4:	b099      	sub	sp, #100	@ 0x64
 8001ed6:	ed8d 0b0e 	vstr	d0, [sp, #56]	@ 0x38
 8001eda:	920c      	str	r2, [sp, #48]	@ 0x30
 8001edc:	69c2      	ldr	r2, [r0, #28]
 8001ede:	9c22      	ldr	r4, [sp, #136]	@ 0x88
 8001ee0:	910a      	str	r1, [sp, #40]	@ 0x28
 8001ee2:	ec57 6b10 	vmov	r6, r7, d0
 8001ee6:	4681      	mov	r9, r0
 8001ee8:	9313      	str	r3, [sp, #76]	@ 0x4c
 8001eea:	b982      	cbnz	r2, 8001f0e <_dtoa_r+0x3e>
 8001eec:	2010      	movs	r0, #16
 8001eee:	f000 fe11 	bl	8002b14 <malloc>
 8001ef2:	4602      	mov	r2, r0
 8001ef4:	f8c9 001c 	str.w	r0, [r9, #28]
 8001ef8:	b920      	cbnz	r0, 8001f04 <_dtoa_r+0x34>
 8001efa:	4ba9      	ldr	r3, [pc, #676]	@ (80021a0 <_dtoa_r+0x2d0>)
 8001efc:	21ef      	movs	r1, #239	@ 0xef
 8001efe:	48a9      	ldr	r0, [pc, #676]	@ (80021a4 <_dtoa_r+0x2d4>)
 8001f00:	f002 fc90 	bl	8004824 <__assert_func>
 8001f04:	2300      	movs	r3, #0
 8001f06:	e9c0 3301 	strd	r3, r3, [r0, #4]
 8001f0a:	6003      	str	r3, [r0, #0]
 8001f0c:	60c3      	str	r3, [r0, #12]
 8001f0e:	6811      	ldr	r1, [r2, #0]
 8001f10:	b159      	cbz	r1, 8001f2a <_dtoa_r+0x5a>
 8001f12:	6852      	ldr	r2, [r2, #4]
 8001f14:	604a      	str	r2, [r1, #4]
 8001f16:	2301      	movs	r3, #1
 8001f18:	4093      	lsls	r3, r2
 8001f1a:	608b      	str	r3, [r1, #8]
 8001f1c:	4648      	mov	r0, r9
 8001f1e:	f000 fef1 	bl	8002d04 <_Bfree>
 8001f22:	f8d9 301c 	ldr.w	r3, [r9, #28]
 8001f26:	2200      	movs	r2, #0
 8001f28:	601a      	str	r2, [r3, #0]
 8001f2a:	f1b7 0800 	subs.w	r8, r7, #0
 8001f2e:	bfb5      	itete	lt
 8001f30:	2301      	movlt	r3, #1
 8001f32:	2300      	movge	r3, #0
 8001f34:	6023      	strlt	r3, [r4, #0]
 8001f36:	6023      	strge	r3, [r4, #0]
 8001f38:	4b9b      	ldr	r3, [pc, #620]	@ (80021a8 <_dtoa_r+0x2d8>)
 8001f3a:	bfbc      	itt	lt
 8001f3c:	f028 4800 	biclt.w	r8, r8, #2147483648	@ 0x80000000
 8001f40:	f8cd 803c 	strlt.w	r8, [sp, #60]	@ 0x3c
 8001f44:	ea33 0308 	bics.w	r3, r3, r8
 8001f48:	d11a      	bne.n	8001f80 <_dtoa_r+0xb0>
 8001f4a:	9a13      	ldr	r2, [sp, #76]	@ 0x4c
 8001f4c:	f3c8 0813 	ubfx	r8, r8, #0, #20
 8001f50:	f242 730f 	movw	r3, #9999	@ 0x270f
 8001f54:	ea58 0806 	orrs.w	r8, r8, r6
 8001f58:	6013      	str	r3, [r2, #0]
 8001f5a:	f000 8561 	beq.w	8002a20 <_dtoa_r+0xb50>
 8001f5e:	9b23      	ldr	r3, [sp, #140]	@ 0x8c
 8001f60:	b953      	cbnz	r3, 8001f78 <_dtoa_r+0xa8>
 8001f62:	4b92      	ldr	r3, [pc, #584]	@ (80021ac <_dtoa_r+0x2dc>)
 8001f64:	e021      	b.n	8001faa <_dtoa_r+0xda>
 8001f66:	4b92      	ldr	r3, [pc, #584]	@ (80021b0 <_dtoa_r+0x2e0>)
 8001f68:	9300      	str	r3, [sp, #0]
 8001f6a:	3308      	adds	r3, #8
 8001f6c:	9a23      	ldr	r2, [sp, #140]	@ 0x8c
 8001f6e:	6013      	str	r3, [r2, #0]
 8001f70:	9800      	ldr	r0, [sp, #0]
 8001f72:	b019      	add	sp, #100	@ 0x64
 8001f74:	e8bd 8ff0 	ldmia.w	sp!, {r4, r5, r6, r7, r8, r9, sl, fp, pc}
 8001f78:	4b8c      	ldr	r3, [pc, #560]	@ (80021ac <_dtoa_r+0x2dc>)
 8001f7a:	9300      	str	r3, [sp, #0]
 8001f7c:	3303      	adds	r3, #3
 8001f7e:	e7f5      	b.n	8001f6c <_dtoa_r+0x9c>
 8001f80:	ed9d 7b0e 	vldr	d7, [sp, #56]	@ 0x38
 8001f84:	2200      	movs	r2, #0
 8001f86:	ec51 0b17 	vmov	r0, r1, d7
 8001f8a:	2300      	movs	r3, #0
 8001f8c:	ed8d 7b06 	vstr	d7, [sp, #24]
 8001f90:	f7ff f936 	bl	8001200 <__aeabi_dcmpeq>
 8001f94:	4682      	mov	sl, r0
 8001f96:	b150      	cbz	r0, 8001fae <_dtoa_r+0xde>
 8001f98:	9a13      	ldr	r2, [sp, #76]	@ 0x4c
 8001f9a:	2301      	movs	r3, #1
 8001f9c:	6013      	str	r3, [r2, #0]
 8001f9e:	9b23      	ldr	r3, [sp, #140]	@ 0x8c
 8001fa0:	b113      	cbz	r3, 8001fa8 <_dtoa_r+0xd8>
 8001fa2:	9a23      	ldr	r2, [sp, #140]	@ 0x8c
 8001fa4:	4b83      	ldr	r3, [pc, #524]	@ (80021b4 <_dtoa_r+0x2e4>)
 8001fa6:	6013      	str	r3, [r2, #0]
 8001fa8:	4b83      	ldr	r3, [pc, #524]	@ (80021b8 <_dtoa_r+0x2e8>)
 8001faa:	9300      	str	r3, [sp, #0]
 8001fac:	e7e0      	b.n	8001f70 <_dtoa_r+0xa0>
 8001fae:	ed9d 0b06 	vldr	d0, [sp, #24]
 8001fb2:	aa16      	add	r2, sp, #88	@ 0x58
 8001fb4:	a917      	add	r1, sp, #92	@ 0x5c
 8001fb6:	4648      	mov	r0, r9
 8001fb8:	f001 fa60 	bl	800347c <__d2b>
 8001fbc:	ea5f 5418 	movs.w	r4, r8, lsr #20
 8001fc0:	9d16      	ldr	r5, [sp, #88]	@ 0x58
 8001fc2:	9001      	str	r0, [sp, #4]
 8001fc4:	d079      	beq.n	80020ba <_dtoa_r+0x1ea>
 8001fc6:	9b07      	ldr	r3, [sp, #28]
 8001fc8:	f8cd a050 	str.w	sl, [sp, #80]	@ 0x50
 8001fcc:	f3c3 0313 	ubfx	r3, r3, #0, #20
 8001fd0:	e9dd 0106 	ldrd	r0, r1, [sp, #24]
 8001fd4:	f043 537f 	orr.w	r3, r3, #1069547520	@ 0x3fc00000
 8001fd8:	f443 1340 	orr.w	r3, r3, #3145728	@ 0x300000
 8001fdc:	f2a4 34ff 	subw	r4, r4, #1023	@ 0x3ff
 8001fe0:	4619      	mov	r1, r3
 8001fe2:	2200      	movs	r2, #0
 8001fe4:	4b75      	ldr	r3, [pc, #468]	@ (80021bc <_dtoa_r+0x2ec>)
 8001fe6:	f7fe fceb 	bl	80009c0 <__aeabi_dsub>
 8001fea:	a367      	add	r3, pc, #412	@ (adr r3, 8002188 <_dtoa_r+0x2b8>)
 8001fec:	e9d3 2300 	ldrd	r2, r3, [r3]
 8001ff0:	f7fe fe9e 	bl	8000d30 <__aeabi_dmul>
 8001ff4:	a366      	add	r3, pc, #408	@ (adr r3, 8002190 <_dtoa_r+0x2c0>)
 8001ff6:	e9d3 2300 	ldrd	r2, r3, [r3]
 8001ffa:	f7fe fce3 	bl	80009c4 <__adddf3>
 8001ffe:	4606      	mov	r6, r0
 8002000:	4620      	mov	r0, r4
 8002002:	460f      	mov	r7, r1
 8002004:	f7fe fe2a 	bl	8000c5c <__aeabi_i2d>
 8002008:	a363      	add	r3, pc, #396	@ (adr r3, 8002198 <_dtoa_r+0x2c8>)
 800200a:	e9d3 2300 	ldrd	r2, r3, [r3]
 800200e:	f7fe fe8f 	bl	8000d30 <__aeabi_dmul>
 8002012:	4602      	mov	r2, r0
 8002014:	460b      	mov	r3, r1
 8002016:	4630      	mov	r0, r6
 8002018:	4639      	mov	r1, r7
 800201a:	f7fe fcd3 	bl	80009c4 <__adddf3>
 800201e:	4606      	mov	r6, r0
 8002020:	460f      	mov	r7, r1
 8002022:	f7ff f935 	bl	8001290 <__aeabi_d2iz>
 8002026:	2200      	movs	r2, #0
 8002028:	4680      	mov	r8, r0
 800202a:	2300      	movs	r3, #0
 800202c:	4630      	mov	r0, r6
 800202e:	4639      	mov	r1, r7
 8002030:	f7ff f8f0 	bl	8001214 <__aeabi_dcmplt>
 8002034:	b148      	cbz	r0, 800204a <_dtoa_r+0x17a>
 8002036:	4640      	mov	r0, r8
 8002038:	f7fe fe10 	bl	8000c5c <__aeabi_i2d>
 800203c:	4632      	mov	r2, r6
 800203e:	463b      	mov	r3, r7
 8002040:	f7ff f8de 	bl	8001200 <__aeabi_dcmpeq>
 8002044:	b908      	cbnz	r0, 800204a <_dtoa_r+0x17a>
 8002046:	f108 38ff 	add.w	r8, r8, #4294967295
 800204a:	f1b8 0f16 	cmp.w	r8, #22
 800204e:	d851      	bhi.n	80020f4 <_dtoa_r+0x224>
 8002050:	4b5b      	ldr	r3, [pc, #364]	@ (80021c0 <_dtoa_r+0x2f0>)
 8002052:	eb03 03c8 	add.w	r3, r3, r8, lsl #3
 8002056:	e9d3 2300 	ldrd	r2, r3, [r3]
 800205a:	e9dd 0106 	ldrd	r0, r1, [sp, #24]
 800205e:	f7ff f8d9 	bl	8001214 <__aeabi_dcmplt>
 8002062:	2800      	cmp	r0, #0
 8002064:	d048      	beq.n	80020f8 <_dtoa_r+0x228>
 8002066:	f108 38ff 	add.w	r8, r8, #4294967295
 800206a:	2300      	movs	r3, #0
 800206c:	9312      	str	r3, [sp, #72]	@ 0x48
 800206e:	1b2d      	subs	r5, r5, r4
 8002070:	1e6b      	subs	r3, r5, #1
 8002072:	9308      	str	r3, [sp, #32]
 8002074:	bf43      	ittte	mi
 8002076:	2300      	movmi	r3, #0
 8002078:	f1c5 0701 	rsbmi	r7, r5, #1
 800207c:	9308      	strmi	r3, [sp, #32]
 800207e:	2700      	movpl	r7, #0
 8002080:	f1b8 0f00 	cmp.w	r8, #0
 8002084:	db3a      	blt.n	80020fc <_dtoa_r+0x22c>
 8002086:	9b08      	ldr	r3, [sp, #32]
 8002088:	f8cd 8034 	str.w	r8, [sp, #52]	@ 0x34
 800208c:	4443      	add	r3, r8
 800208e:	9308      	str	r3, [sp, #32]
 8002090:	2300      	movs	r3, #0
 8002092:	9309      	str	r3, [sp, #36]	@ 0x24
 8002094:	9b0a      	ldr	r3, [sp, #40]	@ 0x28
 8002096:	2b09      	cmp	r3, #9
 8002098:	d862      	bhi.n	8002160 <_dtoa_r+0x290>
 800209a:	2b05      	cmp	r3, #5
 800209c:	bfc4      	itt	gt
 800209e:	3b04      	subgt	r3, #4
 80020a0:	930a      	strgt	r3, [sp, #40]	@ 0x28
 80020a2:	9b0a      	ldr	r3, [sp, #40]	@ 0x28
 80020a4:	f1a3 0302 	sub.w	r3, r3, #2
 80020a8:	bfcc      	ite	gt
 80020aa:	2400      	movgt	r4, #0
 80020ac:	2401      	movle	r4, #1
 80020ae:	2b03      	cmp	r3, #3
 80020b0:	d862      	bhi.n	8002178 <_dtoa_r+0x2a8>
 80020b2:	e8df f003 	tbb	[pc, r3]
 80020b6:	2b365351 			@ <UNDEFINED> instruction: 2b365351
 80020ba:	9c17      	ldr	r4, [sp, #92]	@ 0x5c
 80020bc:	442c      	add	r4, r5
 80020be:	f204 4332 	addw	r3, r4, #1074	@ 0x432
 80020c2:	2b20      	cmp	r3, #32
 80020c4:	bfc1      	itttt	gt
 80020c6:	f1c3 0340 	rsbgt	r3, r3, #64	@ 0x40
 80020ca:	fa08 f803 	lslgt.w	r8, r8, r3
 80020ce:	f204 4312 	addwgt	r3, r4, #1042	@ 0x412
 80020d2:	fa26 f303 	lsrgt.w	r3, r6, r3
 80020d6:	bfd6      	itet	le
 80020d8:	f1c3 0320 	rsble	r3, r3, #32
 80020dc:	ea48 0003 	orrgt.w	r0, r8, r3
 80020e0:	fa06 f003 	lslle.w	r0, r6, r3
 80020e4:	f7fe fdaa 	bl	8000c3c <__aeabi_ui2d>
 80020e8:	2201      	movs	r2, #1
 80020ea:	f1a1 73f8 	sub.w	r3, r1, #32505856	@ 0x1f00000
 80020ee:	3c01      	subs	r4, #1
 80020f0:	9214      	str	r2, [sp, #80]	@ 0x50
 80020f2:	e775      	b.n	8001fe0 <_dtoa_r+0x110>
 80020f4:	2301      	movs	r3, #1
 80020f6:	e7b9      	b.n	800206c <_dtoa_r+0x19c>
 80020f8:	9012      	str	r0, [sp, #72]	@ 0x48
 80020fa:	e7b8      	b.n	800206e <_dtoa_r+0x19e>
 80020fc:	f1c8 0300 	rsb	r3, r8, #0
 8002100:	9309      	str	r3, [sp, #36]	@ 0x24
 8002102:	2300      	movs	r3, #0
 8002104:	eba7 0708 	sub.w	r7, r7, r8
 8002108:	930d      	str	r3, [sp, #52]	@ 0x34
 800210a:	e7c3      	b.n	8002094 <_dtoa_r+0x1c4>
 800210c:	2301      	movs	r3, #1
 800210e:	930b      	str	r3, [sp, #44]	@ 0x2c
 8002110:	9b0c      	ldr	r3, [sp, #48]	@ 0x30
 8002112:	4443      	add	r3, r8
 8002114:	9305      	str	r3, [sp, #20]
 8002116:	3301      	adds	r3, #1
 8002118:	2b01      	cmp	r3, #1
 800211a:	9304      	str	r3, [sp, #16]
 800211c:	bfb8      	it	lt
 800211e:	2301      	movlt	r3, #1
 8002120:	e006      	b.n	8002130 <_dtoa_r+0x260>
 8002122:	2301      	movs	r3, #1
 8002124:	930b      	str	r3, [sp, #44]	@ 0x2c
 8002126:	9b0c      	ldr	r3, [sp, #48]	@ 0x30
 8002128:	2b00      	cmp	r3, #0
 800212a:	dd28      	ble.n	800217e <_dtoa_r+0x2ae>
 800212c:	e9cd 3304 	strd	r3, r3, [sp, #16]
 8002130:	f8d9 001c 	ldr.w	r0, [r9, #28]
 8002134:	2100      	movs	r1, #0
 8002136:	2204      	movs	r2, #4
 8002138:	f102 0514 	add.w	r5, r2, #20
 800213c:	429d      	cmp	r5, r3
 800213e:	d943      	bls.n	80021c8 <_dtoa_r+0x2f8>
 8002140:	6041      	str	r1, [r0, #4]
 8002142:	4648      	mov	r0, r9
 8002144:	f000 fda0 	bl	8002c88 <_Balloc>
 8002148:	9000      	str	r0, [sp, #0]
 800214a:	2800      	cmp	r0, #0
 800214c:	d13f      	bne.n	80021ce <_dtoa_r+0x2fe>
 800214e:	4b1d      	ldr	r3, [pc, #116]	@ (80021c4 <_dtoa_r+0x2f4>)
 8002150:	4602      	mov	r2, r0
 8002152:	f240 11af 	movw	r1, #431	@ 0x1af
 8002156:	e6d2      	b.n	8001efe <_dtoa_r+0x2e>
 8002158:	2300      	movs	r3, #0
 800215a:	e7e3      	b.n	8002124 <_dtoa_r+0x254>
 800215c:	2300      	movs	r3, #0
 800215e:	e7d6      	b.n	800210e <_dtoa_r+0x23e>
 8002160:	2401      	movs	r4, #1
 8002162:	2300      	movs	r3, #0
 8002164:	e9cd 340a 	strd	r3, r4, [sp, #40]	@ 0x28
 8002168:	f04f 33ff 	mov.w	r3, #4294967295
 800216c:	2200      	movs	r2, #0
 800216e:	e9cd 3304 	strd	r3, r3, [sp, #16]
 8002172:	920c      	str	r2, [sp, #48]	@ 0x30
 8002174:	2312      	movs	r3, #18
 8002176:	e7db      	b.n	8002130 <_dtoa_r+0x260>
 8002178:	2301      	movs	r3, #1
 800217a:	930b      	str	r3, [sp, #44]	@ 0x2c
 800217c:	e7f4      	b.n	8002168 <_dtoa_r+0x298>
 800217e:	2301      	movs	r3, #1
 8002180:	e9cd 3304 	strd	r3, r3, [sp, #16]
 8002184:	930c      	str	r3, [sp, #48]	@ 0x30
 8002186:	e7d3      	b.n	8002130 <_dtoa_r+0x260>
 8002188:	636f4361 			@ <UNDEFINED> instruction: 636f4361
 800218c:	3fd287a7 			@ <UNDEFINED> instruction: 3fd287a7
 8002190:	8b60c8b3 			@ <UNDEFINED> instruction: 8b60c8b3
 8002194:	3fc68a28 			@ <UNDEFINED> instruction: 3fc68a28
 8002198:	509f79fb 			@ <UNDEFINED> instruction: 509f79fb
 800219c:	3fd34413 			@ <UNDEFINED> instruction: 3fd34413
 80021a0:	08004bbb 			@ <UNDEFINED> instruction: 08004bbb
 80021a4:	08004bd2 			@ <UNDEFINED> instruction: 08004bd2
 80021a8:	7ff00000 			@ <UNDEFINED> instruction: 7ff00000
 80021ac:	08004bb7 			@ <UNDEFINED> instruction: 08004bb7
 80021b0:	08004bae 			@ <UNDEFINED> instruction: 08004bae
 80021b4:	08004b8b 			@ <UNDEFINED> instruction: 08004b8b
 80021b8:	08004b8a 			@ <UNDEFINED> instruction: 08004b8a
 80021bc:	3ff80000 			@ <UNDEFINED> instruction: 3ff80000
 80021c0:	08004d50 			@ <UNDEFINED> instruction: 08004d50
 80021c4:	08004c2b 			@ <UNDEFINED> instruction: 08004c2b
 80021c8:	3101      	adds	r1, #1
 80021ca:	0052      	lsls	r2, r2, #1
 80021cc:	e7b4      	b.n	8002138 <_dtoa_r+0x268>
 80021ce:	f8d9 301c 	ldr.w	r3, [r9, #28]
 80021d2:	9a00      	ldr	r2, [sp, #0]
 80021d4:	601a      	str	r2, [r3, #0]
 80021d6:	9b04      	ldr	r3, [sp, #16]
 80021d8:	2b0e      	cmp	r3, #14
 80021da:	d875      	bhi.n	80022c8 <_dtoa_r+0x3f8>
 80021dc:	2c00      	cmp	r4, #0
 80021de:	d073      	beq.n	80022c8 <_dtoa_r+0x3f8>
 80021e0:	f1b8 0f00 	cmp.w	r8, #0
 80021e4:	f340 80c4 	ble.w	8002370 <_dtoa_r+0x4a0>
 80021e8:	4b9f      	ldr	r3, [pc, #636]	@ (8002468 <_dtoa_r+0x598>)
 80021ea:	f008 020f 	and.w	r2, r8, #15
 80021ee:	eb03 03c2 	add.w	r3, r3, r2, lsl #3
 80021f2:	f418 7f80 	tst.w	r8, #256	@ 0x100
 80021f6:	e9d3 ab00 	ldrd	sl, fp, [r3]
 80021fa:	ea4f 1528 	mov.w	r5, r8, asr #4
 80021fe:	f000 80a3 	beq.w	8002348 <_dtoa_r+0x478>
 8002202:	4b9a      	ldr	r3, [pc, #616]	@ (800246c <_dtoa_r+0x59c>)
 8002204:	e9dd 0106 	ldrd	r0, r1, [sp, #24]
 8002208:	e9d3 2308 	ldrd	r2, r3, [r3, #32]
 800220c:	f7fe feba 	bl	8000f84 <__aeabi_ddiv>
 8002210:	e9cd 0102 	strd	r0, r1, [sp, #8]
 8002214:	f005 050f 	and.w	r5, r5, #15
 8002218:	2403      	movs	r4, #3
 800221a:	4e94      	ldr	r6, [pc, #592]	@ (800246c <_dtoa_r+0x59c>)
 800221c:	2d00      	cmp	r5, #0
 800221e:	f040 8099 	bne.w	8002354 <_dtoa_r+0x484>
 8002222:	4652      	mov	r2, sl
 8002224:	465b      	mov	r3, fp
 8002226:	e9dd 0102 	ldrd	r0, r1, [sp, #8]
 800222a:	f7fe feab 	bl	8000f84 <__aeabi_ddiv>
 800222e:	4682      	mov	sl, r0
 8002230:	468b      	mov	fp, r1
 8002232:	9b12      	ldr	r3, [sp, #72]	@ 0x48
 8002234:	2b00      	cmp	r3, #0
 8002236:	f000 80c3 	beq.w	80023c0 <_dtoa_r+0x4f0>
 800223a:	4b8d      	ldr	r3, [pc, #564]	@ (8002470 <_dtoa_r+0x5a0>)
 800223c:	2200      	movs	r2, #0
 800223e:	4650      	mov	r0, sl
 8002240:	4659      	mov	r1, fp
 8002242:	f7fe ffe7 	bl	8001214 <__aeabi_dcmplt>
 8002246:	2800      	cmp	r0, #0
 8002248:	f000 80ba 	beq.w	80023c0 <_dtoa_r+0x4f0>
 800224c:	9b04      	ldr	r3, [sp, #16]
 800224e:	2b00      	cmp	r3, #0
 8002250:	f000 80b6 	beq.w	80023c0 <_dtoa_r+0x4f0>
 8002254:	9b05      	ldr	r3, [sp, #20]
 8002256:	2b00      	cmp	r3, #0
 8002258:	dd36      	ble.n	80022c8 <_dtoa_r+0x3f8>
 800225a:	f108 33ff 	add.w	r3, r8, #4294967295
 800225e:	9302      	str	r3, [sp, #8]
 8002260:	4650      	mov	r0, sl
 8002262:	4659      	mov	r1, fp
 8002264:	4b83      	ldr	r3, [pc, #524]	@ (8002474 <_dtoa_r+0x5a4>)
 8002266:	2200      	movs	r2, #0
 8002268:	f7fe fd62 	bl	8000d30 <__aeabi_dmul>
 800226c:	9e05      	ldr	r6, [sp, #20]
 800226e:	4682      	mov	sl, r0
 8002270:	468b      	mov	fp, r1
 8002272:	3401      	adds	r4, #1
 8002274:	4620      	mov	r0, r4
 8002276:	f7fe fcf1 	bl	8000c5c <__aeabi_i2d>
 800227a:	4652      	mov	r2, sl
 800227c:	465b      	mov	r3, fp
 800227e:	f7fe fd57 	bl	8000d30 <__aeabi_dmul>
 8002282:	4b7d      	ldr	r3, [pc, #500]	@ (8002478 <_dtoa_r+0x5a8>)
 8002284:	2200      	movs	r2, #0
 8002286:	f7fe fb9d 	bl	80009c4 <__adddf3>
 800228a:	4604      	mov	r4, r0
 800228c:	f1a1 7550 	sub.w	r5, r1, #54525952	@ 0x3400000
 8002290:	e9cd 4510 	strd	r4, r5, [sp, #64]	@ 0x40
 8002294:	2e00      	cmp	r6, #0
 8002296:	f040 8097 	bne.w	80023c8 <_dtoa_r+0x4f8>
 800229a:	4b78      	ldr	r3, [pc, #480]	@ (800247c <_dtoa_r+0x5ac>)
 800229c:	2200      	movs	r2, #0
 800229e:	4650      	mov	r0, sl
 80022a0:	4659      	mov	r1, fp
 80022a2:	f7fe fb8d 	bl	80009c0 <__aeabi_dsub>
 80022a6:	4622      	mov	r2, r4
 80022a8:	462b      	mov	r3, r5
 80022aa:	4682      	mov	sl, r0
 80022ac:	468b      	mov	fp, r1
 80022ae:	f7fe ffcf 	bl	8001250 <__aeabi_dcmpgt>
 80022b2:	2800      	cmp	r0, #0
 80022b4:	f040 82bd 	bne.w	8002832 <_dtoa_r+0x962>
 80022b8:	4622      	mov	r2, r4
 80022ba:	f105 4300 	add.w	r3, r5, #2147483648	@ 0x80000000
 80022be:	4650      	mov	r0, sl
 80022c0:	4659      	mov	r1, fp
 80022c2:	f7fe ffa7 	bl	8001214 <__aeabi_dcmplt>
 80022c6:	bb20      	cbnz	r0, 8002312 <_dtoa_r+0x442>
 80022c8:	9b17      	ldr	r3, [sp, #92]	@ 0x5c
 80022ca:	2b00      	cmp	r3, #0
 80022cc:	f2c0 818d 	blt.w	80025ea <_dtoa_r+0x71a>
 80022d0:	f1b8 0f0e 	cmp.w	r8, #14
 80022d4:	f300 8189 	bgt.w	80025ea <_dtoa_r+0x71a>
 80022d8:	4b63      	ldr	r3, [pc, #396]	@ (8002468 <_dtoa_r+0x598>)
 80022da:	eb03 03c8 	add.w	r3, r3, r8, lsl #3
 80022de:	e9d3 ab00 	ldrd	sl, fp, [r3]
 80022e2:	9b0c      	ldr	r3, [sp, #48]	@ 0x30
 80022e4:	2b00      	cmp	r3, #0
 80022e6:	f280 811b 	bge.w	8002520 <_dtoa_r+0x650>
 80022ea:	9b04      	ldr	r3, [sp, #16]
 80022ec:	2b00      	cmp	r3, #0
 80022ee:	f300 8117 	bgt.w	8002520 <_dtoa_r+0x650>
 80022f2:	d10e      	bne.n	8002312 <_dtoa_r+0x442>
 80022f4:	4b61      	ldr	r3, [pc, #388]	@ (800247c <_dtoa_r+0x5ac>)
 80022f6:	2200      	movs	r2, #0
 80022f8:	4650      	mov	r0, sl
 80022fa:	4659      	mov	r1, fp
 80022fc:	f7fe fd18 	bl	8000d30 <__aeabi_dmul>
 8002300:	4602      	mov	r2, r0
 8002302:	460b      	mov	r3, r1
 8002304:	e9dd 0106 	ldrd	r0, r1, [sp, #24]
 8002308:	f7fe ff8e 	bl	8001228 <__aeabi_dcmple>
 800230c:	2800      	cmp	r0, #0
 800230e:	f000 8293 	beq.w	8002838 <_dtoa_r+0x968>
 8002312:	2500      	movs	r5, #0
 8002314:	462c      	mov	r4, r5
 8002316:	9b0c      	ldr	r3, [sp, #48]	@ 0x30
 8002318:	9e00      	ldr	r6, [sp, #0]
 800231a:	43db      	mvns	r3, r3
 800231c:	9302      	str	r3, [sp, #8]
 800231e:	4627      	mov	r7, r4
 8002320:	2400      	movs	r4, #0
 8002322:	4629      	mov	r1, r5
 8002324:	4648      	mov	r0, r9
 8002326:	f000 fced 	bl	8002d04 <_Bfree>
 800232a:	2f00      	cmp	r7, #0
 800232c:	f000 80ee 	beq.w	800250c <_dtoa_r+0x63c>
 8002330:	b12c      	cbz	r4, 800233e <_dtoa_r+0x46e>
 8002332:	42bc      	cmp	r4, r7
 8002334:	d003      	beq.n	800233e <_dtoa_r+0x46e>
 8002336:	4621      	mov	r1, r4
 8002338:	4648      	mov	r0, r9
 800233a:	f000 fce3 	bl	8002d04 <_Bfree>
 800233e:	4639      	mov	r1, r7
 8002340:	4648      	mov	r0, r9
 8002342:	f000 fcdf 	bl	8002d04 <_Bfree>
 8002346:	e0e1      	b.n	800250c <_dtoa_r+0x63c>
 8002348:	ed9d 7b06 	vldr	d7, [sp, #24]
 800234c:	2402      	movs	r4, #2
 800234e:	ed8d 7b02 	vstr	d7, [sp, #8]
 8002352:	e762      	b.n	800221a <_dtoa_r+0x34a>
 8002354:	07e9      	lsls	r1, r5, #31
 8002356:	d508      	bpl.n	800236a <_dtoa_r+0x49a>
 8002358:	4650      	mov	r0, sl
 800235a:	4659      	mov	r1, fp
 800235c:	e9d6 2300 	ldrd	r2, r3, [r6]
 8002360:	f7fe fce6 	bl	8000d30 <__aeabi_dmul>
 8002364:	3401      	adds	r4, #1
 8002366:	4682      	mov	sl, r0
 8002368:	468b      	mov	fp, r1
 800236a:	106d      	asrs	r5, r5, #1
 800236c:	3608      	adds	r6, #8
 800236e:	e755      	b.n	800221c <_dtoa_r+0x34c>
 8002370:	d022      	beq.n	80023b8 <_dtoa_r+0x4e8>
 8002372:	f1c8 0500 	rsb	r5, r8, #0
 8002376:	4b3c      	ldr	r3, [pc, #240]	@ (8002468 <_dtoa_r+0x598>)
 8002378:	4e3c      	ldr	r6, [pc, #240]	@ (800246c <_dtoa_r+0x59c>)
 800237a:	f005 020f 	and.w	r2, r5, #15
 800237e:	eb03 03c2 	add.w	r3, r3, r2, lsl #3
 8002382:	e9d3 2300 	ldrd	r2, r3, [r3]
 8002386:	e9dd 0106 	ldrd	r0, r1, [sp, #24]
 800238a:	f7fe fcd1 	bl	8000d30 <__aeabi_dmul>
 800238e:	112d      	asrs	r5, r5, #4
 8002390:	4682      	mov	sl, r0
 8002392:	468b      	mov	fp, r1
 8002394:	2402      	movs	r4, #2
 8002396:	2d00      	cmp	r5, #0
 8002398:	f43f af4b 	beq.w	8002232 <_dtoa_r+0x362>
 800239c:	07ea      	lsls	r2, r5, #31
 800239e:	d508      	bpl.n	80023b2 <_dtoa_r+0x4e2>
 80023a0:	4650      	mov	r0, sl
 80023a2:	4659      	mov	r1, fp
 80023a4:	e9d6 2300 	ldrd	r2, r3, [r6]
 80023a8:	f7fe fcc2 	bl	8000d30 <__aeabi_dmul>
 80023ac:	3401      	adds	r4, #1
 80023ae:	4682      	mov	sl, r0
 80023b0:	468b      	mov	fp, r1
 80023b2:	106d      	asrs	r5, r5, #1
 80023b4:	3608      	adds	r6, #8
 80023b6:	e7ee      	b.n	8002396 <_dtoa_r+0x4c6>
 80023b8:	e9dd ab06 	ldrd	sl, fp, [sp, #24]
 80023bc:	2402      	movs	r4, #2
 80023be:	e738      	b.n	8002232 <_dtoa_r+0x362>
 80023c0:	9e04      	ldr	r6, [sp, #16]
 80023c2:	f8cd 8008 	str.w	r8, [sp, #8]
 80023c6:	e755      	b.n	8002274 <_dtoa_r+0x3a4>
 80023c8:	4b27      	ldr	r3, [pc, #156]	@ (8002468 <_dtoa_r+0x598>)
 80023ca:	eb03 03c6 	add.w	r3, r3, r6, lsl #3
 80023ce:	e953 0102 	ldrd	r0, r1, [r3, #-8]
 80023d2:	9b0b      	ldr	r3, [sp, #44]	@ 0x2c
 80023d4:	2b00      	cmp	r3, #0
 80023d6:	d055      	beq.n	8002484 <_dtoa_r+0x5b4>
 80023d8:	4602      	mov	r2, r0
 80023da:	460b      	mov	r3, r1
 80023dc:	2000      	movs	r0, #0
 80023de:	4928      	ldr	r1, [pc, #160]	@ (8002480 <_dtoa_r+0x5b0>)
 80023e0:	f7fe fdd0 	bl	8000f84 <__aeabi_ddiv>
 80023e4:	e9dd 2310 	ldrd	r2, r3, [sp, #64]	@ 0x40
 80023e8:	f7fe faea 	bl	80009c0 <__aeabi_dsub>
 80023ec:	9b00      	ldr	r3, [sp, #0]
 80023ee:	e9cd 0110 	strd	r0, r1, [sp, #64]	@ 0x40
 80023f2:	199d      	adds	r5, r3, r6
 80023f4:	461e      	mov	r6, r3
 80023f6:	4659      	mov	r1, fp
 80023f8:	4650      	mov	r0, sl
 80023fa:	f7fe ff49 	bl	8001290 <__aeabi_d2iz>
 80023fe:	f100 0430 	add.w	r4, r0, #48	@ 0x30
 8002402:	f7fe fc2b 	bl	8000c5c <__aeabi_i2d>
 8002406:	4602      	mov	r2, r0
 8002408:	460b      	mov	r3, r1
 800240a:	4650      	mov	r0, sl
 800240c:	4659      	mov	r1, fp
 800240e:	f7fe fad7 	bl	80009c0 <__aeabi_dsub>
 8002412:	e9dd 2310 	ldrd	r2, r3, [sp, #64]	@ 0x40
 8002416:	f806 4b01 	strb.w	r4, [r6], #1
 800241a:	4682      	mov	sl, r0
 800241c:	468b      	mov	fp, r1
 800241e:	f7fe fef9 	bl	8001214 <__aeabi_dcmplt>
 8002422:	2800      	cmp	r0, #0
 8002424:	d172      	bne.n	800250c <_dtoa_r+0x63c>
 8002426:	4652      	mov	r2, sl
 8002428:	465b      	mov	r3, fp
 800242a:	4911      	ldr	r1, [pc, #68]	@ (8002470 <_dtoa_r+0x5a0>)
 800242c:	2000      	movs	r0, #0
 800242e:	f7fe fac7 	bl	80009c0 <__aeabi_dsub>
 8002432:	e9dd 2310 	ldrd	r2, r3, [sp, #64]	@ 0x40
 8002436:	f7fe feed 	bl	8001214 <__aeabi_dcmplt>
 800243a:	2800      	cmp	r0, #0
 800243c:	f040 80b6 	bne.w	80025ac <_dtoa_r+0x6dc>
 8002440:	42ae      	cmp	r6, r5
 8002442:	f43f af41 	beq.w	80022c8 <_dtoa_r+0x3f8>
 8002446:	e9dd 0110 	ldrd	r0, r1, [sp, #64]	@ 0x40
 800244a:	4b0a      	ldr	r3, [pc, #40]	@ (8002474 <_dtoa_r+0x5a4>)
 800244c:	2200      	movs	r2, #0
 800244e:	f7fe fc6f 	bl	8000d30 <__aeabi_dmul>
 8002452:	4b08      	ldr	r3, [pc, #32]	@ (8002474 <_dtoa_r+0x5a4>)
 8002454:	e9cd 0110 	strd	r0, r1, [sp, #64]	@ 0x40
 8002458:	2200      	movs	r2, #0
 800245a:	4650      	mov	r0, sl
 800245c:	4659      	mov	r1, fp
 800245e:	f7fe fc67 	bl	8000d30 <__aeabi_dmul>
 8002462:	4682      	mov	sl, r0
 8002464:	468b      	mov	fp, r1
 8002466:	e7c6      	b.n	80023f6 <_dtoa_r+0x526>
 8002468:	08004d50 			@ <UNDEFINED> instruction: 08004d50
 800246c:	08004d28 			@ <UNDEFINED> instruction: 08004d28
 8002470:	3ff00000 			@ <UNDEFINED> instruction: 3ff00000
 8002474:	40240000 			@ <UNDEFINED> instruction: 40240000
 8002478:	401c0000 			@ <UNDEFINED> instruction: 401c0000
 800247c:	40140000 			@ <UNDEFINED> instruction: 40140000
 8002480:	3fe00000 			@ <UNDEFINED> instruction: 3fe00000
 8002484:	e9dd 2310 	ldrd	r2, r3, [sp, #64]	@ 0x40
 8002488:	f7fe fc52 	bl	8000d30 <__aeabi_dmul>
 800248c:	9b00      	ldr	r3, [sp, #0]
 800248e:	9c00      	ldr	r4, [sp, #0]
 8002490:	e9cd 0110 	strd	r0, r1, [sp, #64]	@ 0x40
 8002494:	4433      	add	r3, r6
 8002496:	9315      	str	r3, [sp, #84]	@ 0x54
 8002498:	4659      	mov	r1, fp
 800249a:	4650      	mov	r0, sl
 800249c:	f7fe fef8 	bl	8001290 <__aeabi_d2iz>
 80024a0:	f100 0530 	add.w	r5, r0, #48	@ 0x30
 80024a4:	f7fe fbda 	bl	8000c5c <__aeabi_i2d>
 80024a8:	460b      	mov	r3, r1
 80024aa:	4602      	mov	r2, r0
 80024ac:	4659      	mov	r1, fp
 80024ae:	4650      	mov	r0, sl
 80024b0:	f7fe fa86 	bl	80009c0 <__aeabi_dsub>
 80024b4:	f804 5b01 	strb.w	r5, [r4], #1
 80024b8:	9b15      	ldr	r3, [sp, #84]	@ 0x54
 80024ba:	429c      	cmp	r4, r3
 80024bc:	4682      	mov	sl, r0
 80024be:	468b      	mov	fp, r1
 80024c0:	d127      	bne.n	8002512 <_dtoa_r+0x642>
 80024c2:	9b00      	ldr	r3, [sp, #0]
 80024c4:	2200      	movs	r2, #0
 80024c6:	e9dd 0110 	ldrd	r0, r1, [sp, #64]	@ 0x40
 80024ca:	441e      	add	r6, r3
 80024cc:	4baa      	ldr	r3, [pc, #680]	@ (8002778 <_dtoa_r+0x8a8>)
 80024ce:	f7fe fa79 	bl	80009c4 <__adddf3>
 80024d2:	4602      	mov	r2, r0
 80024d4:	460b      	mov	r3, r1
 80024d6:	4650      	mov	r0, sl
 80024d8:	4659      	mov	r1, fp
 80024da:	f7fe feb9 	bl	8001250 <__aeabi_dcmpgt>
 80024de:	2800      	cmp	r0, #0
 80024e0:	d164      	bne.n	80025ac <_dtoa_r+0x6dc>
 80024e2:	e9dd 2310 	ldrd	r2, r3, [sp, #64]	@ 0x40
 80024e6:	49a4      	ldr	r1, [pc, #656]	@ (8002778 <_dtoa_r+0x8a8>)
 80024e8:	2000      	movs	r0, #0
 80024ea:	f7fe fa69 	bl	80009c0 <__aeabi_dsub>
 80024ee:	4602      	mov	r2, r0
 80024f0:	460b      	mov	r3, r1
 80024f2:	4650      	mov	r0, sl
 80024f4:	4659      	mov	r1, fp
 80024f6:	f7fe fe8d 	bl	8001214 <__aeabi_dcmplt>
 80024fa:	2800      	cmp	r0, #0
 80024fc:	f43f aee4 	beq.w	80022c8 <_dtoa_r+0x3f8>
 8002500:	4633      	mov	r3, r6
 8002502:	f816 2d01 	ldrb.w	r2, [r6, #-1]!
 8002506:	2a30      	cmp	r2, #48	@ 0x30
 8002508:	d0fa      	beq.n	8002500 <_dtoa_r+0x630>
 800250a:	461e      	mov	r6, r3
 800250c:	f8dd 8008 	ldr.w	r8, [sp, #8]
 8002510:	e03a      	b.n	8002588 <_dtoa_r+0x6b8>
 8002512:	4b9a      	ldr	r3, [pc, #616]	@ (800277c <_dtoa_r+0x8ac>)
 8002514:	2200      	movs	r2, #0
 8002516:	f7fe fc0b 	bl	8000d30 <__aeabi_dmul>
 800251a:	4682      	mov	sl, r0
 800251c:	468b      	mov	fp, r1
 800251e:	e7bb      	b.n	8002498 <_dtoa_r+0x5c8>
 8002520:	9e00      	ldr	r6, [sp, #0]
 8002522:	4652      	mov	r2, sl
 8002524:	465b      	mov	r3, fp
 8002526:	e9dd 0106 	ldrd	r0, r1, [sp, #24]
 800252a:	f7fe fd2b 	bl	8000f84 <__aeabi_ddiv>
 800252e:	f7fe feaf 	bl	8001290 <__aeabi_d2iz>
 8002532:	4607      	mov	r7, r0
 8002534:	f7fe fb92 	bl	8000c5c <__aeabi_i2d>
 8002538:	4652      	mov	r2, sl
 800253a:	465b      	mov	r3, fp
 800253c:	f7fe fbf8 	bl	8000d30 <__aeabi_dmul>
 8002540:	4602      	mov	r2, r0
 8002542:	460b      	mov	r3, r1
 8002544:	e9dd 0106 	ldrd	r0, r1, [sp, #24]
 8002548:	f7fe fa3a 	bl	80009c0 <__aeabi_dsub>
 800254c:	f107 0c30 	add.w	ip, r7, #48	@ 0x30
 8002550:	9c00      	ldr	r4, [sp, #0]
 8002552:	f806 cb01 	strb.w	ip, [r6], #1
 8002556:	eba6 0c04 	sub.w	ip, r6, r4
 800255a:	9c04      	ldr	r4, [sp, #16]
 800255c:	4564      	cmp	r4, ip
 800255e:	4602      	mov	r2, r0
 8002560:	460b      	mov	r3, r1
 8002562:	d133      	bne.n	80025cc <_dtoa_r+0x6fc>
 8002564:	f7fe fa2e 	bl	80009c4 <__adddf3>
 8002568:	4652      	mov	r2, sl
 800256a:	465b      	mov	r3, fp
 800256c:	4604      	mov	r4, r0
 800256e:	460d      	mov	r5, r1
 8002570:	f7fe fe6e 	bl	8001250 <__aeabi_dcmpgt>
 8002574:	b9c0      	cbnz	r0, 80025a8 <_dtoa_r+0x6d8>
 8002576:	4652      	mov	r2, sl
 8002578:	465b      	mov	r3, fp
 800257a:	4620      	mov	r0, r4
 800257c:	4629      	mov	r1, r5
 800257e:	f7fe fe3f 	bl	8001200 <__aeabi_dcmpeq>
 8002582:	b108      	cbz	r0, 8002588 <_dtoa_r+0x6b8>
 8002584:	07fb      	lsls	r3, r7, #31
 8002586:	d40f      	bmi.n	80025a8 <_dtoa_r+0x6d8>
 8002588:	9901      	ldr	r1, [sp, #4]
 800258a:	4648      	mov	r0, r9
 800258c:	f000 fbba 	bl	8002d04 <_Bfree>
 8002590:	2300      	movs	r3, #0
 8002592:	9a13      	ldr	r2, [sp, #76]	@ 0x4c
 8002594:	7033      	strb	r3, [r6, #0]
 8002596:	f108 0301 	add.w	r3, r8, #1
 800259a:	6013      	str	r3, [r2, #0]
 800259c:	9b23      	ldr	r3, [sp, #140]	@ 0x8c
 800259e:	2b00      	cmp	r3, #0
 80025a0:	f43f ace6 	beq.w	8001f70 <_dtoa_r+0xa0>
 80025a4:	601e      	str	r6, [r3, #0]
 80025a6:	e4e3      	b.n	8001f70 <_dtoa_r+0xa0>
 80025a8:	f8cd 8008 	str.w	r8, [sp, #8]
 80025ac:	4633      	mov	r3, r6
 80025ae:	461e      	mov	r6, r3
 80025b0:	f813 2d01 	ldrb.w	r2, [r3, #-1]!
 80025b4:	2a39      	cmp	r2, #57	@ 0x39
 80025b6:	d106      	bne.n	80025c6 <_dtoa_r+0x6f6>
 80025b8:	9a00      	ldr	r2, [sp, #0]
 80025ba:	429a      	cmp	r2, r3
 80025bc:	d1f7      	bne.n	80025ae <_dtoa_r+0x6de>
 80025be:	9a02      	ldr	r2, [sp, #8]
 80025c0:	3201      	adds	r2, #1
 80025c2:	9202      	str	r2, [sp, #8]
 80025c4:	2230      	movs	r2, #48	@ 0x30
 80025c6:	3201      	adds	r2, #1
 80025c8:	701a      	strb	r2, [r3, #0]
 80025ca:	e79f      	b.n	800250c <_dtoa_r+0x63c>
 80025cc:	4b6b      	ldr	r3, [pc, #428]	@ (800277c <_dtoa_r+0x8ac>)
 80025ce:	2200      	movs	r2, #0
 80025d0:	f7fe fbae 	bl	8000d30 <__aeabi_dmul>
 80025d4:	4602      	mov	r2, r0
 80025d6:	460b      	mov	r3, r1
 80025d8:	e9cd 2306 	strd	r2, r3, [sp, #24]
 80025dc:	2200      	movs	r2, #0
 80025de:	2300      	movs	r3, #0
 80025e0:	f7fe fe0e 	bl	8001200 <__aeabi_dcmpeq>
 80025e4:	2800      	cmp	r0, #0
 80025e6:	d09c      	beq.n	8002522 <_dtoa_r+0x652>
 80025e8:	e7ce      	b.n	8002588 <_dtoa_r+0x6b8>
 80025ea:	9a0b      	ldr	r2, [sp, #44]	@ 0x2c
 80025ec:	2a00      	cmp	r2, #0
 80025ee:	f000 80df 	beq.w	80027b0 <_dtoa_r+0x8e0>
 80025f2:	9a0a      	ldr	r2, [sp, #40]	@ 0x28
 80025f4:	2a01      	cmp	r2, #1
 80025f6:	f300 80c3 	bgt.w	8002780 <_dtoa_r+0x8b0>
 80025fa:	9a14      	ldr	r2, [sp, #80]	@ 0x50
 80025fc:	2a00      	cmp	r2, #0
 80025fe:	f000 80b7 	beq.w	8002770 <_dtoa_r+0x8a0>
 8002602:	f203 4333 	addw	r3, r3, #1075	@ 0x433
 8002606:	9d09      	ldr	r5, [sp, #36]	@ 0x24
 8002608:	463e      	mov	r6, r7
 800260a:	9a08      	ldr	r2, [sp, #32]
 800260c:	2101      	movs	r1, #1
 800260e:	441a      	add	r2, r3
 8002610:	4648      	mov	r0, r9
 8002612:	441f      	add	r7, r3
 8002614:	9208      	str	r2, [sp, #32]
 8002616:	f000 fc73 	bl	8002f00 <__i2b>
 800261a:	4604      	mov	r4, r0
 800261c:	b156      	cbz	r6, 8002634 <_dtoa_r+0x764>
 800261e:	9b08      	ldr	r3, [sp, #32]
 8002620:	2b00      	cmp	r3, #0
 8002622:	dd07      	ble.n	8002634 <_dtoa_r+0x764>
 8002624:	42b3      	cmp	r3, r6
 8002626:	9a08      	ldr	r2, [sp, #32]
 8002628:	bfa8      	it	ge
 800262a:	4633      	movge	r3, r6
 800262c:	1aff      	subs	r7, r7, r3
 800262e:	1af6      	subs	r6, r6, r3
 8002630:	1ad3      	subs	r3, r2, r3
 8002632:	9308      	str	r3, [sp, #32]
 8002634:	9b09      	ldr	r3, [sp, #36]	@ 0x24
 8002636:	b30b      	cbz	r3, 800267c <_dtoa_r+0x7ac>
 8002638:	9b0b      	ldr	r3, [sp, #44]	@ 0x2c
 800263a:	2b00      	cmp	r3, #0
 800263c:	f000 80bf 	beq.w	80027be <_dtoa_r+0x8ee>
 8002640:	2d00      	cmp	r5, #0
 8002642:	f000 80b9 	beq.w	80027b8 <_dtoa_r+0x8e8>
 8002646:	4621      	mov	r1, r4
 8002648:	462a      	mov	r2, r5
 800264a:	4648      	mov	r0, r9
 800264c:	f000 fd24 	bl	8003098 <__pow5mult>
 8002650:	9a01      	ldr	r2, [sp, #4]
 8002652:	4601      	mov	r1, r0
 8002654:	4604      	mov	r4, r0
 8002656:	4648      	mov	r0, r9
 8002658:	f000 fc68 	bl	8002f2c <__multiply>
 800265c:	9901      	ldr	r1, [sp, #4]
 800265e:	4682      	mov	sl, r0
 8002660:	4648      	mov	r0, r9
 8002662:	f000 fb4f 	bl	8002d04 <_Bfree>
 8002666:	9b09      	ldr	r3, [sp, #36]	@ 0x24
 8002668:	1b5b      	subs	r3, r3, r5
 800266a:	9309      	str	r3, [sp, #36]	@ 0x24
 800266c:	f000 80aa 	beq.w	80027c4 <_dtoa_r+0x8f4>
 8002670:	9a09      	ldr	r2, [sp, #36]	@ 0x24
 8002672:	4651      	mov	r1, sl
 8002674:	4648      	mov	r0, r9
 8002676:	f000 fd0f 	bl	8003098 <__pow5mult>
 800267a:	9001      	str	r0, [sp, #4]
 800267c:	2101      	movs	r1, #1
 800267e:	4648      	mov	r0, r9
 8002680:	f000 fc3e 	bl	8002f00 <__i2b>
 8002684:	9b0d      	ldr	r3, [sp, #52]	@ 0x34
 8002686:	4605      	mov	r5, r0
 8002688:	2b00      	cmp	r3, #0
 800268a:	f000 81d0 	beq.w	8002a2e <_dtoa_r+0xb5e>
 800268e:	461a      	mov	r2, r3
 8002690:	4601      	mov	r1, r0
 8002692:	4648      	mov	r0, r9
 8002694:	f000 fd00 	bl	8003098 <__pow5mult>
 8002698:	9b0a      	ldr	r3, [sp, #40]	@ 0x28
 800269a:	2b01      	cmp	r3, #1
 800269c:	4605      	mov	r5, r0
 800269e:	f300 8099 	bgt.w	80027d4 <_dtoa_r+0x904>
 80026a2:	9b0e      	ldr	r3, [sp, #56]	@ 0x38
 80026a4:	2b00      	cmp	r3, #0
 80026a6:	f040 8090 	bne.w	80027ca <_dtoa_r+0x8fa>
 80026aa:	9b0f      	ldr	r3, [sp, #60]	@ 0x3c
 80026ac:	f3c3 0313 	ubfx	r3, r3, #0, #20
 80026b0:	2b00      	cmp	r3, #0
 80026b2:	f040 808a 	bne.w	80027ca <_dtoa_r+0x8fa>
 80026b6:	9b0f      	ldr	r3, [sp, #60]	@ 0x3c
 80026b8:	f023 4300 	bic.w	r3, r3, #2147483648	@ 0x80000000
 80026bc:	0d1b      	lsrs	r3, r3, #20
 80026be:	051b      	lsls	r3, r3, #20
 80026c0:	2b00      	cmp	r3, #0
 80026c2:	f000 8085 	beq.w	80027d0 <_dtoa_r+0x900>
 80026c6:	9b08      	ldr	r3, [sp, #32]
 80026c8:	3301      	adds	r3, #1
 80026ca:	3701      	adds	r7, #1
 80026cc:	9308      	str	r3, [sp, #32]
 80026ce:	f04f 0a01 	mov.w	sl, #1
 80026d2:	9b0d      	ldr	r3, [sp, #52]	@ 0x34
 80026d4:	2b00      	cmp	r3, #0
 80026d6:	f000 81b0 	beq.w	8002a3a <_dtoa_r+0xb6a>
 80026da:	692b      	ldr	r3, [r5, #16]
 80026dc:	eb05 0383 	add.w	r3, r5, r3, lsl #2
 80026e0:	6918      	ldr	r0, [r3, #16]
 80026e2:	f000 fbc1 	bl	8002e68 <__hi0bits>
 80026e6:	f1c0 0020 	rsb	r0, r0, #32
 80026ea:	9b08      	ldr	r3, [sp, #32]
 80026ec:	4418      	add	r0, r3
 80026ee:	f010 001f 	ands.w	r0, r0, #31
 80026f2:	d076      	beq.n	80027e2 <_dtoa_r+0x912>
 80026f4:	281b      	cmp	r0, #27
 80026f6:	dc70      	bgt.n	80027da <_dtoa_r+0x90a>
 80026f8:	f1c0 001c 	rsb	r0, r0, #28
 80026fc:	4407      	add	r7, r0
 80026fe:	4406      	add	r6, r0
 8002700:	4403      	add	r3, r0
 8002702:	9308      	str	r3, [sp, #32]
 8002704:	2f00      	cmp	r7, #0
 8002706:	dd05      	ble.n	8002714 <_dtoa_r+0x844>
 8002708:	9901      	ldr	r1, [sp, #4]
 800270a:	463a      	mov	r2, r7
 800270c:	4648      	mov	r0, r9
 800270e:	f000 fd1f 	bl	8003150 <__lshift>
 8002712:	9001      	str	r0, [sp, #4]
 8002714:	9b08      	ldr	r3, [sp, #32]
 8002716:	2b00      	cmp	r3, #0
 8002718:	dd05      	ble.n	8002726 <_dtoa_r+0x856>
 800271a:	4629      	mov	r1, r5
 800271c:	461a      	mov	r2, r3
 800271e:	4648      	mov	r0, r9
 8002720:	f000 fd16 	bl	8003150 <__lshift>
 8002724:	4605      	mov	r5, r0
 8002726:	9b12      	ldr	r3, [sp, #72]	@ 0x48
 8002728:	2b00      	cmp	r3, #0
 800272a:	d05f      	beq.n	80027ec <_dtoa_r+0x91c>
 800272c:	9801      	ldr	r0, [sp, #4]
 800272e:	4629      	mov	r1, r5
 8002730:	f000 fd80 	bl	8003234 <__mcmp>
 8002734:	2800      	cmp	r0, #0
 8002736:	da59      	bge.n	80027ec <_dtoa_r+0x91c>
 8002738:	f108 33ff 	add.w	r3, r8, #4294967295
 800273c:	9302      	str	r3, [sp, #8]
 800273e:	9901      	ldr	r1, [sp, #4]
 8002740:	2300      	movs	r3, #0
 8002742:	220a      	movs	r2, #10
 8002744:	4648      	mov	r0, r9
 8002746:	f000 faff 	bl	8002d48 <__multadd>
 800274a:	9b0b      	ldr	r3, [sp, #44]	@ 0x2c
 800274c:	9001      	str	r0, [sp, #4]
 800274e:	2b00      	cmp	r3, #0
 8002750:	f000 8175 	beq.w	8002a3e <_dtoa_r+0xb6e>
 8002754:	2300      	movs	r3, #0
 8002756:	4621      	mov	r1, r4
 8002758:	220a      	movs	r2, #10
 800275a:	4648      	mov	r0, r9
 800275c:	f000 faf4 	bl	8002d48 <__multadd>
 8002760:	9b05      	ldr	r3, [sp, #20]
 8002762:	2b00      	cmp	r3, #0
 8002764:	4604      	mov	r4, r0
 8002766:	dc71      	bgt.n	800284c <_dtoa_r+0x97c>
 8002768:	9b0a      	ldr	r3, [sp, #40]	@ 0x28
 800276a:	2b02      	cmp	r3, #2
 800276c:	dc47      	bgt.n	80027fe <_dtoa_r+0x92e>
 800276e:	e06d      	b.n	800284c <_dtoa_r+0x97c>
 8002770:	9b16      	ldr	r3, [sp, #88]	@ 0x58
 8002772:	f1c3 0336 	rsb	r3, r3, #54	@ 0x36
 8002776:	e746      	b.n	8002606 <_dtoa_r+0x736>
 8002778:	3fe00000 			@ <UNDEFINED> instruction: 3fe00000
 800277c:	40240000 			@ <UNDEFINED> instruction: 40240000
 8002780:	9b04      	ldr	r3, [sp, #16]
 8002782:	1e5d      	subs	r5, r3, #1
 8002784:	9b09      	ldr	r3, [sp, #36]	@ 0x24
 8002786:	42ab      	cmp	r3, r5
 8002788:	db08      	blt.n	800279c <_dtoa_r+0x8cc>
 800278a:	1b5d      	subs	r5, r3, r5
 800278c:	9b04      	ldr	r3, [sp, #16]
 800278e:	2b00      	cmp	r3, #0
 8002790:	f6bf af3a 	bge.w	8002608 <_dtoa_r+0x738>
 8002794:	9b04      	ldr	r3, [sp, #16]
 8002796:	1afe      	subs	r6, r7, r3
 8002798:	2300      	movs	r3, #0
 800279a:	e736      	b.n	800260a <_dtoa_r+0x73a>
 800279c:	9b09      	ldr	r3, [sp, #36]	@ 0x24
 800279e:	9a0d      	ldr	r2, [sp, #52]	@ 0x34
 80027a0:	9509      	str	r5, [sp, #36]	@ 0x24
 80027a2:	1aeb      	subs	r3, r5, r3
 80027a4:	441a      	add	r2, r3
 80027a6:	920d      	str	r2, [sp, #52]	@ 0x34
 80027a8:	9b04      	ldr	r3, [sp, #16]
 80027aa:	463e      	mov	r6, r7
 80027ac:	2500      	movs	r5, #0
 80027ae:	e72c      	b.n	800260a <_dtoa_r+0x73a>
 80027b0:	9d09      	ldr	r5, [sp, #36]	@ 0x24
 80027b2:	9c0b      	ldr	r4, [sp, #44]	@ 0x2c
 80027b4:	463e      	mov	r6, r7
 80027b6:	e731      	b.n	800261c <_dtoa_r+0x74c>
 80027b8:	f8dd a004 	ldr.w	sl, [sp, #4]
 80027bc:	e758      	b.n	8002670 <_dtoa_r+0x7a0>
 80027be:	9a09      	ldr	r2, [sp, #36]	@ 0x24
 80027c0:	9901      	ldr	r1, [sp, #4]
 80027c2:	e757      	b.n	8002674 <_dtoa_r+0x7a4>
 80027c4:	f8cd a004 	str.w	sl, [sp, #4]
 80027c8:	e758      	b.n	800267c <_dtoa_r+0x7ac>
 80027ca:	f04f 0a00 	mov.w	sl, #0
 80027ce:	e780      	b.n	80026d2 <_dtoa_r+0x802>
 80027d0:	469a      	mov	sl, r3
 80027d2:	e77e      	b.n	80026d2 <_dtoa_r+0x802>
 80027d4:	f04f 0a00 	mov.w	sl, #0
 80027d8:	e77f      	b.n	80026da <_dtoa_r+0x80a>
 80027da:	281c      	cmp	r0, #28
 80027dc:	d092      	beq.n	8002704 <_dtoa_r+0x834>
 80027de:	f1c0 0020 	rsb	r0, r0, #32
 80027e2:	301c      	adds	r0, #28
 80027e4:	9b08      	ldr	r3, [sp, #32]
 80027e6:	4407      	add	r7, r0
 80027e8:	4406      	add	r6, r0
 80027ea:	e789      	b.n	8002700 <_dtoa_r+0x830>
 80027ec:	9b04      	ldr	r3, [sp, #16]
 80027ee:	f8cd 8008 	str.w	r8, [sp, #8]
 80027f2:	2b00      	cmp	r3, #0
 80027f4:	dc24      	bgt.n	8002840 <_dtoa_r+0x970>
 80027f6:	9305      	str	r3, [sp, #20]
 80027f8:	9b0a      	ldr	r3, [sp, #40]	@ 0x28
 80027fa:	2b02      	cmp	r3, #2
 80027fc:	dd22      	ble.n	8002844 <_dtoa_r+0x974>
 80027fe:	9b05      	ldr	r3, [sp, #20]
 8002800:	2b00      	cmp	r3, #0
 8002802:	f47f ad88 	bne.w	8002316 <_dtoa_r+0x446>
 8002806:	4629      	mov	r1, r5
 8002808:	9b05      	ldr	r3, [sp, #20]
 800280a:	2205      	movs	r2, #5
 800280c:	4648      	mov	r0, r9
 800280e:	f000 fa9b 	bl	8002d48 <__multadd>
 8002812:	4601      	mov	r1, r0
 8002814:	4605      	mov	r5, r0
 8002816:	9801      	ldr	r0, [sp, #4]
 8002818:	f000 fd0c 	bl	8003234 <__mcmp>
 800281c:	2800      	cmp	r0, #0
 800281e:	f77f ad7a 	ble.w	8002316 <_dtoa_r+0x446>
 8002822:	9e00      	ldr	r6, [sp, #0]
 8002824:	2331      	movs	r3, #49	@ 0x31
 8002826:	f806 3b01 	strb.w	r3, [r6], #1
 800282a:	9b02      	ldr	r3, [sp, #8]
 800282c:	3301      	adds	r3, #1
 800282e:	9302      	str	r3, [sp, #8]
 8002830:	e575      	b.n	800231e <_dtoa_r+0x44e>
 8002832:	4635      	mov	r5, r6
 8002834:	462c      	mov	r4, r5
 8002836:	e7f4      	b.n	8002822 <_dtoa_r+0x952>
 8002838:	9d04      	ldr	r5, [sp, #16]
 800283a:	f8cd 8008 	str.w	r8, [sp, #8]
 800283e:	e7f9      	b.n	8002834 <_dtoa_r+0x964>
 8002840:	9b04      	ldr	r3, [sp, #16]
 8002842:	9305      	str	r3, [sp, #20]
 8002844:	9b0b      	ldr	r3, [sp, #44]	@ 0x2c
 8002846:	2b00      	cmp	r3, #0
 8002848:	f000 80fd 	beq.w	8002a46 <_dtoa_r+0xb76>
 800284c:	2e00      	cmp	r6, #0
 800284e:	dd05      	ble.n	800285c <_dtoa_r+0x98c>
 8002850:	4621      	mov	r1, r4
 8002852:	4632      	mov	r2, r6
 8002854:	4648      	mov	r0, r9
 8002856:	f000 fc7b 	bl	8003150 <__lshift>
 800285a:	4604      	mov	r4, r0
 800285c:	f1ba 0f00 	cmp.w	sl, #0
 8002860:	d058      	beq.n	8002914 <_dtoa_r+0xa44>
 8002862:	6861      	ldr	r1, [r4, #4]
 8002864:	4648      	mov	r0, r9
 8002866:	f000 fa0f 	bl	8002c88 <_Balloc>
 800286a:	4606      	mov	r6, r0
 800286c:	b928      	cbnz	r0, 800287a <_dtoa_r+0x9aa>
 800286e:	4b81      	ldr	r3, [pc, #516]	@ (8002a74 <_dtoa_r+0xba4>)
 8002870:	4602      	mov	r2, r0
 8002872:	f240 21ef 	movw	r1, #751	@ 0x2ef
 8002876:	f7ff bb42 	b.w	8001efe <_dtoa_r+0x2e>
 800287a:	6922      	ldr	r2, [r4, #16]
 800287c:	3202      	adds	r2, #2
 800287e:	0092      	lsls	r2, r2, #2
 8002880:	f104 010c 	add.w	r1, r4, #12
 8002884:	300c      	adds	r0, #12
 8002886:	f001 ffbf 	bl	8004808 <memcpy>
 800288a:	2201      	movs	r2, #1
 800288c:	4631      	mov	r1, r6
 800288e:	4648      	mov	r0, r9
 8002890:	f000 fc5e 	bl	8003150 <__lshift>
 8002894:	4607      	mov	r7, r0
 8002896:	9b00      	ldr	r3, [sp, #0]
 8002898:	9a00      	ldr	r2, [sp, #0]
 800289a:	f103 0801 	add.w	r8, r3, #1
 800289e:	9b05      	ldr	r3, [sp, #20]
 80028a0:	4413      	add	r3, r2
 80028a2:	9306      	str	r3, [sp, #24]
 80028a4:	9b0e      	ldr	r3, [sp, #56]	@ 0x38
 80028a6:	f003 0301 	and.w	r3, r3, #1
 80028aa:	9308      	str	r3, [sp, #32]
 80028ac:	4629      	mov	r1, r5
 80028ae:	9801      	ldr	r0, [sp, #4]
 80028b0:	f7ff fa84 	bl	8001dbc <quorem>
 80028b4:	4621      	mov	r1, r4
 80028b6:	9004      	str	r0, [sp, #16]
 80028b8:	f100 0b30 	add.w	fp, r0, #48	@ 0x30
 80028bc:	9801      	ldr	r0, [sp, #4]
 80028be:	f000 fcb9 	bl	8003234 <__mcmp>
 80028c2:	463a      	mov	r2, r7
 80028c4:	9005      	str	r0, [sp, #20]
 80028c6:	4629      	mov	r1, r5
 80028c8:	4648      	mov	r0, r9
 80028ca:	f000 fccf 	bl	800326c <__mdiff>
 80028ce:	68c2      	ldr	r2, [r0, #12]
 80028d0:	f108 3aff 	add.w	sl, r8, #4294967295
 80028d4:	4606      	mov	r6, r0
 80028d6:	b9fa      	cbnz	r2, 8002918 <_dtoa_r+0xa48>
 80028d8:	4601      	mov	r1, r0
 80028da:	9801      	ldr	r0, [sp, #4]
 80028dc:	f000 fcaa 	bl	8003234 <__mcmp>
 80028e0:	4602      	mov	r2, r0
 80028e2:	4631      	mov	r1, r6
 80028e4:	4648      	mov	r0, r9
 80028e6:	9209      	str	r2, [sp, #36]	@ 0x24
 80028e8:	f000 fa0c 	bl	8002d04 <_Bfree>
 80028ec:	e9dd 2309 	ldrd	r2, r3, [sp, #36]	@ 0x24
 80028f0:	ea42 0103 	orr.w	r1, r2, r3
 80028f4:	9b08      	ldr	r3, [sp, #32]
 80028f6:	4319      	orrs	r1, r3
 80028f8:	4646      	mov	r6, r8
 80028fa:	d10f      	bne.n	800291c <_dtoa_r+0xa4c>
 80028fc:	f1bb 0f39 	cmp.w	fp, #57	@ 0x39
 8002900:	d028      	beq.n	8002954 <_dtoa_r+0xa84>
 8002902:	9b05      	ldr	r3, [sp, #20]
 8002904:	2b00      	cmp	r3, #0
 8002906:	dd02      	ble.n	800290e <_dtoa_r+0xa3e>
 8002908:	9b04      	ldr	r3, [sp, #16]
 800290a:	f103 0b31 	add.w	fp, r3, #49	@ 0x31
 800290e:	f88a b000 	strb.w	fp, [sl]
 8002912:	e506      	b.n	8002322 <_dtoa_r+0x452>
 8002914:	4627      	mov	r7, r4
 8002916:	e7be      	b.n	8002896 <_dtoa_r+0x9c6>
 8002918:	2201      	movs	r2, #1
 800291a:	e7e2      	b.n	80028e2 <_dtoa_r+0xa12>
 800291c:	9b05      	ldr	r3, [sp, #20]
 800291e:	2b00      	cmp	r3, #0
 8002920:	db04      	blt.n	800292c <_dtoa_r+0xa5c>
 8002922:	990a      	ldr	r1, [sp, #40]	@ 0x28
 8002924:	430b      	orrs	r3, r1
 8002926:	9908      	ldr	r1, [sp, #32]
 8002928:	430b      	orrs	r3, r1
 800292a:	d120      	bne.n	800296e <_dtoa_r+0xa9e>
 800292c:	2a00      	cmp	r2, #0
 800292e:	ddee      	ble.n	800290e <_dtoa_r+0xa3e>
 8002930:	9901      	ldr	r1, [sp, #4]
 8002932:	2201      	movs	r2, #1
 8002934:	4648      	mov	r0, r9
 8002936:	f000 fc0b 	bl	8003150 <__lshift>
 800293a:	4629      	mov	r1, r5
 800293c:	9001      	str	r0, [sp, #4]
 800293e:	f000 fc79 	bl	8003234 <__mcmp>
 8002942:	2800      	cmp	r0, #0
 8002944:	dc03      	bgt.n	800294e <_dtoa_r+0xa7e>
 8002946:	d1e2      	bne.n	800290e <_dtoa_r+0xa3e>
 8002948:	f01b 0f01 	tst.w	fp, #1
 800294c:	d0df      	beq.n	800290e <_dtoa_r+0xa3e>
 800294e:	f1bb 0f39 	cmp.w	fp, #57	@ 0x39
 8002952:	d1d9      	bne.n	8002908 <_dtoa_r+0xa38>
 8002954:	2339      	movs	r3, #57	@ 0x39
 8002956:	f88a 3000 	strb.w	r3, [sl]
 800295a:	4633      	mov	r3, r6
 800295c:	461e      	mov	r6, r3
 800295e:	3b01      	subs	r3, #1
 8002960:	f816 2c01 	ldrb.w	r2, [r6, #-1]
 8002964:	2a39      	cmp	r2, #57	@ 0x39
 8002966:	d052      	beq.n	8002a0e <_dtoa_r+0xb3e>
 8002968:	3201      	adds	r2, #1
 800296a:	701a      	strb	r2, [r3, #0]
 800296c:	e4d9      	b.n	8002322 <_dtoa_r+0x452>
 800296e:	2a00      	cmp	r2, #0
 8002970:	dd07      	ble.n	8002982 <_dtoa_r+0xab2>
 8002972:	f1bb 0f39 	cmp.w	fp, #57	@ 0x39
 8002976:	d0ed      	beq.n	8002954 <_dtoa_r+0xa84>
 8002978:	f10b 0301 	add.w	r3, fp, #1
 800297c:	f88a 3000 	strb.w	r3, [sl]
 8002980:	e4cf      	b.n	8002322 <_dtoa_r+0x452>
 8002982:	9b06      	ldr	r3, [sp, #24]
 8002984:	f808 bc01 	strb.w	fp, [r8, #-1]
 8002988:	4543      	cmp	r3, r8
 800298a:	d02a      	beq.n	80029e2 <_dtoa_r+0xb12>
 800298c:	9901      	ldr	r1, [sp, #4]
 800298e:	2300      	movs	r3, #0
 8002990:	220a      	movs	r2, #10
 8002992:	4648      	mov	r0, r9
 8002994:	f000 f9d8 	bl	8002d48 <__multadd>
 8002998:	42bc      	cmp	r4, r7
 800299a:	9001      	str	r0, [sp, #4]
 800299c:	f04f 0300 	mov.w	r3, #0
 80029a0:	f04f 020a 	mov.w	r2, #10
 80029a4:	4621      	mov	r1, r4
 80029a6:	4648      	mov	r0, r9
 80029a8:	d106      	bne.n	80029b8 <_dtoa_r+0xae8>
 80029aa:	f000 f9cd 	bl	8002d48 <__multadd>
 80029ae:	4604      	mov	r4, r0
 80029b0:	4607      	mov	r7, r0
 80029b2:	f108 0801 	add.w	r8, r8, #1
 80029b6:	e779      	b.n	80028ac <_dtoa_r+0x9dc>
 80029b8:	f000 f9c6 	bl	8002d48 <__multadd>
 80029bc:	4639      	mov	r1, r7
 80029be:	4604      	mov	r4, r0
 80029c0:	2300      	movs	r3, #0
 80029c2:	220a      	movs	r2, #10
 80029c4:	4648      	mov	r0, r9
 80029c6:	f000 f9bf 	bl	8002d48 <__multadd>
 80029ca:	4607      	mov	r7, r0
 80029cc:	e7f1      	b.n	80029b2 <_dtoa_r+0xae2>
 80029ce:	9b05      	ldr	r3, [sp, #20]
 80029d0:	1e5e      	subs	r6, r3, #1
 80029d2:	2b00      	cmp	r3, #0
 80029d4:	9b00      	ldr	r3, [sp, #0]
 80029d6:	bfd8      	it	le
 80029d8:	2600      	movle	r6, #0
 80029da:	1c5a      	adds	r2, r3, #1
 80029dc:	4627      	mov	r7, r4
 80029de:	4416      	add	r6, r2
 80029e0:	2400      	movs	r4, #0
 80029e2:	9901      	ldr	r1, [sp, #4]
 80029e4:	2201      	movs	r2, #1
 80029e6:	4648      	mov	r0, r9
 80029e8:	f000 fbb2 	bl	8003150 <__lshift>
 80029ec:	4629      	mov	r1, r5
 80029ee:	9001      	str	r0, [sp, #4]
 80029f0:	f000 fc20 	bl	8003234 <__mcmp>
 80029f4:	2800      	cmp	r0, #0
 80029f6:	dcb0      	bgt.n	800295a <_dtoa_r+0xa8a>
 80029f8:	d102      	bne.n	8002a00 <_dtoa_r+0xb30>
 80029fa:	f01b 0f01 	tst.w	fp, #1
 80029fe:	d1ac      	bne.n	800295a <_dtoa_r+0xa8a>
 8002a00:	4633      	mov	r3, r6
 8002a02:	461e      	mov	r6, r3
 8002a04:	f813 2d01 	ldrb.w	r2, [r3, #-1]!
 8002a08:	2a30      	cmp	r2, #48	@ 0x30
 8002a0a:	d0fa      	beq.n	8002a02 <_dtoa_r+0xb32>
 8002a0c:	e489      	b.n	8002322 <_dtoa_r+0x452>
 8002a0e:	9a00      	ldr	r2, [sp, #0]
 8002a10:	429a      	cmp	r2, r3
 8002a12:	d1a3      	bne.n	800295c <_dtoa_r+0xa8c>
 8002a14:	9b02      	ldr	r3, [sp, #8]
 8002a16:	3301      	adds	r3, #1
 8002a18:	9302      	str	r3, [sp, #8]
 8002a1a:	2331      	movs	r3, #49	@ 0x31
 8002a1c:	7013      	strb	r3, [r2, #0]
 8002a1e:	e480      	b.n	8002322 <_dtoa_r+0x452>
 8002a20:	9b23      	ldr	r3, [sp, #140]	@ 0x8c
 8002a22:	2b00      	cmp	r3, #0
 8002a24:	f47f aa9f 	bne.w	8001f66 <_dtoa_r+0x96>
 8002a28:	4b13      	ldr	r3, [pc, #76]	@ (8002a78 <_dtoa_r+0xba8>)
 8002a2a:	f7ff babe 	b.w	8001faa <_dtoa_r+0xda>
 8002a2e:	9b0a      	ldr	r3, [sp, #40]	@ 0x28
 8002a30:	2b01      	cmp	r3, #1
 8002a32:	f77f ae36 	ble.w	80026a2 <_dtoa_r+0x7d2>
 8002a36:	f8dd a034 	ldr.w	sl, [sp, #52]	@ 0x34
 8002a3a:	2001      	movs	r0, #1
 8002a3c:	e655      	b.n	80026ea <_dtoa_r+0x81a>
 8002a3e:	9b05      	ldr	r3, [sp, #20]
 8002a40:	2b00      	cmp	r3, #0
 8002a42:	f77f aed9 	ble.w	80027f8 <_dtoa_r+0x928>
 8002a46:	9e00      	ldr	r6, [sp, #0]
 8002a48:	9801      	ldr	r0, [sp, #4]
 8002a4a:	4629      	mov	r1, r5
 8002a4c:	f7ff f9b6 	bl	8001dbc <quorem>
 8002a50:	f100 0b30 	add.w	fp, r0, #48	@ 0x30
 8002a54:	9b00      	ldr	r3, [sp, #0]
 8002a56:	f806 bb01 	strb.w	fp, [r6], #1
 8002a5a:	1af2      	subs	r2, r6, r3
 8002a5c:	9b05      	ldr	r3, [sp, #20]
 8002a5e:	4293      	cmp	r3, r2
 8002a60:	ddb5      	ble.n	80029ce <_dtoa_r+0xafe>
 8002a62:	9901      	ldr	r1, [sp, #4]
 8002a64:	2300      	movs	r3, #0
 8002a66:	220a      	movs	r2, #10
 8002a68:	4648      	mov	r0, r9
 8002a6a:	f000 f96d 	bl	8002d48 <__multadd>
 8002a6e:	9001      	str	r0, [sp, #4]
 8002a70:	e7ea      	b.n	8002a48 <_dtoa_r+0xb78>
 8002a72:	bf00      	nop
 8002a74:	08004c2b 			@ <UNDEFINED> instruction: 08004c2b
 8002a78:	08004bae 			@ <UNDEFINED> instruction: 08004bae

Disassembly of section .text._free_r:

08002a7c <_free_r>:
 8002a7c:	b537      	push	{r0, r1, r2, r4, r5, lr}
 8002a7e:	2900      	cmp	r1, #0
 8002a80:	d044      	beq.n	8002b0c <_free_r+0x90>
 8002a82:	f851 3c04 	ldr.w	r3, [r1, #-4]
 8002a86:	9001      	str	r0, [sp, #4]
 8002a88:	2b00      	cmp	r3, #0
 8002a8a:	f1a1 0404 	sub.w	r4, r1, #4
 8002a8e:	bfb8      	it	lt
 8002a90:	18e4      	addlt	r4, r4, r3
 8002a92:	f000 f8ed 	bl	8002c70 <__malloc_lock>
 8002a96:	4a1e      	ldr	r2, [pc, #120]	@ (8002b10 <_free_r+0x94>)
 8002a98:	9801      	ldr	r0, [sp, #4]
 8002a9a:	6813      	ldr	r3, [r2, #0]
 8002a9c:	b933      	cbnz	r3, 8002aac <_free_r+0x30>
 8002a9e:	6063      	str	r3, [r4, #4]
 8002aa0:	6014      	str	r4, [r2, #0]
 8002aa2:	b003      	add	sp, #12
 8002aa4:	e8bd 4030 	ldmia.w	sp!, {r4, r5, lr}
 8002aa8:	f000 b8e8 	b.w	8002c7c <__malloc_unlock>
 8002aac:	42a3      	cmp	r3, r4
 8002aae:	d908      	bls.n	8002ac2 <_free_r+0x46>
 8002ab0:	6825      	ldr	r5, [r4, #0]
 8002ab2:	1961      	adds	r1, r4, r5
 8002ab4:	428b      	cmp	r3, r1
 8002ab6:	bf01      	itttt	eq
 8002ab8:	6819      	ldreq	r1, [r3, #0]
 8002aba:	685b      	ldreq	r3, [r3, #4]
 8002abc:	1949      	addeq	r1, r1, r5
 8002abe:	6021      	streq	r1, [r4, #0]
 8002ac0:	e7ed      	b.n	8002a9e <_free_r+0x22>
 8002ac2:	461a      	mov	r2, r3
 8002ac4:	685b      	ldr	r3, [r3, #4]
 8002ac6:	b10b      	cbz	r3, 8002acc <_free_r+0x50>
 8002ac8:	42a3      	cmp	r3, r4
 8002aca:	d9fa      	bls.n	8002ac2 <_free_r+0x46>
 8002acc:	6811      	ldr	r1, [r2, #0]
 8002ace:	1855      	adds	r5, r2, r1
 8002ad0:	42a5      	cmp	r5, r4
 8002ad2:	d10b      	bne.n	8002aec <_free_r+0x70>
 8002ad4:	6824      	ldr	r4, [r4, #0]
 8002ad6:	4421      	add	r1, r4
 8002ad8:	1854      	adds	r4, r2, r1
 8002ada:	42a3      	cmp	r3, r4
 8002adc:	6011      	str	r1, [r2, #0]
 8002ade:	d1e0      	bne.n	8002aa2 <_free_r+0x26>
 8002ae0:	681c      	ldr	r4, [r3, #0]
 8002ae2:	685b      	ldr	r3, [r3, #4]
 8002ae4:	6053      	str	r3, [r2, #4]
 8002ae6:	440c      	add	r4, r1
 8002ae8:	6014      	str	r4, [r2, #0]
 8002aea:	e7da      	b.n	8002aa2 <_free_r+0x26>
 8002aec:	d902      	bls.n	8002af4 <_free_r+0x78>
 8002aee:	230c      	movs	r3, #12
 8002af0:	6003      	str	r3, [r0, #0]
 8002af2:	e7d6      	b.n	8002aa2 <_free_r+0x26>
 8002af4:	6825      	ldr	r5, [r4, #0]
 8002af6:	1961      	adds	r1, r4, r5
 8002af8:	428b      	cmp	r3, r1
 8002afa:	bf04      	itt	eq
 8002afc:	6819      	ldreq	r1, [r3, #0]
 8002afe:	685b      	ldreq	r3, [r3, #4]
 8002b00:	6063      	str	r3, [r4, #4]
 8002b02:	bf04      	itt	eq
 8002b04:	1949      	addeq	r1, r1, r5
 8002b06:	6021      	streq	r1, [r4, #0]
 8002b08:	6054      	str	r4, [r2, #4]
 8002b0a:	e7ca      	b.n	8002aa2 <_free_r+0x26>
 8002b0c:	b003      	add	sp, #12
 8002b0e:	bd30      	pop	{r4, r5, pc}
 8002b10:	200001dc 	ldrdcs	r0, [r0], -ip

Disassembly of section .text.malloc:

08002b14 <malloc>:
 8002b14:	4b02      	ldr	r3, [pc, #8]	@ (8002b20 <malloc+0xc>)
 8002b16:	4601      	mov	r1, r0
 8002b18:	6818      	ldr	r0, [r3, #0]
 8002b1a:	f000 b82d 	b.w	8002b78 <_malloc_r>
 8002b1e:	bf00      	nop
 8002b20:	20000004 			@ <UNDEFINED> instruction: 20000004

Disassembly of section .text.free:

08002b24 <free>:
 8002b24:	4b02      	ldr	r3, [pc, #8]	@ (8002b30 <free+0xc>)
 8002b26:	4601      	mov	r1, r0
 8002b28:	6818      	ldr	r0, [r3, #0]
 8002b2a:	f7ff bfa7 	b.w	8002a7c <_free_r>
 8002b2e:	bf00      	nop
 8002b30:	20000004 			@ <UNDEFINED> instruction: 20000004

Disassembly of section .text.sbrk_aligned:

08002b34 <sbrk_aligned>:
 8002b34:	b570      	push	{r4, r5, r6, lr}
 8002b36:	4c0f      	ldr	r4, [pc, #60]	@ (8002b74 <sbrk_aligned+0x40>)
 8002b38:	460e      	mov	r6, r1
 8002b3a:	6821      	ldr	r1, [r4, #0]
 8002b3c:	4605      	mov	r5, r0
 8002b3e:	b911      	cbnz	r1, 8002b46 <sbrk_aligned+0x12>
 8002b40:	f001 fe40 	bl	80047c4 <_sbrk_r>
 8002b44:	6020      	str	r0, [r4, #0]
 8002b46:	4631      	mov	r1, r6
 8002b48:	4628      	mov	r0, r5
 8002b4a:	f001 fe3b 	bl	80047c4 <_sbrk_r>
 8002b4e:	1c43      	adds	r3, r0, #1
 8002b50:	d103      	bne.n	8002b5a <sbrk_aligned+0x26>
 8002b52:	f04f 34ff 	mov.w	r4, #4294967295
 8002b56:	4620      	mov	r0, r4
 8002b58:	bd70      	pop	{r4, r5, r6, pc}
 8002b5a:	1cc4      	adds	r4, r0, #3
 8002b5c:	f024 0403 	bic.w	r4, r4, #3
 8002b60:	42a0      	cmp	r0, r4
 8002b62:	d0f8      	beq.n	8002b56 <sbrk_aligned+0x22>
 8002b64:	1a21      	subs	r1, r4, r0
 8002b66:	4628      	mov	r0, r5
 8002b68:	f001 fe2c 	bl	80047c4 <_sbrk_r>
 8002b6c:	3001      	adds	r0, #1
 8002b6e:	d1f2      	bne.n	8002b56 <sbrk_aligned+0x22>
 8002b70:	e7ef      	b.n	8002b52 <sbrk_aligned+0x1e>
 8002b72:	bf00      	nop
 8002b74:	200001d8 	ldrdcs	r0, [r0], -r8

Disassembly of section .text._malloc_r:

08002b78 <_malloc_r>:
 8002b78:	e92d 43f8 	stmdb	sp!, {r3, r4, r5, r6, r7, r8, r9, lr}
 8002b7c:	1ccd      	adds	r5, r1, #3
 8002b7e:	f025 0503 	bic.w	r5, r5, #3
 8002b82:	3508      	adds	r5, #8
 8002b84:	2d0c      	cmp	r5, #12
 8002b86:	bf38      	it	cc
 8002b88:	250c      	movcc	r5, #12
 8002b8a:	2d00      	cmp	r5, #0
 8002b8c:	4606      	mov	r6, r0
 8002b8e:	db01      	blt.n	8002b94 <_malloc_r+0x1c>
 8002b90:	42a9      	cmp	r1, r5
 8002b92:	d904      	bls.n	8002b9e <_malloc_r+0x26>
 8002b94:	230c      	movs	r3, #12
 8002b96:	6033      	str	r3, [r6, #0]
 8002b98:	2000      	movs	r0, #0
 8002b9a:	e8bd 83f8 	ldmia.w	sp!, {r3, r4, r5, r6, r7, r8, r9, pc}
 8002b9e:	4f33      	ldr	r7, [pc, #204]	@ (8002c6c <_malloc_r+0xf4>)
 8002ba0:	f000 f866 	bl	8002c70 <__malloc_lock>
 8002ba4:	683b      	ldr	r3, [r7, #0]
 8002ba6:	461c      	mov	r4, r3
 8002ba8:	bb3c      	cbnz	r4, 8002bfa <_malloc_r+0x82>
 8002baa:	4629      	mov	r1, r5
 8002bac:	4630      	mov	r0, r6
 8002bae:	f7ff ffc1 	bl	8002b34 <sbrk_aligned>
 8002bb2:	1c43      	adds	r3, r0, #1
 8002bb4:	4604      	mov	r4, r0
 8002bb6:	d156      	bne.n	8002c66 <_malloc_r+0xee>
 8002bb8:	683c      	ldr	r4, [r7, #0]
 8002bba:	46a0      	mov	r8, r4
 8002bbc:	f1b8 0f00 	cmp.w	r8, #0
 8002bc0:	d140      	bne.n	8002c44 <_malloc_r+0xcc>
 8002bc2:	2c00      	cmp	r4, #0
 8002bc4:	d049      	beq.n	8002c5a <_malloc_r+0xe2>
 8002bc6:	6823      	ldr	r3, [r4, #0]
 8002bc8:	4641      	mov	r1, r8
 8002bca:	4630      	mov	r0, r6
 8002bcc:	eb04 0903 	add.w	r9, r4, r3
 8002bd0:	f001 fdf8 	bl	80047c4 <_sbrk_r>
 8002bd4:	4581      	cmp	r9, r0
 8002bd6:	d140      	bne.n	8002c5a <_malloc_r+0xe2>
 8002bd8:	6821      	ldr	r1, [r4, #0]
 8002bda:	1a6d      	subs	r5, r5, r1
 8002bdc:	4629      	mov	r1, r5
 8002bde:	4630      	mov	r0, r6
 8002be0:	f7ff ffa8 	bl	8002b34 <sbrk_aligned>
 8002be4:	3001      	adds	r0, #1
 8002be6:	d038      	beq.n	8002c5a <_malloc_r+0xe2>
 8002be8:	6823      	ldr	r3, [r4, #0]
 8002bea:	442b      	add	r3, r5
 8002bec:	6023      	str	r3, [r4, #0]
 8002bee:	683b      	ldr	r3, [r7, #0]
 8002bf0:	685a      	ldr	r2, [r3, #4]
 8002bf2:	bb5a      	cbnz	r2, 8002c4c <_malloc_r+0xd4>
 8002bf4:	f8c7 8000 	str.w	r8, [r7]
 8002bf8:	e00e      	b.n	8002c18 <_malloc_r+0xa0>
 8002bfa:	6822      	ldr	r2, [r4, #0]
 8002bfc:	1b52      	subs	r2, r2, r5
 8002bfe:	d41e      	bmi.n	8002c3e <_malloc_r+0xc6>
 8002c00:	2a0b      	cmp	r2, #11
 8002c02:	d916      	bls.n	8002c32 <_malloc_r+0xba>
 8002c04:	1961      	adds	r1, r4, r5
 8002c06:	42a3      	cmp	r3, r4
 8002c08:	6025      	str	r5, [r4, #0]
 8002c0a:	bf18      	it	ne
 8002c0c:	6059      	strne	r1, [r3, #4]
 8002c0e:	6863      	ldr	r3, [r4, #4]
 8002c10:	bf08      	it	eq
 8002c12:	6039      	streq	r1, [r7, #0]
 8002c14:	5162      	str	r2, [r4, r5]
 8002c16:	604b      	str	r3, [r1, #4]
 8002c18:	4630      	mov	r0, r6
 8002c1a:	f000 f82f 	bl	8002c7c <__malloc_unlock>
 8002c1e:	f104 000b 	add.w	r0, r4, #11
 8002c22:	1d23      	adds	r3, r4, #4
 8002c24:	f020 0007 	bic.w	r0, r0, #7
 8002c28:	1ac2      	subs	r2, r0, r3
 8002c2a:	bf1c      	itt	ne
 8002c2c:	1a1b      	subne	r3, r3, r0
 8002c2e:	50a3      	strne	r3, [r4, r2]
 8002c30:	e7b3      	b.n	8002b9a <_malloc_r+0x22>
 8002c32:	6862      	ldr	r2, [r4, #4]
 8002c34:	42a3      	cmp	r3, r4
 8002c36:	bf0c      	ite	eq
 8002c38:	603a      	streq	r2, [r7, #0]
 8002c3a:	605a      	strne	r2, [r3, #4]
 8002c3c:	e7ec      	b.n	8002c18 <_malloc_r+0xa0>
 8002c3e:	4623      	mov	r3, r4
 8002c40:	6864      	ldr	r4, [r4, #4]
 8002c42:	e7b1      	b.n	8002ba8 <_malloc_r+0x30>
 8002c44:	4644      	mov	r4, r8
 8002c46:	f8d8 8004 	ldr.w	r8, [r8, #4]
 8002c4a:	e7b7      	b.n	8002bbc <_malloc_r+0x44>
 8002c4c:	461a      	mov	r2, r3
 8002c4e:	685b      	ldr	r3, [r3, #4]
 8002c50:	42a3      	cmp	r3, r4
 8002c52:	d1fb      	bne.n	8002c4c <_malloc_r+0xd4>
 8002c54:	2300      	movs	r3, #0
 8002c56:	6053      	str	r3, [r2, #4]
 8002c58:	e7de      	b.n	8002c18 <_malloc_r+0xa0>
 8002c5a:	230c      	movs	r3, #12
 8002c5c:	6033      	str	r3, [r6, #0]
 8002c5e:	4630      	mov	r0, r6
 8002c60:	f000 f80c 	bl	8002c7c <__malloc_unlock>
 8002c64:	e798      	b.n	8002b98 <_malloc_r+0x20>
 8002c66:	6005      	str	r5, [r0, #0]
 8002c68:	e7d6      	b.n	8002c18 <_malloc_r+0xa0>
 8002c6a:	bf00      	nop
 8002c6c:	200001dc 	ldrdcs	r0, [r0], -ip

Disassembly of section .text.__malloc_lock:

08002c70 <__malloc_lock>:
 8002c70:	4801      	ldr	r0, [pc, #4]	@ (8002c78 <__malloc_lock+0x8>)
 8002c72:	f7ff b89c 	b.w	8001dae <__retarget_lock_acquire_recursive>
 8002c76:	bf00      	nop
 8002c78:	200001d4 	ldrdcs	r0, [r0], -r4

Disassembly of section .text.__malloc_unlock:

08002c7c <__malloc_unlock>:
 8002c7c:	4801      	ldr	r0, [pc, #4]	@ (8002c84 <__malloc_unlock+0x8>)
 8002c7e:	f7ff b89c 	b.w	8001dba <__retarget_lock_release_recursive>
 8002c82:	bf00      	nop
 8002c84:	200001d4 	ldrdcs	r0, [r0], -r4

Disassembly of section .text._Balloc:

08002c88 <_Balloc>:
 8002c88:	b570      	push	{r4, r5, r6, lr}
 8002c8a:	69c4      	ldr	r4, [r0, #28]
 8002c8c:	4605      	mov	r5, r0
 8002c8e:	460e      	mov	r6, r1
 8002c90:	b984      	cbnz	r4, 8002cb4 <_Balloc+0x2c>
 8002c92:	2010      	movs	r0, #16
 8002c94:	f7ff ff3e 	bl	8002b14 <malloc>
 8002c98:	4604      	mov	r4, r0
 8002c9a:	61e8      	str	r0, [r5, #28]
 8002c9c:	b928      	cbnz	r0, 8002caa <_Balloc+0x22>
 8002c9e:	4602      	mov	r2, r0
 8002ca0:	4b16      	ldr	r3, [pc, #88]	@ (8002cfc <_Balloc+0x74>)
 8002ca2:	4817      	ldr	r0, [pc, #92]	@ (8002d00 <_Balloc+0x78>)
 8002ca4:	216b      	movs	r1, #107	@ 0x6b
 8002ca6:	f001 fdbd 	bl	8004824 <__assert_func>
 8002caa:	2300      	movs	r3, #0
 8002cac:	e9c0 3301 	strd	r3, r3, [r0, #4]
 8002cb0:	6003      	str	r3, [r0, #0]
 8002cb2:	60c3      	str	r3, [r0, #12]
 8002cb4:	68e3      	ldr	r3, [r4, #12]
 8002cb6:	b953      	cbnz	r3, 8002cce <_Balloc+0x46>
 8002cb8:	2221      	movs	r2, #33	@ 0x21
 8002cba:	2104      	movs	r1, #4
 8002cbc:	4628      	mov	r0, r5
 8002cbe:	f001 fdd4 	bl	800486a <_calloc_r>
 8002cc2:	69eb      	ldr	r3, [r5, #28]
 8002cc4:	60e0      	str	r0, [r4, #12]
 8002cc6:	68db      	ldr	r3, [r3, #12]
 8002cc8:	b90b      	cbnz	r3, 8002cce <_Balloc+0x46>
 8002cca:	2000      	movs	r0, #0
 8002ccc:	bd70      	pop	{r4, r5, r6, pc}
 8002cce:	f853 0026 	ldr.w	r0, [r3, r6, lsl #2]
 8002cd2:	b130      	cbz	r0, 8002ce2 <_Balloc+0x5a>
 8002cd4:	6802      	ldr	r2, [r0, #0]
 8002cd6:	f843 2026 	str.w	r2, [r3, r6, lsl #2]
 8002cda:	2300      	movs	r3, #0
 8002cdc:	e9c0 3303 	strd	r3, r3, [r0, #12]
 8002ce0:	e7f4      	b.n	8002ccc <_Balloc+0x44>
 8002ce2:	2101      	movs	r1, #1
 8002ce4:	fa01 f406 	lsl.w	r4, r1, r6
 8002ce8:	1d62      	adds	r2, r4, #5
 8002cea:	0092      	lsls	r2, r2, #2
 8002cec:	4628      	mov	r0, r5
 8002cee:	f001 fdbc 	bl	800486a <_calloc_r>
 8002cf2:	2800      	cmp	r0, #0
 8002cf4:	d0e9      	beq.n	8002cca <_Balloc+0x42>
 8002cf6:	e9c0 6401 	strd	r6, r4, [r0, #4]
 8002cfa:	e7ee      	b.n	8002cda <_Balloc+0x52>
 8002cfc:	08004bbb 			@ <UNDEFINED> instruction: 08004bbb
 8002d00:	08004c3c 			@ <UNDEFINED> instruction: 08004c3c

Disassembly of section .text._Bfree:

08002d04 <_Bfree>:
 8002d04:	b570      	push	{r4, r5, r6, lr}
 8002d06:	69c4      	ldr	r4, [r0, #28]
 8002d08:	4606      	mov	r6, r0
 8002d0a:	460d      	mov	r5, r1
 8002d0c:	b974      	cbnz	r4, 8002d2c <_Bfree+0x28>
 8002d0e:	2010      	movs	r0, #16
 8002d10:	f7ff ff00 	bl	8002b14 <malloc>
 8002d14:	4602      	mov	r2, r0
 8002d16:	61f0      	str	r0, [r6, #28]
 8002d18:	b920      	cbnz	r0, 8002d24 <_Bfree+0x20>
 8002d1a:	4b09      	ldr	r3, [pc, #36]	@ (8002d40 <_Bfree+0x3c>)
 8002d1c:	4809      	ldr	r0, [pc, #36]	@ (8002d44 <_Bfree+0x40>)
 8002d1e:	218f      	movs	r1, #143	@ 0x8f
 8002d20:	f001 fd80 	bl	8004824 <__assert_func>
 8002d24:	e9c0 4401 	strd	r4, r4, [r0, #4]
 8002d28:	6004      	str	r4, [r0, #0]
 8002d2a:	60c4      	str	r4, [r0, #12]
 8002d2c:	b13d      	cbz	r5, 8002d3e <_Bfree+0x3a>
 8002d2e:	69f3      	ldr	r3, [r6, #28]
 8002d30:	686a      	ldr	r2, [r5, #4]
 8002d32:	68db      	ldr	r3, [r3, #12]
 8002d34:	f853 1022 	ldr.w	r1, [r3, r2, lsl #2]
 8002d38:	6029      	str	r1, [r5, #0]
 8002d3a:	f843 5022 	str.w	r5, [r3, r2, lsl #2]
 8002d3e:	bd70      	pop	{r4, r5, r6, pc}
 8002d40:	08004bbb 			@ <UNDEFINED> instruction: 08004bbb
 8002d44:	08004c3c 			@ <UNDEFINED> instruction: 08004c3c

Disassembly of section .text.__multadd:

08002d48 <__multadd>:
 8002d48:	e92d 41f0 	stmdb	sp!, {r4, r5, r6, r7, r8, lr}
 8002d4c:	690d      	ldr	r5, [r1, #16]
 8002d4e:	4607      	mov	r7, r0
 8002d50:	460c      	mov	r4, r1
 8002d52:	461e      	mov	r6, r3
 8002d54:	f101 0c14 	add.w	ip, r1, #20
 8002d58:	2000      	movs	r0, #0
 8002d5a:	f8dc 3000 	ldr.w	r3, [ip]
 8002d5e:	b299      	uxth	r1, r3
 8002d60:	fb02 6101 	mla	r1, r2, r1, r6
 8002d64:	0c1e      	lsrs	r6, r3, #16
 8002d66:	0c0b      	lsrs	r3, r1, #16
 8002d68:	fb02 3306 	mla	r3, r2, r6, r3
 8002d6c:	b289      	uxth	r1, r1
 8002d6e:	3001      	adds	r0, #1
 8002d70:	eb01 4103 	add.w	r1, r1, r3, lsl #16
 8002d74:	4285      	cmp	r5, r0
 8002d76:	f84c 1b04 	str.w	r1, [ip], #4
 8002d7a:	ea4f 4613 	mov.w	r6, r3, lsr #16
 8002d7e:	dcec      	bgt.n	8002d5a <__multadd+0x12>
 8002d80:	b30e      	cbz	r6, 8002dc6 <__multadd+0x7e>
 8002d82:	68a3      	ldr	r3, [r4, #8]
 8002d84:	42ab      	cmp	r3, r5
 8002d86:	dc19      	bgt.n	8002dbc <__multadd+0x74>
 8002d88:	6861      	ldr	r1, [r4, #4]
 8002d8a:	4638      	mov	r0, r7
 8002d8c:	3101      	adds	r1, #1
 8002d8e:	f7ff ff7b 	bl	8002c88 <_Balloc>
 8002d92:	4680      	mov	r8, r0
 8002d94:	b928      	cbnz	r0, 8002da2 <__multadd+0x5a>
 8002d96:	4602      	mov	r2, r0
 8002d98:	4b0c      	ldr	r3, [pc, #48]	@ (8002dcc <__multadd+0x84>)
 8002d9a:	480d      	ldr	r0, [pc, #52]	@ (8002dd0 <__multadd+0x88>)
 8002d9c:	21ba      	movs	r1, #186	@ 0xba
 8002d9e:	f001 fd41 	bl	8004824 <__assert_func>
 8002da2:	6922      	ldr	r2, [r4, #16]
 8002da4:	3202      	adds	r2, #2
 8002da6:	f104 010c 	add.w	r1, r4, #12
 8002daa:	0092      	lsls	r2, r2, #2
 8002dac:	300c      	adds	r0, #12
 8002dae:	f001 fd2b 	bl	8004808 <memcpy>
 8002db2:	4621      	mov	r1, r4
 8002db4:	4638      	mov	r0, r7
 8002db6:	f7ff ffa5 	bl	8002d04 <_Bfree>
 8002dba:	4644      	mov	r4, r8
 8002dbc:	eb04 0385 	add.w	r3, r4, r5, lsl #2
 8002dc0:	3501      	adds	r5, #1
 8002dc2:	615e      	str	r6, [r3, #20]
 8002dc4:	6125      	str	r5, [r4, #16]
 8002dc6:	4620      	mov	r0, r4
 8002dc8:	e8bd 81f0 	ldmia.w	sp!, {r4, r5, r6, r7, r8, pc}
 8002dcc:	08004c2b 			@ <UNDEFINED> instruction: 08004c2b
 8002dd0:	08004c3c 			@ <UNDEFINED> instruction: 08004c3c

Disassembly of section .text.__s2b:

08002dd4 <__s2b>:
 8002dd4:	e92d 43f8 	stmdb	sp!, {r3, r4, r5, r6, r7, r8, r9, lr}
 8002dd8:	4688      	mov	r8, r1
 8002dda:	4614      	mov	r4, r2
 8002ddc:	461f      	mov	r7, r3
 8002dde:	2209      	movs	r2, #9
 8002de0:	3308      	adds	r3, #8
 8002de2:	4606      	mov	r6, r0
 8002de4:	fb93 f3f2 	sdiv	r3, r3, r2
 8002de8:	2100      	movs	r1, #0
 8002dea:	2201      	movs	r2, #1
 8002dec:	429a      	cmp	r2, r3
 8002dee:	db09      	blt.n	8002e04 <__s2b+0x30>
 8002df0:	4630      	mov	r0, r6
 8002df2:	f7ff ff49 	bl	8002c88 <_Balloc>
 8002df6:	b940      	cbnz	r0, 8002e0a <__s2b+0x36>
 8002df8:	4602      	mov	r2, r0
 8002dfa:	4b19      	ldr	r3, [pc, #100]	@ (8002e60 <__s2b+0x8c>)
 8002dfc:	4819      	ldr	r0, [pc, #100]	@ (8002e64 <__s2b+0x90>)
 8002dfe:	21d3      	movs	r1, #211	@ 0xd3
 8002e00:	f001 fd10 	bl	8004824 <__assert_func>
 8002e04:	0052      	lsls	r2, r2, #1
 8002e06:	3101      	adds	r1, #1
 8002e08:	e7f0      	b.n	8002dec <__s2b+0x18>
 8002e0a:	9b08      	ldr	r3, [sp, #32]
 8002e0c:	6143      	str	r3, [r0, #20]
 8002e0e:	2c09      	cmp	r4, #9
 8002e10:	f04f 0301 	mov.w	r3, #1
 8002e14:	6103      	str	r3, [r0, #16]
 8002e16:	dc08      	bgt.n	8002e2a <__s2b+0x56>
 8002e18:	f108 050a 	add.w	r5, r8, #10
 8002e1c:	2409      	movs	r4, #9
 8002e1e:	1b64      	subs	r4, r4, r5
 8002e20:	192b      	adds	r3, r5, r4
 8002e22:	429f      	cmp	r7, r3
 8002e24:	dc12      	bgt.n	8002e4c <__s2b+0x78>
 8002e26:	e8bd 83f8 	ldmia.w	sp!, {r3, r4, r5, r6, r7, r8, r9, pc}
 8002e2a:	f108 0509 	add.w	r5, r8, #9
 8002e2e:	46a9      	mov	r9, r5
 8002e30:	44a0      	add	r8, r4
 8002e32:	f819 3b01 	ldrb.w	r3, [r9], #1
 8002e36:	4601      	mov	r1, r0
 8002e38:	3b30      	subs	r3, #48	@ 0x30
 8002e3a:	220a      	movs	r2, #10
 8002e3c:	4630      	mov	r0, r6
 8002e3e:	f7ff ff83 	bl	8002d48 <__multadd>
 8002e42:	45c1      	cmp	r9, r8
 8002e44:	d1f5      	bne.n	8002e32 <__s2b+0x5e>
 8002e46:	4425      	add	r5, r4
 8002e48:	3d08      	subs	r5, #8
 8002e4a:	e7e8      	b.n	8002e1e <__s2b+0x4a>
 8002e4c:	f815 3b01 	ldrb.w	r3, [r5], #1
 8002e50:	4601      	mov	r1, r0
 8002e52:	3b30      	subs	r3, #48	@ 0x30
 8002e54:	220a      	movs	r2, #10
 8002e56:	4630      	mov	r0, r6
 8002e58:	f7ff ff76 	bl	8002d48 <__multadd>
 8002e5c:	e7e0      	b.n	8002e20 <__s2b+0x4c>
 8002e5e:	bf00      	nop
 8002e60:	08004c2b 			@ <UNDEFINED> instruction: 08004c2b
 8002e64:	08004c3c 			@ <UNDEFINED> instruction: 08004c3c

Disassembly of section .text.__hi0bits:

08002e68 <__hi0bits>:
 8002e68:	f5b0 3f80 	cmp.w	r0, #65536	@ 0x10000
 8002e6c:	4603      	mov	r3, r0
 8002e6e:	bf36      	itet	cc
 8002e70:	0403      	lslcc	r3, r0, #16
 8002e72:	2000      	movcs	r0, #0
 8002e74:	2010      	movcc	r0, #16
 8002e76:	f1b3 7f80 	cmp.w	r3, #16777216	@ 0x1000000
 8002e7a:	bf3c      	itt	cc
 8002e7c:	021b      	lslcc	r3, r3, #8
 8002e7e:	3008      	addcc	r0, #8
 8002e80:	f1b3 5f80 	cmp.w	r3, #268435456	@ 0x10000000
 8002e84:	bf3c      	itt	cc
 8002e86:	011b      	lslcc	r3, r3, #4
 8002e88:	3004      	addcc	r0, #4
 8002e8a:	f1b3 4f80 	cmp.w	r3, #1073741824	@ 0x40000000
 8002e8e:	bf3c      	itt	cc
 8002e90:	009b      	lslcc	r3, r3, #2
 8002e92:	3002      	addcc	r0, #2
 8002e94:	2b00      	cmp	r3, #0
 8002e96:	db04      	blt.n	8002ea2 <__hi0bits+0x3a>
 8002e98:	005b      	lsls	r3, r3, #1
 8002e9a:	d501      	bpl.n	8002ea0 <__hi0bits+0x38>
 8002e9c:	3001      	adds	r0, #1
 8002e9e:	4770      	bx	lr
 8002ea0:	2020      	movs	r0, #32
 8002ea2:	4770      	bx	lr

Disassembly of section .text.__lo0bits:

08002ea4 <__lo0bits>:
 8002ea4:	6803      	ldr	r3, [r0, #0]
 8002ea6:	f013 0207 	ands.w	r2, r3, #7
 8002eaa:	4601      	mov	r1, r0
 8002eac:	d00b      	beq.n	8002ec6 <__lo0bits+0x22>
 8002eae:	07da      	lsls	r2, r3, #31
 8002eb0:	d422      	bmi.n	8002ef8 <__lo0bits+0x54>
 8002eb2:	0798      	lsls	r0, r3, #30
 8002eb4:	bf49      	itett	mi
 8002eb6:	085b      	lsrmi	r3, r3, #1
 8002eb8:	089b      	lsrpl	r3, r3, #2
 8002eba:	2001      	movmi	r0, #1
 8002ebc:	600b      	strmi	r3, [r1, #0]
 8002ebe:	bf5c      	itt	pl
 8002ec0:	600b      	strpl	r3, [r1, #0]
 8002ec2:	2002      	movpl	r0, #2
 8002ec4:	4770      	bx	lr
 8002ec6:	b298      	uxth	r0, r3
 8002ec8:	b9a0      	cbnz	r0, 8002ef4 <__lo0bits+0x50>
 8002eca:	0c1b      	lsrs	r3, r3, #16
 8002ecc:	2010      	movs	r0, #16
 8002ece:	b2da      	uxtb	r2, r3
 8002ed0:	b90a      	cbnz	r2, 8002ed6 <__lo0bits+0x32>
 8002ed2:	3008      	adds	r0, #8
 8002ed4:	0a1b      	lsrs	r3, r3, #8
 8002ed6:	071a      	lsls	r2, r3, #28
 8002ed8:	bf04      	itt	eq
 8002eda:	091b      	lsreq	r3, r3, #4
 8002edc:	3004      	addeq	r0, #4
 8002ede:	079a      	lsls	r2, r3, #30
 8002ee0:	bf04      	itt	eq
 8002ee2:	089b      	lsreq	r3, r3, #2
 8002ee4:	3002      	addeq	r0, #2
 8002ee6:	07da      	lsls	r2, r3, #31
 8002ee8:	d402      	bmi.n	8002ef0 <__lo0bits+0x4c>
 8002eea:	085b      	lsrs	r3, r3, #1
 8002eec:	d006      	beq.n	8002efc <__lo0bits+0x58>
 8002eee:	3001      	adds	r0, #1
 8002ef0:	600b      	str	r3, [r1, #0]
 8002ef2:	4770      	bx	lr
 8002ef4:	4610      	mov	r0, r2
 8002ef6:	e7ea      	b.n	8002ece <__lo0bits+0x2a>
 8002ef8:	2000      	movs	r0, #0
 8002efa:	4770      	bx	lr
 8002efc:	2020      	movs	r0, #32
 8002efe:	4770      	bx	lr

Disassembly of section .text.__i2b:

08002f00 <__i2b>:
 8002f00:	b510      	push	{r4, lr}
 8002f02:	460c      	mov	r4, r1
 8002f04:	2101      	movs	r1, #1
 8002f06:	f7ff febf 	bl	8002c88 <_Balloc>
 8002f0a:	4602      	mov	r2, r0
 8002f0c:	b928      	cbnz	r0, 8002f1a <__i2b+0x1a>
 8002f0e:	4b05      	ldr	r3, [pc, #20]	@ (8002f24 <__i2b+0x24>)
 8002f10:	4805      	ldr	r0, [pc, #20]	@ (8002f28 <__i2b+0x28>)
 8002f12:	f240 1145 	movw	r1, #325	@ 0x145
 8002f16:	f001 fc85 	bl	8004824 <__assert_func>
 8002f1a:	2301      	movs	r3, #1
 8002f1c:	6144      	str	r4, [r0, #20]
 8002f1e:	6103      	str	r3, [r0, #16]
 8002f20:	bd10      	pop	{r4, pc}
 8002f22:	bf00      	nop
 8002f24:	08004c2b 			@ <UNDEFINED> instruction: 08004c2b
 8002f28:	08004c3c 			@ <UNDEFINED> instruction: 08004c3c

Disassembly of section .text.__multiply:

08002f2c <__multiply>:
 8002f2c:	e92d 4ff0 	stmdb	sp!, {r4, r5, r6, r7, r8, r9, sl, fp, lr}
 8002f30:	f8d1 8010 	ldr.w	r8, [r1, #16]
 8002f34:	f8d2 9010 	ldr.w	r9, [r2, #16]
 8002f38:	45c8      	cmp	r8, r9
 8002f3a:	b085      	sub	sp, #20
 8002f3c:	460e      	mov	r6, r1
 8002f3e:	4614      	mov	r4, r2
 8002f40:	db04      	blt.n	8002f4c <__multiply+0x20>
 8002f42:	464b      	mov	r3, r9
 8002f44:	460c      	mov	r4, r1
 8002f46:	46c1      	mov	r9, r8
 8002f48:	4616      	mov	r6, r2
 8002f4a:	4698      	mov	r8, r3
 8002f4c:	68a3      	ldr	r3, [r4, #8]
 8002f4e:	6861      	ldr	r1, [r4, #4]
 8002f50:	eb09 0708 	add.w	r7, r9, r8
 8002f54:	42bb      	cmp	r3, r7
 8002f56:	bfb8      	it	lt
 8002f58:	3101      	addlt	r1, #1
 8002f5a:	f7ff fe95 	bl	8002c88 <_Balloc>
 8002f5e:	b930      	cbnz	r0, 8002f6e <__multiply+0x42>
 8002f60:	4602      	mov	r2, r0
 8002f62:	4b4b      	ldr	r3, [pc, #300]	@ (8003090 <__multiply+0x164>)
 8002f64:	484b      	ldr	r0, [pc, #300]	@ (8003094 <__multiply+0x168>)
 8002f66:	f44f 71b1 	mov.w	r1, #354	@ 0x162
 8002f6a:	f001 fc5b 	bl	8004824 <__assert_func>
 8002f6e:	f100 0514 	add.w	r5, r0, #20
 8002f72:	eb05 0b87 	add.w	fp, r5, r7, lsl #2
 8002f76:	462b      	mov	r3, r5
 8002f78:	2200      	movs	r2, #0
 8002f7a:	455b      	cmp	r3, fp
 8002f7c:	d322      	bcc.n	8002fc4 <__multiply+0x98>
 8002f7e:	f106 0114 	add.w	r1, r6, #20
 8002f82:	eb01 0388 	add.w	r3, r1, r8, lsl #2
 8002f86:	f104 0c14 	add.w	ip, r4, #20
 8002f8a:	eb0c 0c89 	add.w	ip, ip, r9, lsl #2
 8002f8e:	9302      	str	r3, [sp, #8]
 8002f90:	f104 0315 	add.w	r3, r4, #21
 8002f94:	4563      	cmp	r3, ip
 8002f96:	bf8c      	ite	hi
 8002f98:	2300      	movhi	r3, #0
 8002f9a:	2301      	movls	r3, #1
 8002f9c:	9300      	str	r3, [sp, #0]
 8002f9e:	ebac 0304 	sub.w	r3, ip, r4
 8002fa2:	3b15      	subs	r3, #21
 8002fa4:	089b      	lsrs	r3, r3, #2
 8002fa6:	9301      	str	r3, [sp, #4]
 8002fa8:	9b02      	ldr	r3, [sp, #8]
 8002faa:	9103      	str	r1, [sp, #12]
 8002fac:	428b      	cmp	r3, r1
 8002fae:	d80c      	bhi.n	8002fca <__multiply+0x9e>
 8002fb0:	2f00      	cmp	r7, #0
 8002fb2:	dd03      	ble.n	8002fbc <__multiply+0x90>
 8002fb4:	f85b 3d04 	ldr.w	r3, [fp, #-4]!
 8002fb8:	2b00      	cmp	r3, #0
 8002fba:	d067      	beq.n	800308c <__multiply+0x160>
 8002fbc:	6107      	str	r7, [r0, #16]
 8002fbe:	b005      	add	sp, #20
 8002fc0:	e8bd 8ff0 	ldmia.w	sp!, {r4, r5, r6, r7, r8, r9, sl, fp, pc}
 8002fc4:	f843 2b04 	str.w	r2, [r3], #4
 8002fc8:	e7d7      	b.n	8002f7a <__multiply+0x4e>
 8002fca:	f8b1 a000 	ldrh.w	sl, [r1]
 8002fce:	f1ba 0f00 	cmp.w	sl, #0
 8002fd2:	d028      	beq.n	8003026 <__multiply+0xfa>
 8002fd4:	f104 0814 	add.w	r8, r4, #20
 8002fd8:	46a9      	mov	r9, r5
 8002fda:	f04f 0e00 	mov.w	lr, #0
 8002fde:	f858 2b04 	ldr.w	r2, [r8], #4
 8002fe2:	f8d9 3000 	ldr.w	r3, [r9]
 8002fe6:	b296      	uxth	r6, r2
 8002fe8:	b29b      	uxth	r3, r3
 8002fea:	fb0a 3306 	mla	r3, sl, r6, r3
 8002fee:	f8d9 6000 	ldr.w	r6, [r9]
 8002ff2:	0c12      	lsrs	r2, r2, #16
 8002ff4:	0c36      	lsrs	r6, r6, #16
 8002ff6:	4473      	add	r3, lr
 8002ff8:	fb0a 6602 	mla	r6, sl, r2, r6
 8002ffc:	eb06 4613 	add.w	r6, r6, r3, lsr #16
 8003000:	b29b      	uxth	r3, r3
 8003002:	ea43 4306 	orr.w	r3, r3, r6, lsl #16
 8003006:	45c4      	cmp	ip, r8
 8003008:	f849 3b04 	str.w	r3, [r9], #4
 800300c:	ea4f 4e16 	mov.w	lr, r6, lsr #16
 8003010:	d8e5      	bhi.n	8002fde <__multiply+0xb2>
 8003012:	9a00      	ldr	r2, [sp, #0]
 8003014:	9b01      	ldr	r3, [sp, #4]
 8003016:	2a00      	cmp	r2, #0
 8003018:	ea4f 0383 	mov.w	r3, r3, lsl #2
 800301c:	bf08      	it	eq
 800301e:	2300      	moveq	r3, #0
 8003020:	442b      	add	r3, r5
 8003022:	f8c3 e004 	str.w	lr, [r3, #4]
 8003026:	9b03      	ldr	r3, [sp, #12]
 8003028:	f8b3 e002 	ldrh.w	lr, [r3, #2]
 800302c:	3104      	adds	r1, #4
 800302e:	f1be 0f00 	cmp.w	lr, #0
 8003032:	d029      	beq.n	8003088 <__multiply+0x15c>
 8003034:	682b      	ldr	r3, [r5, #0]
 8003036:	f104 0614 	add.w	r6, r4, #20
 800303a:	4698      	mov	r8, r3
 800303c:	46a9      	mov	r9, r5
 800303e:	f04f 0a00 	mov.w	sl, #0
 8003042:	8832      	ldrh	r2, [r6, #0]
 8003044:	fb0e a202 	mla	r2, lr, r2, sl
 8003048:	eb02 4218 	add.w	r2, r2, r8, lsr #16
 800304c:	b29b      	uxth	r3, r3
 800304e:	ea43 4302 	orr.w	r3, r3, r2, lsl #16
 8003052:	f849 3b04 	str.w	r3, [r9], #4
 8003056:	f856 3b04 	ldr.w	r3, [r6], #4
 800305a:	f8d9 8000 	ldr.w	r8, [r9]
 800305e:	ea4f 4a13 	mov.w	sl, r3, lsr #16
 8003062:	fa1f f388 	uxth.w	r3, r8
 8003066:	fb0e 330a 	mla	r3, lr, sl, r3
 800306a:	eb03 4312 	add.w	r3, r3, r2, lsr #16
 800306e:	45b4      	cmp	ip, r6
 8003070:	ea4f 4a13 	mov.w	sl, r3, lsr #16
 8003074:	d8e5      	bhi.n	8003042 <__multiply+0x116>
 8003076:	9e00      	ldr	r6, [sp, #0]
 8003078:	9a01      	ldr	r2, [sp, #4]
 800307a:	2e00      	cmp	r6, #0
 800307c:	ea4f 0282 	mov.w	r2, r2, lsl #2
 8003080:	bf08      	it	eq
 8003082:	2200      	moveq	r2, #0
 8003084:	442a      	add	r2, r5
 8003086:	6053      	str	r3, [r2, #4]
 8003088:	3504      	adds	r5, #4
 800308a:	e78d      	b.n	8002fa8 <__multiply+0x7c>
 800308c:	3f01      	subs	r7, #1
 800308e:	e78f      	b.n	8002fb0 <__multiply+0x84>
 8003090:	08004c2b 			@ <UNDEFINED> instruction: 08004c2b
 8003094:	08004c3c 			@ <UNDEFINED> instruction: 08004c3c

Disassembly of section .text.__pow5mult:

08003098 <__pow5mult>:
 8003098:	e92d 43f8 	stmdb	sp!, {r3, r4, r5, r6, r7, r8, r9, lr}
 800309c:	4617      	mov	r7, r2
 800309e:	f012 0203 	ands.w	r2, r2, #3
 80030a2:	4680      	mov	r8, r0
 80030a4:	460d      	mov	r5, r1
 80030a6:	d007      	beq.n	80030b8 <__pow5mult+0x20>
 80030a8:	4c26      	ldr	r4, [pc, #152]	@ (8003144 <__pow5mult+0xac>)
 80030aa:	3a01      	subs	r2, #1
 80030ac:	2300      	movs	r3, #0
 80030ae:	f854 2022 	ldr.w	r2, [r4, r2, lsl #2]
 80030b2:	f7ff fe49 	bl	8002d48 <__multadd>
 80030b6:	4605      	mov	r5, r0
 80030b8:	10bf      	asrs	r7, r7, #2
 80030ba:	d03f      	beq.n	800313c <__pow5mult+0xa4>
 80030bc:	f8d8 401c 	ldr.w	r4, [r8, #28]
 80030c0:	b994      	cbnz	r4, 80030e8 <__pow5mult+0x50>
 80030c2:	2010      	movs	r0, #16
 80030c4:	f7ff fd26 	bl	8002b14 <malloc>
 80030c8:	4604      	mov	r4, r0
 80030ca:	f8c8 001c 	str.w	r0, [r8, #28]
 80030ce:	b930      	cbnz	r0, 80030de <__pow5mult+0x46>
 80030d0:	4602      	mov	r2, r0
 80030d2:	4b1d      	ldr	r3, [pc, #116]	@ (8003148 <__pow5mult+0xb0>)
 80030d4:	481d      	ldr	r0, [pc, #116]	@ (800314c <__pow5mult+0xb4>)
 80030d6:	f240 11b3 	movw	r1, #435	@ 0x1b3
 80030da:	f001 fba3 	bl	8004824 <__assert_func>
 80030de:	2300      	movs	r3, #0
 80030e0:	e9c0 3301 	strd	r3, r3, [r0, #4]
 80030e4:	6003      	str	r3, [r0, #0]
 80030e6:	60c3      	str	r3, [r0, #12]
 80030e8:	68a6      	ldr	r6, [r4, #8]
 80030ea:	b946      	cbnz	r6, 80030fe <__pow5mult+0x66>
 80030ec:	f240 2171 	movw	r1, #625	@ 0x271
 80030f0:	4640      	mov	r0, r8
 80030f2:	f7ff ff05 	bl	8002f00 <__i2b>
 80030f6:	2300      	movs	r3, #0
 80030f8:	60a0      	str	r0, [r4, #8]
 80030fa:	4606      	mov	r6, r0
 80030fc:	6003      	str	r3, [r0, #0]
 80030fe:	462c      	mov	r4, r5
 8003100:	f04f 0900 	mov.w	r9, #0
 8003104:	f007 0301 	and.w	r3, r7, #1
 8003108:	107f      	asrs	r7, r7, #1
 800310a:	b153      	cbz	r3, 8003122 <__pow5mult+0x8a>
 800310c:	4629      	mov	r1, r5
 800310e:	4632      	mov	r2, r6
 8003110:	4640      	mov	r0, r8
 8003112:	f7ff ff0b 	bl	8002f2c <__multiply>
 8003116:	4621      	mov	r1, r4
 8003118:	4605      	mov	r5, r0
 800311a:	4640      	mov	r0, r8
 800311c:	f7ff fdf2 	bl	8002d04 <_Bfree>
 8003120:	b167      	cbz	r7, 800313c <__pow5mult+0xa4>
 8003122:	6830      	ldr	r0, [r6, #0]
 8003124:	b938      	cbnz	r0, 8003136 <__pow5mult+0x9e>
 8003126:	4632      	mov	r2, r6
 8003128:	4631      	mov	r1, r6
 800312a:	4640      	mov	r0, r8
 800312c:	f7ff fefe 	bl	8002f2c <__multiply>
 8003130:	6030      	str	r0, [r6, #0]
 8003132:	f8c0 9000 	str.w	r9, [r0]
 8003136:	4606      	mov	r6, r0
 8003138:	462c      	mov	r4, r5
 800313a:	e7e3      	b.n	8003104 <__pow5mult+0x6c>
 800313c:	4628      	mov	r0, r5
 800313e:	e8bd 83f8 	ldmia.w	sp!, {r3, r4, r5, r6, r7, r8, r9, pc}
 8003142:	bf00      	nop
 8003144:	08004cf0 			@ <UNDEFINED> instruction: 08004cf0
 8003148:	08004bbb 			@ <UNDEFINED> instruction: 08004bbb
 800314c:	08004c3c 			@ <UNDEFINED> instruction: 08004c3c

Disassembly of section .text.__lshift:

08003150 <__lshift>:
 8003150:	e92d 4ff8 	stmdb	sp!, {r3, r4, r5, r6, r7, r8, r9, sl, fp, lr}
 8003154:	460c      	mov	r4, r1
 8003156:	6849      	ldr	r1, [r1, #4]
 8003158:	6926      	ldr	r6, [r4, #16]
 800315a:	68a3      	ldr	r3, [r4, #8]
 800315c:	eb06 1662 	add.w	r6, r6, r2, asr #5
 8003160:	4607      	mov	r7, r0
 8003162:	4691      	mov	r9, r2
 8003164:	ea4f 1a62 	mov.w	sl, r2, asr #5
 8003168:	f106 0801 	add.w	r8, r6, #1
 800316c:	4543      	cmp	r3, r8
 800316e:	db0b      	blt.n	8003188 <__lshift+0x38>
 8003170:	4638      	mov	r0, r7
 8003172:	f7ff fd89 	bl	8002c88 <_Balloc>
 8003176:	4605      	mov	r5, r0
 8003178:	b948      	cbnz	r0, 800318e <__lshift+0x3e>
 800317a:	4602      	mov	r2, r0
 800317c:	4b2b      	ldr	r3, [pc, #172]	@ (800322c <__lshift+0xdc>)
 800317e:	482c      	ldr	r0, [pc, #176]	@ (8003230 <__lshift+0xe0>)
 8003180:	f44f 71ef 	mov.w	r1, #478	@ 0x1de
 8003184:	f001 fb4e 	bl	8004824 <__assert_func>
 8003188:	3101      	adds	r1, #1
 800318a:	005b      	lsls	r3, r3, #1
 800318c:	e7ee      	b.n	800316c <__lshift+0x1c>
 800318e:	f100 0114 	add.w	r1, r0, #20
 8003192:	2300      	movs	r3, #0
 8003194:	460a      	mov	r2, r1
 8003196:	4618      	mov	r0, r3
 8003198:	4553      	cmp	r3, sl
 800319a:	db39      	blt.n	8003210 <__lshift+0xc0>
 800319c:	6920      	ldr	r0, [r4, #16]
 800319e:	ea2a 7aea 	bic.w	sl, sl, sl, asr #31
 80031a2:	eb01 018a 	add.w	r1, r1, sl, lsl #2
 80031a6:	f104 0314 	add.w	r3, r4, #20
 80031aa:	f019 091f 	ands.w	r9, r9, #31
 80031ae:	468c      	mov	ip, r1
 80031b0:	eb03 0080 	add.w	r0, r3, r0, lsl #2
 80031b4:	d030      	beq.n	8003218 <__lshift+0xc8>
 80031b6:	f1c9 0a20 	rsb	sl, r9, #32
 80031ba:	f04f 0e00 	mov.w	lr, #0
 80031be:	681a      	ldr	r2, [r3, #0]
 80031c0:	46e3      	mov	fp, ip
 80031c2:	fa02 f209 	lsl.w	r2, r2, r9
 80031c6:	ea42 020e 	orr.w	r2, r2, lr
 80031ca:	f8cb 2000 	str.w	r2, [fp]
 80031ce:	f853 2b04 	ldr.w	r2, [r3], #4
 80031d2:	4298      	cmp	r0, r3
 80031d4:	f10c 0c04 	add.w	ip, ip, #4
 80031d8:	fa22 fe0a 	lsr.w	lr, r2, sl
 80031dc:	d8ef      	bhi.n	80031be <__lshift+0x6e>
 80031de:	1b03      	subs	r3, r0, r4
 80031e0:	3b15      	subs	r3, #21
 80031e2:	f023 0303 	bic.w	r3, r3, #3
 80031e6:	f104 0215 	add.w	r2, r4, #21
 80031ea:	4290      	cmp	r0, r2
 80031ec:	bf38      	it	cc
 80031ee:	2300      	movcc	r3, #0
 80031f0:	4419      	add	r1, r3
 80031f2:	f8c1 e004 	str.w	lr, [r1, #4]
 80031f6:	f1be 0f00 	cmp.w	lr, #0
 80031fa:	d100      	bne.n	80031fe <__lshift+0xae>
 80031fc:	46b0      	mov	r8, r6
 80031fe:	4638      	mov	r0, r7
 8003200:	f8c5 8010 	str.w	r8, [r5, #16]
 8003204:	4621      	mov	r1, r4
 8003206:	f7ff fd7d 	bl	8002d04 <_Bfree>
 800320a:	4628      	mov	r0, r5
 800320c:	e8bd 8ff8 	ldmia.w	sp!, {r3, r4, r5, r6, r7, r8, r9, sl, fp, pc}
 8003210:	f842 0b04 	str.w	r0, [r2], #4
 8003214:	3301      	adds	r3, #1
 8003216:	e7bf      	b.n	8003198 <__lshift+0x48>
 8003218:	f853 1b04 	ldr.w	r1, [r3], #4
 800321c:	f8cc 1000 	str.w	r1, [ip]
 8003220:	4298      	cmp	r0, r3
 8003222:	f10c 0c04 	add.w	ip, ip, #4
 8003226:	d8f7      	bhi.n	8003218 <__lshift+0xc8>
 8003228:	e7e8      	b.n	80031fc <__lshift+0xac>
 800322a:	bf00      	nop
 800322c:	08004c2b 			@ <UNDEFINED> instruction: 08004c2b
 8003230:	08004c3c 			@ <UNDEFINED> instruction: 08004c3c

Disassembly of section .text.__mcmp:

08003234 <__mcmp>:
 8003234:	6903      	ldr	r3, [r0, #16]
 8003236:	690a      	ldr	r2, [r1, #16]
 8003238:	1a9b      	subs	r3, r3, r2
 800323a:	b530      	push	{r4, r5, lr}
 800323c:	d10e      	bne.n	800325c <__mcmp+0x28>
 800323e:	3014      	adds	r0, #20
 8003240:	3114      	adds	r1, #20
 8003242:	eb00 0482 	add.w	r4, r0, r2, lsl #2
 8003246:	eb01 0182 	add.w	r1, r1, r2, lsl #2
 800324a:	f854 5d04 	ldr.w	r5, [r4, #-4]!
 800324e:	f851 2d04 	ldr.w	r2, [r1, #-4]!
 8003252:	4295      	cmp	r5, r2
 8003254:	d004      	beq.n	8003260 <__mcmp+0x2c>
 8003256:	d206      	bcs.n	8003266 <__mcmp+0x32>
 8003258:	f04f 33ff 	mov.w	r3, #4294967295
 800325c:	4618      	mov	r0, r3
 800325e:	bd30      	pop	{r4, r5, pc}
 8003260:	42a0      	cmp	r0, r4
 8003262:	d3f2      	bcc.n	800324a <__mcmp+0x16>
 8003264:	e7fa      	b.n	800325c <__mcmp+0x28>
 8003266:	2301      	movs	r3, #1
 8003268:	e7f8      	b.n	800325c <__mcmp+0x28>

Disassembly of section .text.__mdiff:

0800326c <__mdiff>:
 800326c:	e92d 4ff7 	stmdb	sp!, {r0, r1, r2, r4, r5, r6, r7, r8, r9, sl, fp, lr}
 8003270:	468a      	mov	sl, r1
 8003272:	4606      	mov	r6, r0
 8003274:	4611      	mov	r1, r2
 8003276:	4650      	mov	r0, sl
 8003278:	4614      	mov	r4, r2
 800327a:	f7ff ffdb 	bl	8003234 <__mcmp>
 800327e:	1e05      	subs	r5, r0, #0
 8003280:	d112      	bne.n	80032a8 <__mdiff+0x3c>
 8003282:	4629      	mov	r1, r5
 8003284:	4630      	mov	r0, r6
 8003286:	f7ff fcff 	bl	8002c88 <_Balloc>
 800328a:	4602      	mov	r2, r0
 800328c:	b928      	cbnz	r0, 800329a <__mdiff+0x2e>
 800328e:	4b41      	ldr	r3, [pc, #260]	@ (8003394 <__mdiff+0x128>)
 8003290:	f240 2137 	movw	r1, #567	@ 0x237
 8003294:	4840      	ldr	r0, [pc, #256]	@ (8003398 <__mdiff+0x12c>)
 8003296:	f001 fac5 	bl	8004824 <__assert_func>
 800329a:	2301      	movs	r3, #1
 800329c:	e9c0 3504 	strd	r3, r5, [r0, #16]
 80032a0:	4610      	mov	r0, r2
 80032a2:	b003      	add	sp, #12
 80032a4:	e8bd 8ff0 	ldmia.w	sp!, {r4, r5, r6, r7, r8, r9, sl, fp, pc}
 80032a8:	bfbc      	itt	lt
 80032aa:	4653      	movlt	r3, sl
 80032ac:	46a2      	movlt	sl, r4
 80032ae:	4630      	mov	r0, r6
 80032b0:	f8da 1004 	ldr.w	r1, [sl, #4]
 80032b4:	bfba      	itte	lt
 80032b6:	461c      	movlt	r4, r3
 80032b8:	2501      	movlt	r5, #1
 80032ba:	2500      	movge	r5, #0
 80032bc:	f7ff fce4 	bl	8002c88 <_Balloc>
 80032c0:	4602      	mov	r2, r0
 80032c2:	b918      	cbnz	r0, 80032cc <__mdiff+0x60>
 80032c4:	4b33      	ldr	r3, [pc, #204]	@ (8003394 <__mdiff+0x128>)
 80032c6:	f240 2145 	movw	r1, #581	@ 0x245
 80032ca:	e7e3      	b.n	8003294 <__mdiff+0x28>
 80032cc:	f8da 7010 	ldr.w	r7, [sl, #16]
 80032d0:	6926      	ldr	r6, [r4, #16]
 80032d2:	60c5      	str	r5, [r0, #12]
 80032d4:	f10a 0914 	add.w	r9, sl, #20
 80032d8:	f104 0e14 	add.w	lr, r4, #20
 80032dc:	f100 0514 	add.w	r5, r0, #20
 80032e0:	f10a 0310 	add.w	r3, sl, #16
 80032e4:	eb09 0887 	add.w	r8, r9, r7, lsl #2
 80032e8:	eb0e 0686 	add.w	r6, lr, r6, lsl #2
 80032ec:	9301      	str	r3, [sp, #4]
 80032ee:	46ab      	mov	fp, r5
 80032f0:	f04f 0c00 	mov.w	ip, #0
 80032f4:	9b01      	ldr	r3, [sp, #4]
 80032f6:	f85e 0b04 	ldr.w	r0, [lr], #4
 80032fa:	f853 af04 	ldr.w	sl, [r3, #4]!
 80032fe:	9301      	str	r3, [sp, #4]
 8003300:	fa1f f18a 	uxth.w	r1, sl
 8003304:	b283      	uxth	r3, r0
 8003306:	1acb      	subs	r3, r1, r3
 8003308:	0c00      	lsrs	r0, r0, #16
 800330a:	4463      	add	r3, ip
 800330c:	ebc0 401a 	rsb	r0, r0, sl, lsr #16
 8003310:	eb00 4023 	add.w	r0, r0, r3, asr #16
 8003314:	b29b      	uxth	r3, r3
 8003316:	ea43 4300 	orr.w	r3, r3, r0, lsl #16
 800331a:	4576      	cmp	r6, lr
 800331c:	f84b 3b04 	str.w	r3, [fp], #4
 8003320:	ea4f 4c20 	mov.w	ip, r0, asr #16
 8003324:	d8e6      	bhi.n	80032f4 <__mdiff+0x88>
 8003326:	1b33      	subs	r3, r6, r4
 8003328:	3b15      	subs	r3, #21
 800332a:	3415      	adds	r4, #21
 800332c:	f023 0303 	bic.w	r3, r3, #3
 8003330:	42a6      	cmp	r6, r4
 8003332:	bf38      	it	cc
 8003334:	2300      	movcc	r3, #0
 8003336:	18e8      	adds	r0, r5, r3
 8003338:	444b      	add	r3, r9
 800333a:	1d1c      	adds	r4, r3, #4
 800333c:	3004      	adds	r0, #4
 800333e:	4626      	mov	r6, r4
 8003340:	eba5 0509 	sub.w	r5, r5, r9
 8003344:	4546      	cmp	r6, r8
 8003346:	d30e      	bcc.n	8003366 <__mdiff+0xfa>
 8003348:	f108 0103 	add.w	r1, r8, #3
 800334c:	1b09      	subs	r1, r1, r4
 800334e:	f021 0103 	bic.w	r1, r1, #3
 8003352:	3301      	adds	r3, #1
 8003354:	4598      	cmp	r8, r3
 8003356:	bf38      	it	cc
 8003358:	2100      	movcc	r1, #0
 800335a:	4401      	add	r1, r0
 800335c:	f851 3d04 	ldr.w	r3, [r1, #-4]!
 8003360:	b1ab      	cbz	r3, 800338e <__mdiff+0x122>
 8003362:	6117      	str	r7, [r2, #16]
 8003364:	e79c      	b.n	80032a0 <__mdiff+0x34>
 8003366:	eb06 0e05 	add.w	lr, r6, r5
 800336a:	f856 1b04 	ldr.w	r1, [r6], #4
 800336e:	46e2      	mov	sl, ip
 8003370:	ea4f 4911 	mov.w	r9, r1, lsr #16
 8003374:	fa1c fc81 	uxtah	ip, ip, r1
 8003378:	4451      	add	r1, sl
 800337a:	eb09 492c 	add.w	r9, r9, ip, asr #16
 800337e:	b289      	uxth	r1, r1
 8003380:	ea41 4109 	orr.w	r1, r1, r9, lsl #16
 8003384:	ea4f 4c29 	mov.w	ip, r9, asr #16
 8003388:	f8ce 1000 	str.w	r1, [lr]
 800338c:	e7da      	b.n	8003344 <__mdiff+0xd8>
 800338e:	3f01      	subs	r7, #1
 8003390:	e7e4      	b.n	800335c <__mdiff+0xf0>
 8003392:	bf00      	nop
 8003394:	08004c2b 			@ <UNDEFINED> instruction: 08004c2b
 8003398:	08004c3c 			@ <UNDEFINED> instruction: 08004c3c

Disassembly of section .text.__ulp:

0800339c <__ulp>:
 800339c:	b082      	sub	sp, #8
 800339e:	ed8d 0b00 	vstr	d0, [sp]
 80033a2:	9a01      	ldr	r2, [sp, #4]
 80033a4:	4b0f      	ldr	r3, [pc, #60]	@ (80033e4 <__ulp+0x48>)
 80033a6:	4013      	ands	r3, r2
 80033a8:	f1a3 7350 	sub.w	r3, r3, #54525952	@ 0x3400000
 80033ac:	2b00      	cmp	r3, #0
 80033ae:	dc08      	bgt.n	80033c2 <__ulp+0x26>
 80033b0:	425b      	negs	r3, r3
 80033b2:	f1b3 7fa0 	cmp.w	r3, #20971520	@ 0x1400000
 80033b6:	ea4f 5223 	mov.w	r2, r3, asr #20
 80033ba:	da04      	bge.n	80033c6 <__ulp+0x2a>
 80033bc:	f44f 2300 	mov.w	r3, #524288	@ 0x80000
 80033c0:	4113      	asrs	r3, r2
 80033c2:	2200      	movs	r2, #0
 80033c4:	e008      	b.n	80033d8 <__ulp+0x3c>
 80033c6:	f1a2 0314 	sub.w	r3, r2, #20
 80033ca:	2b1e      	cmp	r3, #30
 80033cc:	bfda      	itte	le
 80033ce:	f04f 4200 	movle.w	r2, #2147483648	@ 0x80000000
 80033d2:	40da      	lsrle	r2, r3
 80033d4:	2201      	movgt	r2, #1
 80033d6:	2300      	movs	r3, #0
 80033d8:	4619      	mov	r1, r3
 80033da:	4610      	mov	r0, r2
 80033dc:	ec41 0b10 	vmov	d0, r0, r1
 80033e0:	b002      	add	sp, #8
 80033e2:	4770      	bx	lr
 80033e4:	7ff00000 			@ <UNDEFINED> instruction: 7ff00000

Disassembly of section .text.__b2d:

080033e8 <__b2d>:
 80033e8:	b5f8      	push	{r3, r4, r5, r6, r7, lr}
 80033ea:	6905      	ldr	r5, [r0, #16]
 80033ec:	f100 0614 	add.w	r6, r0, #20
 80033f0:	eb06 0585 	add.w	r5, r6, r5, lsl #2
 80033f4:	1f2f      	subs	r7, r5, #4
 80033f6:	f855 4c04 	ldr.w	r4, [r5, #-4]
 80033fa:	4620      	mov	r0, r4
 80033fc:	f7ff fd34 	bl	8002e68 <__hi0bits>
 8003400:	f1c0 0320 	rsb	r3, r0, #32
 8003404:	280a      	cmp	r0, #10
 8003406:	600b      	str	r3, [r1, #0]
 8003408:	dc16      	bgt.n	8003438 <__b2d+0x50>
 800340a:	f1c0 0c0b 	rsb	ip, r0, #11
 800340e:	fa24 f10c 	lsr.w	r1, r4, ip
 8003412:	42be      	cmp	r6, r7
 8003414:	f041 537f 	orr.w	r3, r1, #1069547520	@ 0x3fc00000
 8003418:	bf34      	ite	cc
 800341a:	f855 1c08 	ldrcc.w	r1, [r5, #-8]
 800341e:	2100      	movcs	r1, #0
 8003420:	3015      	adds	r0, #21
 8003422:	fa04 f000 	lsl.w	r0, r4, r0
 8003426:	fa21 f10c 	lsr.w	r1, r1, ip
 800342a:	f443 1340 	orr.w	r3, r3, #3145728	@ 0x300000
 800342e:	4301      	orrs	r1, r0
 8003430:	460a      	mov	r2, r1
 8003432:	ec43 2b10 	vmov	d0, r2, r3
 8003436:	bdf8      	pop	{r3, r4, r5, r6, r7, pc}
 8003438:	42be      	cmp	r6, r7
 800343a:	bf3a      	itte	cc
 800343c:	f855 1c08 	ldrcc.w	r1, [r5, #-8]
 8003440:	f1a5 0708 	subcc.w	r7, r5, #8
 8003444:	2100      	movcs	r1, #0
 8003446:	380b      	subs	r0, #11
 8003448:	d012      	beq.n	8003470 <__b2d+0x88>
 800344a:	f1c0 0520 	rsb	r5, r0, #32
 800344e:	fa21 f305 	lsr.w	r3, r1, r5
 8003452:	4084      	lsls	r4, r0
 8003454:	431c      	orrs	r4, r3
 8003456:	42b7      	cmp	r7, r6
 8003458:	f044 537f 	orr.w	r3, r4, #1069547520	@ 0x3fc00000
 800345c:	bf8c      	ite	hi
 800345e:	f857 4c04 	ldrhi.w	r4, [r7, #-4]
 8003462:	2400      	movls	r4, #0
 8003464:	4081      	lsls	r1, r0
 8003466:	40ec      	lsrs	r4, r5
 8003468:	f443 1340 	orr.w	r3, r3, #3145728	@ 0x300000
 800346c:	4321      	orrs	r1, r4
 800346e:	e7df      	b.n	8003430 <__b2d+0x48>
 8003470:	f044 537f 	orr.w	r3, r4, #1069547520	@ 0x3fc00000
 8003474:	f443 1340 	orr.w	r3, r3, #3145728	@ 0x300000
 8003478:	e7da      	b.n	8003430 <__b2d+0x48>

Disassembly of section .text.__d2b:

0800347c <__d2b>:
 800347c:	e92d 43f7 	stmdb	sp!, {r0, r1, r2, r4, r5, r6, r7, r8, r9, lr}
 8003480:	460f      	mov	r7, r1
 8003482:	2101      	movs	r1, #1
 8003484:	ec59 8b10 	vmov	r8, r9, d0
 8003488:	4616      	mov	r6, r2
 800348a:	f7ff fbfd 	bl	8002c88 <_Balloc>
 800348e:	4605      	mov	r5, r0
 8003490:	b930      	cbnz	r0, 80034a0 <__d2b+0x24>
 8003492:	4602      	mov	r2, r0
 8003494:	4b23      	ldr	r3, [pc, #140]	@ (8003524 <__d2b+0xa8>)
 8003496:	4824      	ldr	r0, [pc, #144]	@ (8003528 <__d2b+0xac>)
 8003498:	f240 310f 	movw	r1, #783	@ 0x30f
 800349c:	f001 f9c2 	bl	8004824 <__assert_func>
 80034a0:	f3c9 540a 	ubfx	r4, r9, #20, #11
 80034a4:	f3c9 0313 	ubfx	r3, r9, #0, #20
 80034a8:	b10c      	cbz	r4, 80034ae <__d2b+0x32>
 80034aa:	f443 1380 	orr.w	r3, r3, #1048576	@ 0x100000
 80034ae:	9301      	str	r3, [sp, #4]
 80034b0:	f1b8 0300 	subs.w	r3, r8, #0
 80034b4:	d023      	beq.n	80034fe <__d2b+0x82>
 80034b6:	4668      	mov	r0, sp
 80034b8:	9300      	str	r3, [sp, #0]
 80034ba:	f7ff fcf3 	bl	8002ea4 <__lo0bits>
 80034be:	9900      	ldr	r1, [sp, #0]
 80034c0:	b1d8      	cbz	r0, 80034fa <__d2b+0x7e>
 80034c2:	9a01      	ldr	r2, [sp, #4]
 80034c4:	f1c0 0320 	rsb	r3, r0, #32
 80034c8:	fa02 f303 	lsl.w	r3, r2, r3
 80034cc:	430b      	orrs	r3, r1
 80034ce:	40c2      	lsrs	r2, r0
 80034d0:	616b      	str	r3, [r5, #20]
 80034d2:	9201      	str	r2, [sp, #4]
 80034d4:	9b01      	ldr	r3, [sp, #4]
 80034d6:	61ab      	str	r3, [r5, #24]
 80034d8:	2b00      	cmp	r3, #0
 80034da:	bf0c      	ite	eq
 80034dc:	2201      	moveq	r2, #1
 80034de:	2202      	movne	r2, #2
 80034e0:	612a      	str	r2, [r5, #16]
 80034e2:	b1a4      	cbz	r4, 800350e <__d2b+0x92>
 80034e4:	f2a4 4433 	subw	r4, r4, #1075	@ 0x433
 80034e8:	4404      	add	r4, r0
 80034ea:	603c      	str	r4, [r7, #0]
 80034ec:	f1c0 0035 	rsb	r0, r0, #53	@ 0x35
 80034f0:	6030      	str	r0, [r6, #0]
 80034f2:	4628      	mov	r0, r5
 80034f4:	b003      	add	sp, #12
 80034f6:	e8bd 83f0 	ldmia.w	sp!, {r4, r5, r6, r7, r8, r9, pc}
 80034fa:	6169      	str	r1, [r5, #20]
 80034fc:	e7ea      	b.n	80034d4 <__d2b+0x58>
 80034fe:	a801      	add	r0, sp, #4
 8003500:	f7ff fcd0 	bl	8002ea4 <__lo0bits>
 8003504:	9b01      	ldr	r3, [sp, #4]
 8003506:	616b      	str	r3, [r5, #20]
 8003508:	3020      	adds	r0, #32
 800350a:	2201      	movs	r2, #1
 800350c:	e7e8      	b.n	80034e0 <__d2b+0x64>
 800350e:	eb05 0382 	add.w	r3, r5, r2, lsl #2
 8003512:	f2a0 4032 	subw	r0, r0, #1074	@ 0x432
 8003516:	6038      	str	r0, [r7, #0]
 8003518:	6918      	ldr	r0, [r3, #16]
 800351a:	f7ff fca5 	bl	8002e68 <__hi0bits>
 800351e:	ebc0 1042 	rsb	r0, r0, r2, lsl #5
 8003522:	e7e5      	b.n	80034f0 <__d2b+0x74>
 8003524:	08004c2b 			@ <UNDEFINED> instruction: 08004c2b
 8003528:	08004c3c 			@ <UNDEFINED> instruction: 08004c3c

Disassembly of section .text.__ratio:

0800352c <__ratio>:
 800352c:	b5f7      	push	{r0, r1, r2, r4, r5, r6, r7, lr}
 800352e:	460e      	mov	r6, r1
 8003530:	4669      	mov	r1, sp
 8003532:	4607      	mov	r7, r0
 8003534:	f7ff ff58 	bl	80033e8 <__b2d>
 8003538:	a901      	add	r1, sp, #4
 800353a:	4630      	mov	r0, r6
 800353c:	ec55 4b10 	vmov	r4, r5, d0
 8003540:	eeb0 7a40 	vmov.f32	s14, s0
 8003544:	eef0 7a60 	vmov.f32	s15, s1
 8003548:	f7ff ff4e 	bl	80033e8 <__b2d>
 800354c:	6933      	ldr	r3, [r6, #16]
 800354e:	693a      	ldr	r2, [r7, #16]
 8003550:	1ad2      	subs	r2, r2, r3
 8003552:	e9dd 3600 	ldrd	r3, r6, [sp]
 8003556:	1b9b      	subs	r3, r3, r6
 8003558:	eb03 1342 	add.w	r3, r3, r2, lsl #5
 800355c:	2b00      	cmp	r3, #0
 800355e:	bfd4      	ite	le
 8003560:	ee10 2a90 	vmovle	r2, s1
 8003564:	ee17 2a90 	vmovgt	r2, s15
 8003568:	ec51 0b10 	vmov	r0, r1, d0
 800356c:	bfd6      	itet	le
 800356e:	ebc3 3303 	rsble	r3, r3, r3, lsl #12
 8003572:	eb02 5503 	addgt.w	r5, r2, r3, lsl #20
 8003576:	eb02 5103 	addle.w	r1, r2, r3, lsl #20
 800357a:	460b      	mov	r3, r1
 800357c:	4602      	mov	r2, r0
 800357e:	4629      	mov	r1, r5
 8003580:	4620      	mov	r0, r4
 8003582:	f7fd fcff 	bl	8000f84 <__aeabi_ddiv>
 8003586:	ec41 0b10 	vmov	d0, r0, r1
 800358a:	b003      	add	sp, #12
 800358c:	bdf0      	pop	{r4, r5, r6, r7, pc}

Disassembly of section .text._mprec_log10:

08003590 <_mprec_log10>:
 8003590:	2817      	cmp	r0, #23
 8003592:	b5d0      	push	{r4, r6, r7, lr}
 8003594:	4604      	mov	r4, r0
 8003596:	dc07      	bgt.n	80035a8 <_mprec_log10+0x18>
 8003598:	4b09      	ldr	r3, [pc, #36]	@ (80035c0 <_mprec_log10+0x30>)
 800359a:	eb03 03c0 	add.w	r3, r3, r0, lsl #3
 800359e:	e9d3 0100 	ldrd	r0, r1, [r3]
 80035a2:	ec41 0b10 	vmov	d0, r0, r1
 80035a6:	bdd0      	pop	{r4, r6, r7, pc}
 80035a8:	4906      	ldr	r1, [pc, #24]	@ (80035c4 <_mprec_log10+0x34>)
 80035aa:	4f07      	ldr	r7, [pc, #28]	@ (80035c8 <_mprec_log10+0x38>)
 80035ac:	2000      	movs	r0, #0
 80035ae:	2600      	movs	r6, #0
 80035b0:	4632      	mov	r2, r6
 80035b2:	463b      	mov	r3, r7
 80035b4:	f7fd fbbc 	bl	8000d30 <__aeabi_dmul>
 80035b8:	3c01      	subs	r4, #1
 80035ba:	d1f9      	bne.n	80035b0 <_mprec_log10+0x20>
 80035bc:	e7f1      	b.n	80035a2 <_mprec_log10+0x12>
 80035be:	bf00      	nop
 80035c0:	08004d50 			@ <UNDEFINED> instruction: 08004d50
 80035c4:	3ff00000 			@ <UNDEFINED> instruction: 3ff00000
 80035c8:	40240000 			@ <UNDEFINED> instruction: 40240000

Disassembly of section .text.__copybits:

080035cc <__copybits>:
 80035cc:	3901      	subs	r1, #1
 80035ce:	b570      	push	{r4, r5, r6, lr}
 80035d0:	1149      	asrs	r1, r1, #5
 80035d2:	6914      	ldr	r4, [r2, #16]
 80035d4:	3101      	adds	r1, #1
 80035d6:	f102 0314 	add.w	r3, r2, #20
 80035da:	eb00 0181 	add.w	r1, r0, r1, lsl #2
 80035de:	eb03 0484 	add.w	r4, r3, r4, lsl #2
 80035e2:	1f05      	subs	r5, r0, #4
 80035e4:	42a3      	cmp	r3, r4
 80035e6:	d30c      	bcc.n	8003602 <__copybits+0x36>
 80035e8:	1aa3      	subs	r3, r4, r2
 80035ea:	3b11      	subs	r3, #17
 80035ec:	f023 0303 	bic.w	r3, r3, #3
 80035f0:	3211      	adds	r2, #17
 80035f2:	4294      	cmp	r4, r2
 80035f4:	bf38      	it	cc
 80035f6:	2300      	movcc	r3, #0
 80035f8:	4418      	add	r0, r3
 80035fa:	2300      	movs	r3, #0
 80035fc:	4288      	cmp	r0, r1
 80035fe:	d305      	bcc.n	800360c <__copybits+0x40>
 8003600:	bd70      	pop	{r4, r5, r6, pc}
 8003602:	f853 6b04 	ldr.w	r6, [r3], #4
 8003606:	f845 6f04 	str.w	r6, [r5, #4]!
 800360a:	e7eb      	b.n	80035e4 <__copybits+0x18>
 800360c:	f840 3b04 	str.w	r3, [r0], #4
 8003610:	e7f4      	b.n	80035fc <__copybits+0x30>

Disassembly of section .text.__any_on:

08003612 <__any_on>:
 8003612:	f100 0214 	add.w	r2, r0, #20
 8003616:	6900      	ldr	r0, [r0, #16]
 8003618:	114b      	asrs	r3, r1, #5
 800361a:	4298      	cmp	r0, r3
 800361c:	b510      	push	{r4, lr}
 800361e:	db11      	blt.n	8003644 <__any_on+0x32>
 8003620:	dd0a      	ble.n	8003638 <__any_on+0x26>
 8003622:	f011 011f 	ands.w	r1, r1, #31
 8003626:	d007      	beq.n	8003638 <__any_on+0x26>
 8003628:	f852 4023 	ldr.w	r4, [r2, r3, lsl #2]
 800362c:	fa24 f001 	lsr.w	r0, r4, r1
 8003630:	fa00 f101 	lsl.w	r1, r0, r1
 8003634:	428c      	cmp	r4, r1
 8003636:	d10b      	bne.n	8003650 <__any_on+0x3e>
 8003638:	eb02 0383 	add.w	r3, r2, r3, lsl #2
 800363c:	4293      	cmp	r3, r2
 800363e:	d803      	bhi.n	8003648 <__any_on+0x36>
 8003640:	2000      	movs	r0, #0
 8003642:	bd10      	pop	{r4, pc}
 8003644:	4603      	mov	r3, r0
 8003646:	e7f7      	b.n	8003638 <__any_on+0x26>
 8003648:	f853 1d04 	ldr.w	r1, [r3, #-4]!
 800364c:	2900      	cmp	r1, #0
 800364e:	d0f5      	beq.n	800363c <__any_on+0x2a>
 8003650:	2001      	movs	r0, #1
 8003652:	e7f6      	b.n	8003642 <__any_on+0x30>

Disassembly of section .text.__ssputs_r:

08003654 <__ssputs_r>:
 8003654:	e92d 47f0 	stmdb	sp!, {r4, r5, r6, r7, r8, r9, sl, lr}
 8003658:	688e      	ldr	r6, [r1, #8]
 800365a:	461f      	mov	r7, r3
 800365c:	42be      	cmp	r6, r7
 800365e:	4682      	mov	sl, r0
 8003660:	460c      	mov	r4, r1
 8003662:	4690      	mov	r8, r2
 8003664:	4633      	mov	r3, r6
 8003666:	d853      	bhi.n	8003710 <__ssputs_r+0xbc>
 8003668:	f9b1 000c 	ldrsh.w	r0, [r1, #12]
 800366c:	f410 6f90 	tst.w	r0, #1152	@ 0x480
 8003670:	d02b      	beq.n	80036ca <__ssputs_r+0x76>
 8003672:	6965      	ldr	r5, [r4, #20]
 8003674:	6823      	ldr	r3, [r4, #0]
 8003676:	6909      	ldr	r1, [r1, #16]
 8003678:	eb05 0545 	add.w	r5, r5, r5, lsl #1
 800367c:	eba3 0901 	sub.w	r9, r3, r1
 8003680:	eb05 75d5 	add.w	r5, r5, r5, lsr #31
 8003684:	1c7b      	adds	r3, r7, #1
 8003686:	106d      	asrs	r5, r5, #1
 8003688:	444b      	add	r3, r9
 800368a:	42ab      	cmp	r3, r5
 800368c:	462a      	mov	r2, r5
 800368e:	bf84      	itt	hi
 8003690:	461d      	movhi	r5, r3
 8003692:	462a      	movhi	r2, r5
 8003694:	0543      	lsls	r3, r0, #21
 8003696:	d527      	bpl.n	80036e8 <__ssputs_r+0x94>
 8003698:	4611      	mov	r1, r2
 800369a:	4650      	mov	r0, sl
 800369c:	f7ff fa6c 	bl	8002b78 <_malloc_r>
 80036a0:	4606      	mov	r6, r0
 80036a2:	b358      	cbz	r0, 80036fc <__ssputs_r+0xa8>
 80036a4:	6921      	ldr	r1, [r4, #16]
 80036a6:	464a      	mov	r2, r9
 80036a8:	f001 f8ae 	bl	8004808 <memcpy>
 80036ac:	89a3      	ldrh	r3, [r4, #12]
 80036ae:	f423 6390 	bic.w	r3, r3, #1152	@ 0x480
 80036b2:	f043 0380 	orr.w	r3, r3, #128	@ 0x80
 80036b6:	81a3      	strh	r3, [r4, #12]
 80036b8:	6126      	str	r6, [r4, #16]
 80036ba:	6165      	str	r5, [r4, #20]
 80036bc:	444e      	add	r6, r9
 80036be:	eba5 0509 	sub.w	r5, r5, r9
 80036c2:	6026      	str	r6, [r4, #0]
 80036c4:	60a5      	str	r5, [r4, #8]
 80036c6:	463e      	mov	r6, r7
 80036c8:	463b      	mov	r3, r7
 80036ca:	461f      	mov	r7, r3
 80036cc:	6820      	ldr	r0, [r4, #0]
 80036ce:	463a      	mov	r2, r7
 80036d0:	4641      	mov	r1, r8
 80036d2:	f000 ff75 	bl	80045c0 <memmove>
 80036d6:	68a3      	ldr	r3, [r4, #8]
 80036d8:	1b9b      	subs	r3, r3, r6
 80036da:	60a3      	str	r3, [r4, #8]
 80036dc:	6823      	ldr	r3, [r4, #0]
 80036de:	443b      	add	r3, r7
 80036e0:	6023      	str	r3, [r4, #0]
 80036e2:	2000      	movs	r0, #0
 80036e4:	e8bd 87f0 	ldmia.w	sp!, {r4, r5, r6, r7, r8, r9, sl, pc}
 80036e8:	4650      	mov	r0, sl
 80036ea:	f001 f8ed 	bl	80048c8 <_realloc_r>
 80036ee:	4606      	mov	r6, r0
 80036f0:	2800      	cmp	r0, #0
 80036f2:	d1e1      	bne.n	80036b8 <__ssputs_r+0x64>
 80036f4:	6921      	ldr	r1, [r4, #16]
 80036f6:	4650      	mov	r0, sl
 80036f8:	f7ff f9c0 	bl	8002a7c <_free_r>
 80036fc:	230c      	movs	r3, #12
 80036fe:	f8ca 3000 	str.w	r3, [sl]
 8003702:	89a3      	ldrh	r3, [r4, #12]
 8003704:	f043 0340 	orr.w	r3, r3, #64	@ 0x40
 8003708:	81a3      	strh	r3, [r4, #12]
 800370a:	f04f 30ff 	mov.w	r0, #4294967295
 800370e:	e7e9      	b.n	80036e4 <__ssputs_r+0x90>
 8003710:	463e      	mov	r6, r7
 8003712:	e7db      	b.n	80036cc <__ssputs_r+0x78>

Disassembly of section .text.__ssprint_r:

08003714 <__ssprint_r>:
 8003714:	6893      	ldr	r3, [r2, #8]
 8003716:	e92d 4ff7 	stmdb	sp!, {r0, r1, r2, r4, r5, r6, r7, r8, r9, sl, fp, lr}
 800371a:	4681      	mov	r9, r0
 800371c:	460c      	mov	r4, r1
 800371e:	4617      	mov	r7, r2
 8003720:	2b00      	cmp	r3, #0
 8003722:	d050      	beq.n	80037c6 <__ssprint_r+0xb2>
 8003724:	f8d2 a000 	ldr.w	sl, [r2]
 8003728:	f8da b004 	ldr.w	fp, [sl, #4]
 800372c:	f8da 3000 	ldr.w	r3, [sl]
 8003730:	9301      	str	r3, [sp, #4]
 8003732:	f1bb 0f00 	cmp.w	fp, #0
 8003736:	d04c      	beq.n	80037d2 <__ssprint_r+0xbe>
 8003738:	68a6      	ldr	r6, [r4, #8]
 800373a:	455e      	cmp	r6, fp
 800373c:	4635      	mov	r5, r6
 800373e:	d861      	bhi.n	8003804 <__ssprint_r+0xf0>
 8003740:	f9b4 000c 	ldrsh.w	r0, [r4, #12]
 8003744:	f410 6f90 	tst.w	r0, #1152	@ 0x480
 8003748:	d02d      	beq.n	80037a6 <__ssprint_r+0x92>
 800374a:	6822      	ldr	r2, [r4, #0]
 800374c:	6921      	ldr	r1, [r4, #16]
 800374e:	6965      	ldr	r5, [r4, #20]
 8003750:	eba2 0801 	sub.w	r8, r2, r1
 8003754:	eb05 0545 	add.w	r5, r5, r5, lsl #1
 8003758:	eb05 75d5 	add.w	r5, r5, r5, lsr #31
 800375c:	f108 0601 	add.w	r6, r8, #1
 8003760:	106d      	asrs	r5, r5, #1
 8003762:	445e      	add	r6, fp
 8003764:	42ae      	cmp	r6, r5
 8003766:	462a      	mov	r2, r5
 8003768:	bf84      	itt	hi
 800376a:	4635      	movhi	r5, r6
 800376c:	462a      	movhi	r2, r5
 800376e:	0543      	lsls	r3, r0, #21
 8003770:	d532      	bpl.n	80037d8 <__ssprint_r+0xc4>
 8003772:	4611      	mov	r1, r2
 8003774:	4648      	mov	r0, r9
 8003776:	f7ff f9ff 	bl	8002b78 <_malloc_r>
 800377a:	4606      	mov	r6, r0
 800377c:	2800      	cmp	r0, #0
 800377e:	d035      	beq.n	80037ec <__ssprint_r+0xd8>
 8003780:	4642      	mov	r2, r8
 8003782:	6921      	ldr	r1, [r4, #16]
 8003784:	f001 f840 	bl	8004808 <memcpy>
 8003788:	89a2      	ldrh	r2, [r4, #12]
 800378a:	f422 6290 	bic.w	r2, r2, #1152	@ 0x480
 800378e:	f042 0280 	orr.w	r2, r2, #128	@ 0x80
 8003792:	81a2      	strh	r2, [r4, #12]
 8003794:	6126      	str	r6, [r4, #16]
 8003796:	6165      	str	r5, [r4, #20]
 8003798:	4446      	add	r6, r8
 800379a:	eba5 0508 	sub.w	r5, r5, r8
 800379e:	6026      	str	r6, [r4, #0]
 80037a0:	60a5      	str	r5, [r4, #8]
 80037a2:	465e      	mov	r6, fp
 80037a4:	465d      	mov	r5, fp
 80037a6:	462a      	mov	r2, r5
 80037a8:	9901      	ldr	r1, [sp, #4]
 80037aa:	6820      	ldr	r0, [r4, #0]
 80037ac:	f000 ff08 	bl	80045c0 <memmove>
 80037b0:	68a2      	ldr	r2, [r4, #8]
 80037b2:	1b92      	subs	r2, r2, r6
 80037b4:	60a2      	str	r2, [r4, #8]
 80037b6:	6822      	ldr	r2, [r4, #0]
 80037b8:	442a      	add	r2, r5
 80037ba:	6022      	str	r2, [r4, #0]
 80037bc:	68ba      	ldr	r2, [r7, #8]
 80037be:	eba2 030b 	sub.w	r3, r2, fp
 80037c2:	60bb      	str	r3, [r7, #8]
 80037c4:	b92b      	cbnz	r3, 80037d2 <__ssprint_r+0xbe>
 80037c6:	2000      	movs	r0, #0
 80037c8:	2300      	movs	r3, #0
 80037ca:	607b      	str	r3, [r7, #4]
 80037cc:	b003      	add	sp, #12
 80037ce:	e8bd 8ff0 	ldmia.w	sp!, {r4, r5, r6, r7, r8, r9, sl, fp, pc}
 80037d2:	f10a 0a08 	add.w	sl, sl, #8
 80037d6:	e7a7      	b.n	8003728 <__ssprint_r+0x14>
 80037d8:	4648      	mov	r0, r9
 80037da:	f001 f875 	bl	80048c8 <_realloc_r>
 80037de:	4606      	mov	r6, r0
 80037e0:	2800      	cmp	r0, #0
 80037e2:	d1d7      	bne.n	8003794 <__ssprint_r+0x80>
 80037e4:	6921      	ldr	r1, [r4, #16]
 80037e6:	4648      	mov	r0, r9
 80037e8:	f7ff f948 	bl	8002a7c <_free_r>
 80037ec:	230c      	movs	r3, #12
 80037ee:	f8c9 3000 	str.w	r3, [r9]
 80037f2:	89a3      	ldrh	r3, [r4, #12]
 80037f4:	f043 0340 	orr.w	r3, r3, #64	@ 0x40
 80037f8:	81a3      	strh	r3, [r4, #12]
 80037fa:	2300      	movs	r3, #0
 80037fc:	60bb      	str	r3, [r7, #8]
 80037fe:	f04f 30ff 	mov.w	r0, #4294967295
 8003802:	e7e1      	b.n	80037c8 <__ssprint_r+0xb4>
 8003804:	465e      	mov	r6, fp
 8003806:	e7cd      	b.n	80037a4 <__ssprint_r+0x90>

Disassembly of section .text._svfprintf_r:

08003808 <_svfiprintf_r>:
 8003808:	e92d 47f0 	stmdb	sp!, {r4, r5, r6, r7, r8, r9, sl, lr}
 800380c:	461f      	mov	r7, r3
 800380e:	898b      	ldrh	r3, [r1, #12]
 8003810:	061b      	lsls	r3, r3, #24
 8003812:	b09c      	sub	sp, #112	@ 0x70
 8003814:	4606      	mov	r6, r0
 8003816:	460d      	mov	r5, r1
 8003818:	4614      	mov	r4, r2
 800381a:	d510      	bpl.n	800383e <_svfiprintf_r+0x36>
 800381c:	690b      	ldr	r3, [r1, #16]
 800381e:	b973      	cbnz	r3, 800383e <_svfiprintf_r+0x36>
 8003820:	2140      	movs	r1, #64	@ 0x40
 8003822:	f7ff f9a9 	bl	8002b78 <_malloc_r>
 8003826:	6028      	str	r0, [r5, #0]
 8003828:	6128      	str	r0, [r5, #16]
 800382a:	b930      	cbnz	r0, 800383a <_svfiprintf_r+0x32>
 800382c:	230c      	movs	r3, #12
 800382e:	6033      	str	r3, [r6, #0]
 8003830:	f04f 30ff 	mov.w	r0, #4294967295
 8003834:	b01c      	add	sp, #112	@ 0x70
 8003836:	e8bd 87f0 	ldmia.w	sp!, {r4, r5, r6, r7, r8, r9, sl, pc}
 800383a:	2340      	movs	r3, #64	@ 0x40
 800383c:	616b      	str	r3, [r5, #20]
 800383e:	2300      	movs	r3, #0
 8003840:	9309      	str	r3, [sp, #36]	@ 0x24
 8003842:	2320      	movs	r3, #32
 8003844:	f88d 3029 	strb.w	r3, [sp, #41]	@ 0x29
 8003848:	9703      	str	r7, [sp, #12]
 800384a:	2330      	movs	r3, #48	@ 0x30
 800384c:	4f65      	ldr	r7, [pc, #404]	@ (80039e4 <_svfiprintf_r+0x1dc>)
 800384e:	f88d 302a 	strb.w	r3, [sp, #42]	@ 0x2a
 8003852:	f04f 0801 	mov.w	r8, #1
 8003856:	4623      	mov	r3, r4
 8003858:	781a      	ldrb	r2, [r3, #0]
 800385a:	4699      	mov	r9, r3
 800385c:	b11a      	cbz	r2, 8003866 <_svfiprintf_r+0x5e>
 800385e:	2a25      	cmp	r2, #37	@ 0x25
 8003860:	f103 0301 	add.w	r3, r3, #1
 8003864:	d1f8      	bne.n	8003858 <_svfiprintf_r+0x50>
 8003866:	ebb9 0a04 	subs.w	sl, r9, r4
 800386a:	d00b      	beq.n	8003884 <_svfiprintf_r+0x7c>
 800386c:	4653      	mov	r3, sl
 800386e:	4622      	mov	r2, r4
 8003870:	4629      	mov	r1, r5
 8003872:	4630      	mov	r0, r6
 8003874:	f7ff feee 	bl	8003654 <__ssputs_r>
 8003878:	3001      	adds	r0, #1
 800387a:	f000 80a3 	beq.w	80039c4 <_svfiprintf_r+0x1bc>
 800387e:	9a09      	ldr	r2, [sp, #36]	@ 0x24
 8003880:	4452      	add	r2, sl
 8003882:	9209      	str	r2, [sp, #36]	@ 0x24
 8003884:	f899 3000 	ldrb.w	r3, [r9]
 8003888:	2b00      	cmp	r3, #0
 800388a:	f000 809b 	beq.w	80039c4 <_svfiprintf_r+0x1bc>
 800388e:	2200      	movs	r2, #0
 8003890:	f04f 33ff 	mov.w	r3, #4294967295
 8003894:	e9cd 3205 	strd	r3, r2, [sp, #20]
 8003898:	f109 0901 	add.w	r9, r9, #1
 800389c:	9204      	str	r2, [sp, #16]
 800389e:	9207      	str	r2, [sp, #28]
 80038a0:	f88d 2053 	strb.w	r2, [sp, #83]	@ 0x53
 80038a4:	921a      	str	r2, [sp, #104]	@ 0x68
 80038a6:	464c      	mov	r4, r9
 80038a8:	2205      	movs	r2, #5
 80038aa:	f814 1b01 	ldrb.w	r1, [r4], #1
 80038ae:	484d      	ldr	r0, [pc, #308]	@ (80039e4 <_svfiprintf_r+0x1dc>)
 80038b0:	f7fc fef6 	bl	80006a0 <memchr>
 80038b4:	9a04      	ldr	r2, [sp, #16]
 80038b6:	b9d0      	cbnz	r0, 80038ee <_svfiprintf_r+0xe6>
 80038b8:	06d0      	lsls	r0, r2, #27
 80038ba:	bf44      	itt	mi
 80038bc:	2320      	movmi	r3, #32
 80038be:	f88d 3053 	strbmi.w	r3, [sp, #83]	@ 0x53
 80038c2:	0711      	lsls	r1, r2, #28
 80038c4:	bf44      	itt	mi
 80038c6:	232b      	movmi	r3, #43	@ 0x2b
 80038c8:	f88d 3053 	strbmi.w	r3, [sp, #83]	@ 0x53
 80038cc:	f899 3000 	ldrb.w	r3, [r9]
 80038d0:	2b2a      	cmp	r3, #42	@ 0x2a
 80038d2:	d013      	beq.n	80038fc <_svfiprintf_r+0xf4>
 80038d4:	9907      	ldr	r1, [sp, #28]
 80038d6:	464b      	mov	r3, r9
 80038d8:	2000      	movs	r0, #0
 80038da:	f04f 0c0a 	mov.w	ip, #10
 80038de:	781a      	ldrb	r2, [r3, #0]
 80038e0:	3a30      	subs	r2, #48	@ 0x30
 80038e2:	2a09      	cmp	r2, #9
 80038e4:	461c      	mov	r4, r3
 80038e6:	d94a      	bls.n	800397e <_svfiprintf_r+0x176>
 80038e8:	b1a8      	cbz	r0, 8003916 <_svfiprintf_r+0x10e>
 80038ea:	9107      	str	r1, [sp, #28]
 80038ec:	e013      	b.n	8003916 <_svfiprintf_r+0x10e>
 80038ee:	1bc0      	subs	r0, r0, r7
 80038f0:	fa08 f000 	lsl.w	r0, r8, r0
 80038f4:	4310      	orrs	r0, r2
 80038f6:	9004      	str	r0, [sp, #16]
 80038f8:	46a1      	mov	r9, r4
 80038fa:	e7d4      	b.n	80038a6 <_svfiprintf_r+0x9e>
 80038fc:	9b03      	ldr	r3, [sp, #12]
 80038fe:	1d19      	adds	r1, r3, #4
 8003900:	681b      	ldr	r3, [r3, #0]
 8003902:	9103      	str	r1, [sp, #12]
 8003904:	2b00      	cmp	r3, #0
 8003906:	bfbb      	ittet	lt
 8003908:	425b      	neglt	r3, r3
 800390a:	f042 0202 	orrlt.w	r2, r2, #2
 800390e:	9307      	strge	r3, [sp, #28]
 8003910:	9307      	strlt	r3, [sp, #28]
 8003912:	bfb8      	it	lt
 8003914:	9204      	strlt	r2, [sp, #16]
 8003916:	7823      	ldrb	r3, [r4, #0]
 8003918:	2b2e      	cmp	r3, #46	@ 0x2e
 800391a:	d10a      	bne.n	8003932 <_svfiprintf_r+0x12a>
 800391c:	7863      	ldrb	r3, [r4, #1]
 800391e:	2b2a      	cmp	r3, #42	@ 0x2a
 8003920:	d132      	bne.n	8003988 <_svfiprintf_r+0x180>
 8003922:	9b03      	ldr	r3, [sp, #12]
 8003924:	1d1a      	adds	r2, r3, #4
 8003926:	681b      	ldr	r3, [r3, #0]
 8003928:	9203      	str	r2, [sp, #12]
 800392a:	ea43 73e3 	orr.w	r3, r3, r3, asr #31
 800392e:	3402      	adds	r4, #2
 8003930:	9305      	str	r3, [sp, #20]
 8003932:	f8df 90c0 	ldr.w	r9, [pc, #192]	@ 80039f4 <_svfiprintf_r+0x1ec>
 8003936:	7821      	ldrb	r1, [r4, #0]
 8003938:	2203      	movs	r2, #3
 800393a:	4648      	mov	r0, r9
 800393c:	f7fc feb0 	bl	80006a0 <memchr>
 8003940:	b138      	cbz	r0, 8003952 <_svfiprintf_r+0x14a>
 8003942:	9b04      	ldr	r3, [sp, #16]
 8003944:	eba0 0009 	sub.w	r0, r0, r9
 8003948:	2240      	movs	r2, #64	@ 0x40
 800394a:	4082      	lsls	r2, r0
 800394c:	4313      	orrs	r3, r2
 800394e:	3401      	adds	r4, #1
 8003950:	9304      	str	r3, [sp, #16]
 8003952:	7821      	ldrb	r1, [r4, #0]
 8003954:	4824      	ldr	r0, [pc, #144]	@ (80039e8 <_svfiprintf_r+0x1e0>)
 8003956:	f88d 1028 	strb.w	r1, [sp, #40]	@ 0x28
 800395a:	2206      	movs	r2, #6
 800395c:	f7fc fea0 	bl	80006a0 <memchr>
 8003960:	2800      	cmp	r0, #0
 8003962:	d035      	beq.n	80039d0 <_svfiprintf_r+0x1c8>
 8003964:	4821      	ldr	r0, [pc, #132]	@ (80039ec <_svfiprintf_r+0x1e4>)
 8003966:	bb18      	cbnz	r0, 80039b0 <_svfiprintf_r+0x1a8>
 8003968:	9b03      	ldr	r3, [sp, #12]
 800396a:	3307      	adds	r3, #7
 800396c:	f023 0307 	bic.w	r3, r3, #7
 8003970:	3308      	adds	r3, #8
 8003972:	9303      	str	r3, [sp, #12]
 8003974:	9b09      	ldr	r3, [sp, #36]	@ 0x24
 8003976:	4403      	add	r3, r0
 8003978:	3401      	adds	r4, #1
 800397a:	9309      	str	r3, [sp, #36]	@ 0x24
 800397c:	e76b      	b.n	8003856 <_svfiprintf_r+0x4e>
 800397e:	3301      	adds	r3, #1
 8003980:	fb0c 2101 	mla	r1, ip, r1, r2
 8003984:	2001      	movs	r0, #1
 8003986:	e7aa      	b.n	80038de <_svfiprintf_r+0xd6>
 8003988:	2300      	movs	r3, #0
 800398a:	9305      	str	r3, [sp, #20]
 800398c:	1c61      	adds	r1, r4, #1
 800398e:	4618      	mov	r0, r3
 8003990:	f04f 0c0a 	mov.w	ip, #10
 8003994:	780a      	ldrb	r2, [r1, #0]
 8003996:	3a30      	subs	r2, #48	@ 0x30
 8003998:	2a09      	cmp	r2, #9
 800399a:	460c      	mov	r4, r1
 800399c:	d903      	bls.n	80039a6 <_svfiprintf_r+0x19e>
 800399e:	2b00      	cmp	r3, #0
 80039a0:	d0c7      	beq.n	8003932 <_svfiprintf_r+0x12a>
 80039a2:	9005      	str	r0, [sp, #20]
 80039a4:	e7c5      	b.n	8003932 <_svfiprintf_r+0x12a>
 80039a6:	3101      	adds	r1, #1
 80039a8:	fb0c 2000 	mla	r0, ip, r0, r2
 80039ac:	2301      	movs	r3, #1
 80039ae:	e7f1      	b.n	8003994 <_svfiprintf_r+0x18c>
 80039b0:	ab03      	add	r3, sp, #12
 80039b2:	9300      	str	r3, [sp, #0]
 80039b4:	462a      	mov	r2, r5
 80039b6:	4b0e      	ldr	r3, [pc, #56]	@ (80039f0 <_svfiprintf_r+0x1e8>)
 80039b8:	a904      	add	r1, sp, #16
 80039ba:	4630      	mov	r0, r6
 80039bc:	f7fd fd2a 	bl	8001414 <_printf_float>
 80039c0:	1c42      	adds	r2, r0, #1
 80039c2:	d1d7      	bne.n	8003974 <_svfiprintf_r+0x16c>
 80039c4:	89ab      	ldrh	r3, [r5, #12]
 80039c6:	065b      	lsls	r3, r3, #25
 80039c8:	f53f af32 	bmi.w	8003830 <_svfiprintf_r+0x28>
 80039cc:	9809      	ldr	r0, [sp, #36]	@ 0x24
 80039ce:	e731      	b.n	8003834 <_svfiprintf_r+0x2c>
 80039d0:	ab03      	add	r3, sp, #12
 80039d2:	9300      	str	r3, [sp, #0]
 80039d4:	462a      	mov	r2, r5
 80039d6:	4b06      	ldr	r3, [pc, #24]	@ (80039f0 <_svfiprintf_r+0x1e8>)
 80039d8:	a904      	add	r1, sp, #16
 80039da:	4630      	mov	r0, r6
 80039dc:	f7fd ffb4 	bl	8001948 <_printf_i>
 80039e0:	e7ee      	b.n	80039c0 <_svfiprintf_r+0x1b8>
 80039e2:	bf00      	nop
 80039e4:	08004c96 			@ <UNDEFINED> instruction: 08004c96
 80039e8:	08004ca0 			@ <UNDEFINED> instruction: 08004ca0
 80039ec:	08001415 			@ <UNDEFINED> instruction: 08001415
 80039f0:	08003655 			@ <UNDEFINED> instruction: 08003655
 80039f4:	08004c9c 			@ <UNDEFINED> instruction: 08004c9c

Disassembly of section .text.__sfputc_r:

080039f8 <__sfputc_r>:
 80039f8:	6893      	ldr	r3, [r2, #8]
 80039fa:	3b01      	subs	r3, #1
 80039fc:	2b00      	cmp	r3, #0
 80039fe:	b410      	push	{r4}
 8003a00:	6093      	str	r3, [r2, #8]
 8003a02:	da07      	bge.n	8003a14 <__sfputc_r+0x1c>
 8003a04:	6994      	ldr	r4, [r2, #24]
 8003a06:	42a3      	cmp	r3, r4
 8003a08:	db01      	blt.n	8003a0e <__sfputc_r+0x16>
 8003a0a:	290a      	cmp	r1, #10
 8003a0c:	d102      	bne.n	8003a14 <__sfputc_r+0x1c>
 8003a0e:	bc10      	pop	{r4}
 8003a10:	f000 bd3c 	b.w	800448c <__swbuf_r>
 8003a14:	6813      	ldr	r3, [r2, #0]
 8003a16:	1c58      	adds	r0, r3, #1
 8003a18:	6010      	str	r0, [r2, #0]
 8003a1a:	7019      	strb	r1, [r3, #0]
 8003a1c:	4608      	mov	r0, r1
 8003a1e:	bc10      	pop	{r4}
 8003a20:	4770      	bx	lr

Disassembly of section .text.__sfputs_r:

08003a22 <__sfputs_r>:
 8003a22:	b5f8      	push	{r3, r4, r5, r6, r7, lr}
 8003a24:	4606      	mov	r6, r0
 8003a26:	460f      	mov	r7, r1
 8003a28:	4614      	mov	r4, r2
 8003a2a:	18d5      	adds	r5, r2, r3
 8003a2c:	42ac      	cmp	r4, r5
 8003a2e:	d101      	bne.n	8003a34 <__sfputs_r+0x12>
 8003a30:	2000      	movs	r0, #0
 8003a32:	e007      	b.n	8003a44 <__sfputs_r+0x22>
 8003a34:	f814 1b01 	ldrb.w	r1, [r4], #1
 8003a38:	463a      	mov	r2, r7
 8003a3a:	4630      	mov	r0, r6
 8003a3c:	f7ff ffdc 	bl	80039f8 <__sfputc_r>
 8003a40:	1c43      	adds	r3, r0, #1
 8003a42:	d1f3      	bne.n	8003a2c <__sfputs_r+0xa>
 8003a44:	bdf8      	pop	{r3, r4, r5, r6, r7, pc}

Disassembly of section .text.__sprint_r:

08003a46 <__sprint_r>:
 8003a46:	6893      	ldr	r3, [r2, #8]
 8003a48:	b510      	push	{r4, lr}
 8003a4a:	4614      	mov	r4, r2
 8003a4c:	b133      	cbz	r3, 8003a5c <__sprint_r+0x16>
 8003a4e:	f000 fb0d 	bl	800406c <__sfvwrite_r>
 8003a52:	2300      	movs	r3, #0
 8003a54:	60a3      	str	r3, [r4, #8]
 8003a56:	2300      	movs	r3, #0
 8003a58:	6063      	str	r3, [r4, #4]
 8003a5a:	bd10      	pop	{r4, pc}
 8003a5c:	4618      	mov	r0, r3
 8003a5e:	e7fa      	b.n	8003a56 <__sprint_r+0x10>

Disassembly of section .text._vfprintf_r:

08003a60 <_vfiprintf_r>:
 8003a60:	e92d 47f0 	stmdb	sp!, {r4, r5, r6, r7, r8, r9, sl, lr}
 8003a64:	4606      	mov	r6, r0
 8003a66:	b09c      	sub	sp, #112	@ 0x70
 8003a68:	460d      	mov	r5, r1
 8003a6a:	4614      	mov	r4, r2
 8003a6c:	461f      	mov	r7, r3
 8003a6e:	b118      	cbz	r0, 8003a78 <_vfiprintf_r+0x18>
 8003a70:	6a03      	ldr	r3, [r0, #32]
 8003a72:	b90b      	cbnz	r3, 8003a78 <_vfiprintf_r+0x18>
 8003a74:	f000 fac6 	bl	8004004 <__sinit>
 8003a78:	6e6b      	ldr	r3, [r5, #100]	@ 0x64
 8003a7a:	07d9      	lsls	r1, r3, #31
 8003a7c:	d405      	bmi.n	8003a8a <_vfiprintf_r+0x2a>
 8003a7e:	89ab      	ldrh	r3, [r5, #12]
 8003a80:	059a      	lsls	r2, r3, #22
 8003a82:	d402      	bmi.n	8003a8a <_vfiprintf_r+0x2a>
 8003a84:	6da8      	ldr	r0, [r5, #88]	@ 0x58
 8003a86:	f7fe f992 	bl	8001dae <__retarget_lock_acquire_recursive>
 8003a8a:	89ab      	ldrh	r3, [r5, #12]
 8003a8c:	071b      	lsls	r3, r3, #28
 8003a8e:	d501      	bpl.n	8003a94 <_vfiprintf_r+0x34>
 8003a90:	692b      	ldr	r3, [r5, #16]
 8003a92:	b99b      	cbnz	r3, 8003abc <_vfiprintf_r+0x5c>
 8003a94:	4629      	mov	r1, r5
 8003a96:	4630      	mov	r0, r6
 8003a98:	f000 fd3e 	bl	8004518 <__swsetup_r>
 8003a9c:	b170      	cbz	r0, 8003abc <_vfiprintf_r+0x5c>
 8003a9e:	6e6b      	ldr	r3, [r5, #100]	@ 0x64
 8003aa0:	07de      	lsls	r6, r3, #31
 8003aa2:	d504      	bpl.n	8003aae <_vfiprintf_r+0x4e>
 8003aa4:	f04f 30ff 	mov.w	r0, #4294967295
 8003aa8:	b01c      	add	sp, #112	@ 0x70
 8003aaa:	e8bd 87f0 	ldmia.w	sp!, {r4, r5, r6, r7, r8, r9, sl, pc}
 8003aae:	89ab      	ldrh	r3, [r5, #12]
 8003ab0:	059c      	lsls	r4, r3, #22
 8003ab2:	d4f7      	bmi.n	8003aa4 <_vfiprintf_r+0x44>
 8003ab4:	6da8      	ldr	r0, [r5, #88]	@ 0x58
 8003ab6:	f7fe f980 	bl	8001dba <__retarget_lock_release_recursive>
 8003aba:	e7f3      	b.n	8003aa4 <_vfiprintf_r+0x44>
 8003abc:	2300      	movs	r3, #0
 8003abe:	9309      	str	r3, [sp, #36]	@ 0x24
 8003ac0:	2320      	movs	r3, #32
 8003ac2:	f88d 3029 	strb.w	r3, [sp, #41]	@ 0x29
 8003ac6:	9703      	str	r7, [sp, #12]
 8003ac8:	2330      	movs	r3, #48	@ 0x30
 8003aca:	4f6a      	ldr	r7, [pc, #424]	@ (8003c74 <_vfiprintf_r+0x214>)
 8003acc:	f88d 302a 	strb.w	r3, [sp, #42]	@ 0x2a
 8003ad0:	f04f 0801 	mov.w	r8, #1
 8003ad4:	4623      	mov	r3, r4
 8003ad6:	781a      	ldrb	r2, [r3, #0]
 8003ad8:	4699      	mov	r9, r3
 8003ada:	b11a      	cbz	r2, 8003ae4 <_vfiprintf_r+0x84>
 8003adc:	2a25      	cmp	r2, #37	@ 0x25
 8003ade:	f103 0301 	add.w	r3, r3, #1
 8003ae2:	d1f8      	bne.n	8003ad6 <_vfiprintf_r+0x76>
 8003ae4:	ebb9 0a04 	subs.w	sl, r9, r4
 8003ae8:	d00b      	beq.n	8003b02 <_vfiprintf_r+0xa2>
 8003aea:	4653      	mov	r3, sl
 8003aec:	4622      	mov	r2, r4
 8003aee:	4629      	mov	r1, r5
 8003af0:	4630      	mov	r0, r6
 8003af2:	f7ff ff96 	bl	8003a22 <__sfputs_r>
 8003af6:	3001      	adds	r0, #1
 8003af8:	f000 80a3 	beq.w	8003c42 <_vfiprintf_r+0x1e2>
 8003afc:	9a09      	ldr	r2, [sp, #36]	@ 0x24
 8003afe:	4452      	add	r2, sl
 8003b00:	9209      	str	r2, [sp, #36]	@ 0x24
 8003b02:	f899 3000 	ldrb.w	r3, [r9]
 8003b06:	2b00      	cmp	r3, #0
 8003b08:	f000 809b 	beq.w	8003c42 <_vfiprintf_r+0x1e2>
 8003b0c:	2200      	movs	r2, #0
 8003b0e:	f04f 33ff 	mov.w	r3, #4294967295
 8003b12:	e9cd 3205 	strd	r3, r2, [sp, #20]
 8003b16:	f109 0901 	add.w	r9, r9, #1
 8003b1a:	9204      	str	r2, [sp, #16]
 8003b1c:	9207      	str	r2, [sp, #28]
 8003b1e:	f88d 2053 	strb.w	r2, [sp, #83]	@ 0x53
 8003b22:	921a      	str	r2, [sp, #104]	@ 0x68
 8003b24:	464c      	mov	r4, r9
 8003b26:	2205      	movs	r2, #5
 8003b28:	f814 1b01 	ldrb.w	r1, [r4], #1
 8003b2c:	4851      	ldr	r0, [pc, #324]	@ (8003c74 <_vfiprintf_r+0x214>)
 8003b2e:	f7fc fdb7 	bl	80006a0 <memchr>
 8003b32:	9a04      	ldr	r2, [sp, #16]
 8003b34:	b9d0      	cbnz	r0, 8003b6c <_vfiprintf_r+0x10c>
 8003b36:	06d0      	lsls	r0, r2, #27
 8003b38:	bf44      	itt	mi
 8003b3a:	2320      	movmi	r3, #32
 8003b3c:	f88d 3053 	strbmi.w	r3, [sp, #83]	@ 0x53
 8003b40:	0711      	lsls	r1, r2, #28
 8003b42:	bf44      	itt	mi
 8003b44:	232b      	movmi	r3, #43	@ 0x2b
 8003b46:	f88d 3053 	strbmi.w	r3, [sp, #83]	@ 0x53
 8003b4a:	f899 3000 	ldrb.w	r3, [r9]
 8003b4e:	2b2a      	cmp	r3, #42	@ 0x2a
 8003b50:	d013      	beq.n	8003b7a <_vfiprintf_r+0x11a>
 8003b52:	9907      	ldr	r1, [sp, #28]
 8003b54:	464b      	mov	r3, r9
 8003b56:	2000      	movs	r0, #0
 8003b58:	f04f 0c0a 	mov.w	ip, #10
 8003b5c:	781a      	ldrb	r2, [r3, #0]
 8003b5e:	3a30      	subs	r2, #48	@ 0x30
 8003b60:	2a09      	cmp	r2, #9
 8003b62:	461c      	mov	r4, r3
 8003b64:	d94a      	bls.n	8003bfc <_vfiprintf_r+0x19c>
 8003b66:	b1a8      	cbz	r0, 8003b94 <_vfiprintf_r+0x134>
 8003b68:	9107      	str	r1, [sp, #28]
 8003b6a:	e013      	b.n	8003b94 <_vfiprintf_r+0x134>
 8003b6c:	1bc0      	subs	r0, r0, r7
 8003b6e:	fa08 f000 	lsl.w	r0, r8, r0
 8003b72:	4310      	orrs	r0, r2
 8003b74:	9004      	str	r0, [sp, #16]
 8003b76:	46a1      	mov	r9, r4
 8003b78:	e7d4      	b.n	8003b24 <_vfiprintf_r+0xc4>
 8003b7a:	9b03      	ldr	r3, [sp, #12]
 8003b7c:	1d19      	adds	r1, r3, #4
 8003b7e:	681b      	ldr	r3, [r3, #0]
 8003b80:	9103      	str	r1, [sp, #12]
 8003b82:	2b00      	cmp	r3, #0
 8003b84:	bfbb      	ittet	lt
 8003b86:	425b      	neglt	r3, r3
 8003b88:	f042 0202 	orrlt.w	r2, r2, #2
 8003b8c:	9307      	strge	r3, [sp, #28]
 8003b8e:	9307      	strlt	r3, [sp, #28]
 8003b90:	bfb8      	it	lt
 8003b92:	9204      	strlt	r2, [sp, #16]
 8003b94:	7823      	ldrb	r3, [r4, #0]
 8003b96:	2b2e      	cmp	r3, #46	@ 0x2e
 8003b98:	d10a      	bne.n	8003bb0 <_vfiprintf_r+0x150>
 8003b9a:	7863      	ldrb	r3, [r4, #1]
 8003b9c:	2b2a      	cmp	r3, #42	@ 0x2a
 8003b9e:	d132      	bne.n	8003c06 <_vfiprintf_r+0x1a6>
 8003ba0:	9b03      	ldr	r3, [sp, #12]
 8003ba2:	1d1a      	adds	r2, r3, #4
 8003ba4:	681b      	ldr	r3, [r3, #0]
 8003ba6:	9203      	str	r2, [sp, #12]
 8003ba8:	ea43 73e3 	orr.w	r3, r3, r3, asr #31
 8003bac:	3402      	adds	r4, #2
 8003bae:	9305      	str	r3, [sp, #20]
 8003bb0:	f8df 90d0 	ldr.w	r9, [pc, #208]	@ 8003c84 <_vfiprintf_r+0x224>
 8003bb4:	7821      	ldrb	r1, [r4, #0]
 8003bb6:	2203      	movs	r2, #3
 8003bb8:	4648      	mov	r0, r9
 8003bba:	f7fc fd71 	bl	80006a0 <memchr>
 8003bbe:	b138      	cbz	r0, 8003bd0 <_vfiprintf_r+0x170>
 8003bc0:	9b04      	ldr	r3, [sp, #16]
 8003bc2:	eba0 0009 	sub.w	r0, r0, r9
 8003bc6:	2240      	movs	r2, #64	@ 0x40
 8003bc8:	4082      	lsls	r2, r0
 8003bca:	4313      	orrs	r3, r2
 8003bcc:	3401      	adds	r4, #1
 8003bce:	9304      	str	r3, [sp, #16]
 8003bd0:	7821      	ldrb	r1, [r4, #0]
 8003bd2:	4829      	ldr	r0, [pc, #164]	@ (8003c78 <_vfiprintf_r+0x218>)
 8003bd4:	f88d 1028 	strb.w	r1, [sp, #40]	@ 0x28
 8003bd8:	2206      	movs	r2, #6
 8003bda:	f7fc fd61 	bl	80006a0 <memchr>
 8003bde:	2800      	cmp	r0, #0
 8003be0:	d03e      	beq.n	8003c60 <_vfiprintf_r+0x200>
 8003be2:	4826      	ldr	r0, [pc, #152]	@ (8003c7c <_vfiprintf_r+0x21c>)
 8003be4:	bb18      	cbnz	r0, 8003c2e <_vfiprintf_r+0x1ce>
 8003be6:	9b03      	ldr	r3, [sp, #12]
 8003be8:	3307      	adds	r3, #7
 8003bea:	f023 0307 	bic.w	r3, r3, #7
 8003bee:	3308      	adds	r3, #8
 8003bf0:	9303      	str	r3, [sp, #12]
 8003bf2:	9b09      	ldr	r3, [sp, #36]	@ 0x24
 8003bf4:	4403      	add	r3, r0
 8003bf6:	3401      	adds	r4, #1
 8003bf8:	9309      	str	r3, [sp, #36]	@ 0x24
 8003bfa:	e76b      	b.n	8003ad4 <_vfiprintf_r+0x74>
 8003bfc:	3301      	adds	r3, #1
 8003bfe:	fb0c 2101 	mla	r1, ip, r1, r2
 8003c02:	2001      	movs	r0, #1
 8003c04:	e7aa      	b.n	8003b5c <_vfiprintf_r+0xfc>
 8003c06:	2300      	movs	r3, #0
 8003c08:	9305      	str	r3, [sp, #20]
 8003c0a:	1c61      	adds	r1, r4, #1
 8003c0c:	4618      	mov	r0, r3
 8003c0e:	f04f 0c0a 	mov.w	ip, #10
 8003c12:	780a      	ldrb	r2, [r1, #0]
 8003c14:	3a30      	subs	r2, #48	@ 0x30
 8003c16:	2a09      	cmp	r2, #9
 8003c18:	460c      	mov	r4, r1
 8003c1a:	d903      	bls.n	8003c24 <_vfiprintf_r+0x1c4>
 8003c1c:	2b00      	cmp	r3, #0
 8003c1e:	d0c7      	beq.n	8003bb0 <_vfiprintf_r+0x150>
 8003c20:	9005      	str	r0, [sp, #20]
 8003c22:	e7c5      	b.n	8003bb0 <_vfiprintf_r+0x150>
 8003c24:	3101      	adds	r1, #1
 8003c26:	fb0c 2000 	mla	r0, ip, r0, r2
 8003c2a:	2301      	movs	r3, #1
 8003c2c:	e7f1      	b.n	8003c12 <_vfiprintf_r+0x1b2>
 8003c2e:	ab03      	add	r3, sp, #12
 8003c30:	9300      	str	r3, [sp, #0]
 8003c32:	462a      	mov	r2, r5
 8003c34:	4b12      	ldr	r3, [pc, #72]	@ (8003c80 <_vfiprintf_r+0x220>)
 8003c36:	a904      	add	r1, sp, #16
 8003c38:	4630      	mov	r0, r6
 8003c3a:	f7fd fbeb 	bl	8001414 <_printf_float>
 8003c3e:	1c43      	adds	r3, r0, #1
 8003c40:	d1d7      	bne.n	8003bf2 <_vfiprintf_r+0x192>
 8003c42:	6e6b      	ldr	r3, [r5, #100]	@ 0x64
 8003c44:	07d9      	lsls	r1, r3, #31
 8003c46:	d405      	bmi.n	8003c54 <_vfiprintf_r+0x1f4>
 8003c48:	89ab      	ldrh	r3, [r5, #12]
 8003c4a:	059a      	lsls	r2, r3, #22
 8003c4c:	d402      	bmi.n	8003c54 <_vfiprintf_r+0x1f4>
 8003c4e:	6da8      	ldr	r0, [r5, #88]	@ 0x58
 8003c50:	f7fe f8b3 	bl	8001dba <__retarget_lock_release_recursive>
 8003c54:	89ab      	ldrh	r3, [r5, #12]
 8003c56:	065b      	lsls	r3, r3, #25
 8003c58:	f53f af24 	bmi.w	8003aa4 <_vfiprintf_r+0x44>
 8003c5c:	9809      	ldr	r0, [sp, #36]	@ 0x24
 8003c5e:	e723      	b.n	8003aa8 <_vfiprintf_r+0x48>
 8003c60:	ab03      	add	r3, sp, #12
 8003c62:	9300      	str	r3, [sp, #0]
 8003c64:	462a      	mov	r2, r5
 8003c66:	4b06      	ldr	r3, [pc, #24]	@ (8003c80 <_vfiprintf_r+0x220>)
 8003c68:	a904      	add	r1, sp, #16
 8003c6a:	4630      	mov	r0, r6
 8003c6c:	f7fd fe6c 	bl	8001948 <_printf_i>
 8003c70:	e7e5      	b.n	8003c3e <_vfiprintf_r+0x1de>
 8003c72:	bf00      	nop
 8003c74:	08004c96 			@ <UNDEFINED> instruction: 08004c96
 8003c78:	08004ca0 			@ <UNDEFINED> instruction: 08004ca0
 8003c7c:	08001415 			@ <UNDEFINED> instruction: 08001415
 8003c80:	08003a23 			@ <UNDEFINED> instruction: 08003a23
 8003c84:	08004c9c 			@ <UNDEFINED> instruction: 08004c9c

Disassembly of section .text.vfprintf:

08003c88 <vfiprintf>:
 8003c88:	4613      	mov	r3, r2
 8003c8a:	460a      	mov	r2, r1
 8003c8c:	4601      	mov	r1, r0
 8003c8e:	4802      	ldr	r0, [pc, #8]	@ (8003c98 <vfiprintf+0x10>)
 8003c90:	6800      	ldr	r0, [r0, #0]
 8003c92:	f7ff bee5 	b.w	8003a60 <_vfiprintf_r>
 8003c96:	bf00      	nop
 8003c98:	20000004 			@ <UNDEFINED> instruction: 20000004

Disassembly of section .text.__sflush_r:

08003c9c <__sflush_r>:
 8003c9c:	f9b1 200c 	ldrsh.w	r2, [r1, #12]
 8003ca0:	e92d 41f0 	stmdb	sp!, {r4, r5, r6, r7, r8, lr}
 8003ca4:	0716      	lsls	r6, r2, #28
 8003ca6:	4605      	mov	r5, r0
 8003ca8:	460c      	mov	r4, r1
 8003caa:	d451      	bmi.n	8003d50 <__sflush_r+0xb4>
 8003cac:	684b      	ldr	r3, [r1, #4]
 8003cae:	2b00      	cmp	r3, #0
 8003cb0:	dc02      	bgt.n	8003cb8 <__sflush_r+0x1c>
 8003cb2:	6c0b      	ldr	r3, [r1, #64]	@ 0x40
 8003cb4:	2b00      	cmp	r3, #0
 8003cb6:	dd49      	ble.n	8003d4c <__sflush_r+0xb0>
 8003cb8:	6ae6      	ldr	r6, [r4, #44]	@ 0x2c
 8003cba:	2e00      	cmp	r6, #0
 8003cbc:	d046      	beq.n	8003d4c <__sflush_r+0xb0>
 8003cbe:	2300      	movs	r3, #0
 8003cc0:	f412 5280 	ands.w	r2, r2, #4096	@ 0x1000
 8003cc4:	682f      	ldr	r7, [r5, #0]
 8003cc6:	602b      	str	r3, [r5, #0]
 8003cc8:	d031      	beq.n	8003d2e <__sflush_r+0x92>
 8003cca:	6d62      	ldr	r2, [r4, #84]	@ 0x54
 8003ccc:	89a3      	ldrh	r3, [r4, #12]
 8003cce:	0759      	lsls	r1, r3, #29
 8003cd0:	d505      	bpl.n	8003cde <__sflush_r+0x42>
 8003cd2:	6863      	ldr	r3, [r4, #4]
 8003cd4:	1ad2      	subs	r2, r2, r3
 8003cd6:	6b63      	ldr	r3, [r4, #52]	@ 0x34
 8003cd8:	b10b      	cbz	r3, 8003cde <__sflush_r+0x42>
 8003cda:	6c23      	ldr	r3, [r4, #64]	@ 0x40
 8003cdc:	1ad2      	subs	r2, r2, r3
 8003cde:	2300      	movs	r3, #0
 8003ce0:	6ae6      	ldr	r6, [r4, #44]	@ 0x2c
 8003ce2:	6a21      	ldr	r1, [r4, #32]
 8003ce4:	4628      	mov	r0, r5
 8003ce6:	47b0      	blx	r6
 8003ce8:	1c42      	adds	r2, r0, #1
 8003cea:	f9b4 300c 	ldrsh.w	r3, [r4, #12]
 8003cee:	d106      	bne.n	8003cfe <__sflush_r+0x62>
 8003cf0:	6829      	ldr	r1, [r5, #0]
 8003cf2:	291d      	cmp	r1, #29
 8003cf4:	d845      	bhi.n	8003d82 <__sflush_r+0xe6>
 8003cf6:	4a28      	ldr	r2, [pc, #160]	@ (8003d98 <__sflush_r+0xfc>)
 8003cf8:	40ca      	lsrs	r2, r1
 8003cfa:	07d6      	lsls	r6, r2, #31
 8003cfc:	d541      	bpl.n	8003d82 <__sflush_r+0xe6>
 8003cfe:	2200      	movs	r2, #0
 8003d00:	6062      	str	r2, [r4, #4]
 8003d02:	04d9      	lsls	r1, r3, #19
 8003d04:	6922      	ldr	r2, [r4, #16]
 8003d06:	6022      	str	r2, [r4, #0]
 8003d08:	d504      	bpl.n	8003d14 <__sflush_r+0x78>
 8003d0a:	1c42      	adds	r2, r0, #1
 8003d0c:	d101      	bne.n	8003d12 <__sflush_r+0x76>
 8003d0e:	682b      	ldr	r3, [r5, #0]
 8003d10:	b903      	cbnz	r3, 8003d14 <__sflush_r+0x78>
 8003d12:	6560      	str	r0, [r4, #84]	@ 0x54
 8003d14:	6b61      	ldr	r1, [r4, #52]	@ 0x34
 8003d16:	602f      	str	r7, [r5, #0]
 8003d18:	b1c1      	cbz	r1, 8003d4c <__sflush_r+0xb0>
 8003d1a:	f104 0344 	add.w	r3, r4, #68	@ 0x44
 8003d1e:	4299      	cmp	r1, r3
 8003d20:	d002      	beq.n	8003d28 <__sflush_r+0x8c>
 8003d22:	4628      	mov	r0, r5
 8003d24:	f7fe feaa 	bl	8002a7c <_free_r>
 8003d28:	2300      	movs	r3, #0
 8003d2a:	6363      	str	r3, [r4, #52]	@ 0x34
 8003d2c:	e00e      	b.n	8003d4c <__sflush_r+0xb0>
 8003d2e:	6a21      	ldr	r1, [r4, #32]
 8003d30:	2301      	movs	r3, #1
 8003d32:	4628      	mov	r0, r5
 8003d34:	47b0      	blx	r6
 8003d36:	4602      	mov	r2, r0
 8003d38:	1c50      	adds	r0, r2, #1
 8003d3a:	d1c7      	bne.n	8003ccc <__sflush_r+0x30>
 8003d3c:	682b      	ldr	r3, [r5, #0]
 8003d3e:	2b00      	cmp	r3, #0
 8003d40:	d0c4      	beq.n	8003ccc <__sflush_r+0x30>
 8003d42:	2b1d      	cmp	r3, #29
 8003d44:	d001      	beq.n	8003d4a <__sflush_r+0xae>
 8003d46:	2b16      	cmp	r3, #22
 8003d48:	d11a      	bne.n	8003d80 <__sflush_r+0xe4>
 8003d4a:	602f      	str	r7, [r5, #0]
 8003d4c:	2000      	movs	r0, #0
 8003d4e:	e01d      	b.n	8003d8c <__sflush_r+0xf0>
 8003d50:	690f      	ldr	r7, [r1, #16]
 8003d52:	2f00      	cmp	r7, #0
 8003d54:	d0fa      	beq.n	8003d4c <__sflush_r+0xb0>
 8003d56:	0793      	lsls	r3, r2, #30
 8003d58:	680e      	ldr	r6, [r1, #0]
 8003d5a:	bf08      	it	eq
 8003d5c:	694b      	ldreq	r3, [r1, #20]
 8003d5e:	600f      	str	r7, [r1, #0]
 8003d60:	bf18      	it	ne
 8003d62:	2300      	movne	r3, #0
 8003d64:	eba6 0807 	sub.w	r8, r6, r7
 8003d68:	608b      	str	r3, [r1, #8]
 8003d6a:	f1b8 0f00 	cmp.w	r8, #0
 8003d6e:	dded      	ble.n	8003d4c <__sflush_r+0xb0>
 8003d70:	6a21      	ldr	r1, [r4, #32]
 8003d72:	6aa6      	ldr	r6, [r4, #40]	@ 0x28
 8003d74:	4643      	mov	r3, r8
 8003d76:	463a      	mov	r2, r7
 8003d78:	4628      	mov	r0, r5
 8003d7a:	47b0      	blx	r6
 8003d7c:	2800      	cmp	r0, #0
 8003d7e:	dc07      	bgt.n	8003d90 <__sflush_r+0xf4>
 8003d80:	89a3      	ldrh	r3, [r4, #12]
 8003d82:	f043 0340 	orr.w	r3, r3, #64	@ 0x40
 8003d86:	81a3      	strh	r3, [r4, #12]
 8003d88:	f04f 30ff 	mov.w	r0, #4294967295
 8003d8c:	e8bd 81f0 	ldmia.w	sp!, {r4, r5, r6, r7, r8, pc}
 8003d90:	4407      	add	r7, r0
 8003d92:	eba8 0800 	sub.w	r8, r8, r0
 8003d96:	e7e8      	b.n	8003d6a <__sflush_r+0xce>
 8003d98:	20400001 			@ <UNDEFINED> instruction: 20400001

Disassembly of section .text._fflush_r:

08003d9c <_fflush_r>:
 8003d9c:	b538      	push	{r3, r4, r5, lr}
 8003d9e:	690b      	ldr	r3, [r1, #16]
 8003da0:	4605      	mov	r5, r0
 8003da2:	460c      	mov	r4, r1
 8003da4:	b913      	cbnz	r3, 8003dac <_fflush_r+0x10>
 8003da6:	461d      	mov	r5, r3
 8003da8:	4628      	mov	r0, r5
 8003daa:	bd38      	pop	{r3, r4, r5, pc}
 8003dac:	b118      	cbz	r0, 8003db6 <_fflush_r+0x1a>
 8003dae:	6a03      	ldr	r3, [r0, #32]
 8003db0:	b90b      	cbnz	r3, 8003db6 <_fflush_r+0x1a>
 8003db2:	f000 f927 	bl	8004004 <__sinit>
 8003db6:	f9b4 300c 	ldrsh.w	r3, [r4, #12]
 8003dba:	2b00      	cmp	r3, #0
 8003dbc:	d0f3      	beq.n	8003da6 <_fflush_r+0xa>
 8003dbe:	6e62      	ldr	r2, [r4, #100]	@ 0x64
 8003dc0:	07d0      	lsls	r0, r2, #31
 8003dc2:	d404      	bmi.n	8003dce <_fflush_r+0x32>
 8003dc4:	0599      	lsls	r1, r3, #22
 8003dc6:	d402      	bmi.n	8003dce <_fflush_r+0x32>
 8003dc8:	6da0      	ldr	r0, [r4, #88]	@ 0x58
 8003dca:	f7fd fff0 	bl	8001dae <__retarget_lock_acquire_recursive>
 8003dce:	4628      	mov	r0, r5
 8003dd0:	4621      	mov	r1, r4
 8003dd2:	f7ff ff63 	bl	8003c9c <__sflush_r>
 8003dd6:	6e63      	ldr	r3, [r4, #100]	@ 0x64
 8003dd8:	07da      	lsls	r2, r3, #31
 8003dda:	4605      	mov	r5, r0
 8003ddc:	d4e4      	bmi.n	8003da8 <_fflush_r+0xc>
 8003dde:	89a3      	ldrh	r3, [r4, #12]
 8003de0:	059b      	lsls	r3, r3, #22
 8003de2:	d4e1      	bmi.n	8003da8 <_fflush_r+0xc>
 8003de4:	6da0      	ldr	r0, [r4, #88]	@ 0x58
 8003de6:	f7fd ffe8 	bl	8001dba <__retarget_lock_release_recursive>
 8003dea:	e7dd      	b.n	8003da8 <_fflush_r+0xc>

Disassembly of section .text.fflush:

08003dec <fflush>:
 8003dec:	4601      	mov	r1, r0
 8003dee:	b920      	cbnz	r0, 8003dfa <fflush+0xe>
 8003df0:	4a04      	ldr	r2, [pc, #16]	@ (8003e04 <fflush+0x18>)
 8003df2:	4905      	ldr	r1, [pc, #20]	@ (8003e08 <fflush+0x1c>)
 8003df4:	4805      	ldr	r0, [pc, #20]	@ (8003e0c <fflush+0x20>)
 8003df6:	f000 ba89 	b.w	800430c <_fwalk_sglue>
 8003dfa:	4b05      	ldr	r3, [pc, #20]	@ (8003e10 <fflush+0x24>)
 8003dfc:	6818      	ldr	r0, [r3, #0]
 8003dfe:	f7ff bfcd 	b.w	8003d9c <_fflush_r>
 8003e02:	bf00      	nop
 8003e04:	20000054 			@ <UNDEFINED> instruction: 20000054
 8003e08:	08003d9d 			@ <UNDEFINED> instruction: 08003d9d
 8003e0c:	20000008 			@ <UNDEFINED> instruction: 20000008
 8003e10:	20000004 			@ <UNDEFINED> instruction: 20000004

Disassembly of section .text.std:

08003e14 <std>:
 8003e14:	2300      	movs	r3, #0
 8003e16:	b510      	push	{r4, lr}
 8003e18:	4604      	mov	r4, r0
 8003e1a:	e9c0 3300 	strd	r3, r3, [r0]
 8003e1e:	e9c0 3304 	strd	r3, r3, [r0, #16]
 8003e22:	6083      	str	r3, [r0, #8]
 8003e24:	8181      	strh	r1, [r0, #12]
 8003e26:	6643      	str	r3, [r0, #100]	@ 0x64
 8003e28:	81c2      	strh	r2, [r0, #14]
 8003e2a:	6183      	str	r3, [r0, #24]
 8003e2c:	4619      	mov	r1, r3
 8003e2e:	2208      	movs	r2, #8
 8003e30:	305c      	adds	r0, #92	@ 0x5c
 8003e32:	f000 fbde 	bl	80045f2 <memset>
 8003e36:	4b0d      	ldr	r3, [pc, #52]	@ (8003e6c <std+0x58>)
 8003e38:	6263      	str	r3, [r4, #36]	@ 0x24
 8003e3a:	4b0d      	ldr	r3, [pc, #52]	@ (8003e70 <std+0x5c>)
 8003e3c:	62a3      	str	r3, [r4, #40]	@ 0x28
 8003e3e:	4b0d      	ldr	r3, [pc, #52]	@ (8003e74 <std+0x60>)
 8003e40:	62e3      	str	r3, [r4, #44]	@ 0x2c
 8003e42:	4b0d      	ldr	r3, [pc, #52]	@ (8003e78 <std+0x64>)
 8003e44:	6323      	str	r3, [r4, #48]	@ 0x30
 8003e46:	4b0d      	ldr	r3, [pc, #52]	@ (8003e7c <std+0x68>)
 8003e48:	6224      	str	r4, [r4, #32]
 8003e4a:	429c      	cmp	r4, r3
 8003e4c:	d006      	beq.n	8003e5c <std+0x48>
 8003e4e:	f103 0268 	add.w	r2, r3, #104	@ 0x68
 8003e52:	4294      	cmp	r4, r2
 8003e54:	d002      	beq.n	8003e5c <std+0x48>
 8003e56:	33d0      	adds	r3, #208	@ 0xd0
 8003e58:	429c      	cmp	r4, r3
 8003e5a:	d105      	bne.n	8003e68 <std+0x54>
 8003e5c:	f104 0058 	add.w	r0, r4, #88	@ 0x58
 8003e60:	e8bd 4010 	ldmia.w	sp!, {r4, lr}
 8003e64:	f7fd bf9f 	b.w	8001da6 <__retarget_lock_init_recursive>
 8003e68:	bd10      	pop	{r4, pc}
 8003e6a:	bf00      	nop
 8003e6c:	08004401 			@ <UNDEFINED> instruction: 08004401
 8003e70:	08004427 			@ <UNDEFINED> instruction: 08004427
 8003e74:	0800445f 			@ <UNDEFINED> instruction: 0800445f
 8003e78:	08004485 			@ <UNDEFINED> instruction: 08004485
 8003e7c:	200001e0 			@ <UNDEFINED> instruction: 200001e0

Disassembly of section .text.stdio_exit_handler:

08003e80 <stdio_exit_handler>:
 8003e80:	4a02      	ldr	r2, [pc, #8]	@ (8003e8c <stdio_exit_handler+0xc>)
 8003e82:	4903      	ldr	r1, [pc, #12]	@ (8003e90 <stdio_exit_handler+0x10>)
 8003e84:	4803      	ldr	r0, [pc, #12]	@ (8003e94 <stdio_exit_handler+0x14>)
 8003e86:	f000 ba41 	b.w	800430c <_fwalk_sglue>
 8003e8a:	bf00      	nop
 8003e8c:	20000054 			@ <UNDEFINED> instruction: 20000054
 8003e90:	08003d9d 			@ <UNDEFINED> instruction: 08003d9d
 8003e94:	20000008 			@ <UNDEFINED> instruction: 20000008

Disassembly of section .text.cleanup_stdio:

08003e98 <cleanup_stdio>:
 8003e98:	6841      	ldr	r1, [r0, #4]
 8003e9a:	4b0c      	ldr	r3, [pc, #48]	@ (8003ecc <cleanup_stdio+0x34>)
 8003e9c:	4299      	cmp	r1, r3
 8003e9e:	b510      	push	{r4, lr}
 8003ea0:	4604      	mov	r4, r0
 8003ea2:	d001      	beq.n	8003ea8 <cleanup_stdio+0x10>
 8003ea4:	f7ff ff7a 	bl	8003d9c <_fflush_r>
 8003ea8:	68a1      	ldr	r1, [r4, #8]
 8003eaa:	4b09      	ldr	r3, [pc, #36]	@ (8003ed0 <cleanup_stdio+0x38>)
 8003eac:	4299      	cmp	r1, r3
 8003eae:	d002      	beq.n	8003eb6 <cleanup_stdio+0x1e>
 8003eb0:	4620      	mov	r0, r4
 8003eb2:	f7ff ff73 	bl	8003d9c <_fflush_r>
 8003eb6:	68e1      	ldr	r1, [r4, #12]
 8003eb8:	4b06      	ldr	r3, [pc, #24]	@ (8003ed4 <cleanup_stdio+0x3c>)
 8003eba:	4299      	cmp	r1, r3
 8003ebc:	d004      	beq.n	8003ec8 <cleanup_stdio+0x30>
 8003ebe:	4620      	mov	r0, r4
 8003ec0:	e8bd 4010 	ldmia.w	sp!, {r4, lr}
 8003ec4:	f7ff bf6a 	b.w	8003d9c <_fflush_r>
 8003ec8:	bd10      	pop	{r4, pc}
 8003eca:	bf00      	nop
 8003ecc:	200001e0 			@ <UNDEFINED> instruction: 200001e0
 8003ed0:	20000248 			@ <UNDEFINED> instruction: 20000248
 8003ed4:	200002b0 			@ <UNDEFINED> instruction: 200002b0

Disassembly of section .text.__fp_lock:

08003ed8 <__fp_lock>:
 8003ed8:	b508      	push	{r3, lr}
 8003eda:	6e4b      	ldr	r3, [r1, #100]	@ 0x64
 8003edc:	07da      	lsls	r2, r3, #31
 8003ede:	d405      	bmi.n	8003eec <__fp_lock+0x14>
 8003ee0:	898b      	ldrh	r3, [r1, #12]
 8003ee2:	059b      	lsls	r3, r3, #22
 8003ee4:	d402      	bmi.n	8003eec <__fp_lock+0x14>
 8003ee6:	6d88      	ldr	r0, [r1, #88]	@ 0x58
 8003ee8:	f7fd ff61 	bl	8001dae <__retarget_lock_acquire_recursive>
 8003eec:	2000      	movs	r0, #0
 8003eee:	bd08      	pop	{r3, pc}

Disassembly of section .text.__fp_unlock:

08003ef0 <__fp_unlock>:
 8003ef0:	b508      	push	{r3, lr}
 8003ef2:	6e4b      	ldr	r3, [r1, #100]	@ 0x64
 8003ef4:	07da      	lsls	r2, r3, #31
 8003ef6:	d405      	bmi.n	8003f04 <__fp_unlock+0x14>
 8003ef8:	898b      	ldrh	r3, [r1, #12]
 8003efa:	059b      	lsls	r3, r3, #22
 8003efc:	d402      	bmi.n	8003f04 <__fp_unlock+0x14>
 8003efe:	6d88      	ldr	r0, [r1, #88]	@ 0x58
 8003f00:	f7fd ff5b 	bl	8001dba <__retarget_lock_release_recursive>
 8003f04:	2000      	movs	r0, #0
 8003f06:	bd08      	pop	{r3, pc}

Disassembly of section .text.global_stdio_init.part.0:

08003f08 <global_stdio_init.part.0>:
 8003f08:	b510      	push	{r4, lr}
 8003f0a:	4b0a      	ldr	r3, [pc, #40]	@ (8003f34 <global_stdio_init.part.0+0x2c>)
 8003f0c:	4a0a      	ldr	r2, [pc, #40]	@ (8003f38 <global_stdio_init.part.0+0x30>)
 8003f0e:	601a      	str	r2, [r3, #0]
 8003f10:	480a      	ldr	r0, [pc, #40]	@ (8003f3c <global_stdio_init.part.0+0x34>)
 8003f12:	2200      	movs	r2, #0
 8003f14:	2104      	movs	r1, #4
 8003f16:	f7ff ff7d 	bl	8003e14 <std>
 8003f1a:	4809      	ldr	r0, [pc, #36]	@ (8003f40 <global_stdio_init.part.0+0x38>)
 8003f1c:	2201      	movs	r2, #1
 8003f1e:	2109      	movs	r1, #9
 8003f20:	f7ff ff78 	bl	8003e14 <std>
 8003f24:	e8bd 4010 	ldmia.w	sp!, {r4, lr}
 8003f28:	4806      	ldr	r0, [pc, #24]	@ (8003f44 <global_stdio_init.part.0+0x3c>)
 8003f2a:	2202      	movs	r2, #2
 8003f2c:	2112      	movs	r1, #18
 8003f2e:	f7ff bf71 	b.w	8003e14 <std>
 8003f32:	bf00      	nop
 8003f34:	20000318 			@ <UNDEFINED> instruction: 20000318
 8003f38:	08003e81 			@ <UNDEFINED> instruction: 08003e81
 8003f3c:	200001e0 			@ <UNDEFINED> instruction: 200001e0
 8003f40:	20000248 			@ <UNDEFINED> instruction: 20000248
 8003f44:	200002b0 			@ <UNDEFINED> instruction: 200002b0

Disassembly of section .text.__sfp_lock_acquire:

08003f48 <__sfp_lock_acquire>:
 8003f48:	4801      	ldr	r0, [pc, #4]	@ (8003f50 <__sfp_lock_acquire+0x8>)
 8003f4a:	f7fd bf30 	b.w	8001dae <__retarget_lock_acquire_recursive>
 8003f4e:	bf00      	nop
 8003f50:	200001d7 	ldrdcs	r0, [r0], -r7

Disassembly of section .text.__sfp_lock_release:

08003f54 <__sfp_lock_release>:
 8003f54:	4801      	ldr	r0, [pc, #4]	@ (8003f5c <__sfp_lock_release+0x8>)
 8003f56:	f7fd bf30 	b.w	8001dba <__retarget_lock_release_recursive>
 8003f5a:	bf00      	nop
 8003f5c:	200001d7 	ldrdcs	r0, [r0], -r7

Disassembly of section .text.__sfp:

08003f60 <__sfp>:
 8003f60:	b5f8      	push	{r3, r4, r5, r6, r7, lr}
 8003f62:	4607      	mov	r7, r0
 8003f64:	f7ff fff0 	bl	8003f48 <__sfp_lock_acquire>
 8003f68:	4b23      	ldr	r3, [pc, #140]	@ (8003ff8 <__sfp+0x98>)
 8003f6a:	681b      	ldr	r3, [r3, #0]
 8003f6c:	b90b      	cbnz	r3, 8003f72 <__sfp+0x12>
 8003f6e:	f7ff ffcb 	bl	8003f08 <global_stdio_init.part.0>
 8003f72:	4e22      	ldr	r6, [pc, #136]	@ (8003ffc <__sfp+0x9c>)
 8003f74:	e9d6 3401 	ldrd	r3, r4, [r6, #4]
 8003f78:	3b01      	subs	r3, #1
 8003f7a:	d50f      	bpl.n	8003f9c <__sfp+0x3c>
 8003f7c:	6835      	ldr	r5, [r6, #0]
 8003f7e:	2d00      	cmp	r5, #0
 8003f80:	d138      	bne.n	8003ff4 <__sfp+0x94>
 8003f82:	f44f 71d6 	mov.w	r1, #428	@ 0x1ac
 8003f86:	4638      	mov	r0, r7
 8003f88:	f7fe fdf6 	bl	8002b78 <_malloc_r>
 8003f8c:	4604      	mov	r4, r0
 8003f8e:	bb28      	cbnz	r0, 8003fdc <__sfp+0x7c>
 8003f90:	6030      	str	r0, [r6, #0]
 8003f92:	f7ff ffdf 	bl	8003f54 <__sfp_lock_release>
 8003f96:	230c      	movs	r3, #12
 8003f98:	603b      	str	r3, [r7, #0]
 8003f9a:	e01b      	b.n	8003fd4 <__sfp+0x74>
 8003f9c:	f9b4 500c 	ldrsh.w	r5, [r4, #12]
 8003fa0:	b9d5      	cbnz	r5, 8003fd8 <__sfp+0x78>
 8003fa2:	4b17      	ldr	r3, [pc, #92]	@ (8004000 <__sfp+0xa0>)
 8003fa4:	60e3      	str	r3, [r4, #12]
 8003fa6:	f104 0058 	add.w	r0, r4, #88	@ 0x58
 8003faa:	6665      	str	r5, [r4, #100]	@ 0x64
 8003fac:	f7fd fefb 	bl	8001da6 <__retarget_lock_init_recursive>
 8003fb0:	f7ff ffd0 	bl	8003f54 <__sfp_lock_release>
 8003fb4:	e9c4 5501 	strd	r5, r5, [r4, #4]
 8003fb8:	e9c4 5504 	strd	r5, r5, [r4, #16]
 8003fbc:	6025      	str	r5, [r4, #0]
 8003fbe:	61a5      	str	r5, [r4, #24]
 8003fc0:	2208      	movs	r2, #8
 8003fc2:	4629      	mov	r1, r5
 8003fc4:	f104 005c 	add.w	r0, r4, #92	@ 0x5c
 8003fc8:	f000 fb13 	bl	80045f2 <memset>
 8003fcc:	e9c4 550d 	strd	r5, r5, [r4, #52]	@ 0x34
 8003fd0:	e9c4 5512 	strd	r5, r5, [r4, #72]	@ 0x48
 8003fd4:	4620      	mov	r0, r4
 8003fd6:	bdf8      	pop	{r3, r4, r5, r6, r7, pc}
 8003fd8:	3468      	adds	r4, #104	@ 0x68
 8003fda:	e7cd      	b.n	8003f78 <__sfp+0x18>
 8003fdc:	2304      	movs	r3, #4
 8003fde:	6005      	str	r5, [r0, #0]
 8003fe0:	6043      	str	r3, [r0, #4]
 8003fe2:	300c      	adds	r0, #12
 8003fe4:	4629      	mov	r1, r5
 8003fe6:	60a0      	str	r0, [r4, #8]
 8003fe8:	f44f 72d0 	mov.w	r2, #416	@ 0x1a0
 8003fec:	f000 fb01 	bl	80045f2 <memset>
 8003ff0:	4625      	mov	r5, r4
 8003ff2:	6034      	str	r4, [r6, #0]
 8003ff4:	462e      	mov	r6, r5
 8003ff6:	e7bd      	b.n	8003f74 <__sfp+0x14>
 8003ff8:	20000318 			@ <UNDEFINED> instruction: 20000318
 8003ffc:	20000054 			@ <UNDEFINED> instruction: 20000054
 8004000:	ffff0001 			@ <UNDEFINED> instruction: ffff0001

Disassembly of section .text.__sinit:

08004004 <__sinit>:
 8004004:	b510      	push	{r4, lr}
 8004006:	4604      	mov	r4, r0
 8004008:	f7ff ff9e 	bl	8003f48 <__sfp_lock_acquire>
 800400c:	6a23      	ldr	r3, [r4, #32]
 800400e:	b11b      	cbz	r3, 8004018 <__sinit+0x14>
 8004010:	e8bd 4010 	ldmia.w	sp!, {r4, lr}
 8004014:	f7ff bf9e 	b.w	8003f54 <__sfp_lock_release>
 8004018:	4b04      	ldr	r3, [pc, #16]	@ (800402c <__sinit+0x28>)
 800401a:	6223      	str	r3, [r4, #32]
 800401c:	4b04      	ldr	r3, [pc, #16]	@ (8004030 <__sinit+0x2c>)
 800401e:	681b      	ldr	r3, [r3, #0]
 8004020:	2b00      	cmp	r3, #0
 8004022:	d1f5      	bne.n	8004010 <__sinit+0xc>
 8004024:	f7ff ff70 	bl	8003f08 <global_stdio_init.part.0>
 8004028:	e7f2      	b.n	8004010 <__sinit+0xc>
 800402a:	bf00      	nop
 800402c:	08003e99 			@ <UNDEFINED> instruction: 08003e99
 8004030:	20000318 			@ <UNDEFINED> instruction: 20000318

Disassembly of section .text.__fp_lock_all:

08004034 <__fp_lock_all>:
 8004034:	b508      	push	{r3, lr}
 8004036:	f7ff ff87 	bl	8003f48 <__sfp_lock_acquire>
 800403a:	e8bd 4008 	ldmia.w	sp!, {r3, lr}
 800403e:	4a02      	ldr	r2, [pc, #8]	@ (8004048 <__fp_lock_all+0x14>)
 8004040:	4902      	ldr	r1, [pc, #8]	@ (800404c <__fp_lock_all+0x18>)
 8004042:	2000      	movs	r0, #0
 8004044:	f000 b962 	b.w	800430c <_fwalk_sglue>
 8004048:	20000054 			@ <UNDEFINED> instruction: 20000054
 800404c:	08003ed9 			@ <UNDEFINED> instruction: 08003ed9

Disassembly of section .text.__fp_unlock_all:

08004050 <__fp_unlock_all>:
 8004050:	b508      	push	{r3, lr}
 8004052:	4a04      	ldr	r2, [pc, #16]	@ (8004064 <__fp_unlock_all+0x14>)
 8004054:	4904      	ldr	r1, [pc, #16]	@ (8004068 <__fp_unlock_all+0x18>)
 8004056:	2000      	movs	r0, #0
 8004058:	f000 f958 	bl	800430c <_fwalk_sglue>
 800405c:	e8bd 4008 	ldmia.w	sp!, {r3, lr}
 8004060:	f7ff bf78 	b.w	8003f54 <__sfp_lock_release>
 8004064:	20000054 			@ <UNDEFINED> instruction: 20000054
 8004068:	08003ef1 			@ <UNDEFINED> instruction: 08003ef1

Disassembly of section .text.__sfvwrite_r:

0800406c <__sfvwrite_r>:
 800406c:	6893      	ldr	r3, [r2, #8]
 800406e:	e92d 4ff7 	stmdb	sp!, {r0, r1, r2, r4, r5, r6, r7, r8, r9, sl, fp, lr}
 8004072:	4680      	mov	r8, r0
 8004074:	460c      	mov	r4, r1
 8004076:	4691      	mov	r9, r2
 8004078:	b91b      	cbnz	r3, 8004082 <__sfvwrite_r+0x16>
 800407a:	2000      	movs	r0, #0
 800407c:	b003      	add	sp, #12
 800407e:	e8bd 8ff0 	ldmia.w	sp!, {r4, r5, r6, r7, r8, r9, sl, fp, pc}
 8004082:	898b      	ldrh	r3, [r1, #12]
 8004084:	071b      	lsls	r3, r3, #28
 8004086:	d550      	bpl.n	800412a <__sfvwrite_r+0xbe>
 8004088:	690b      	ldr	r3, [r1, #16]
 800408a:	2b00      	cmp	r3, #0
 800408c:	d04d      	beq.n	800412a <__sfvwrite_r+0xbe>
 800408e:	f9b4 a00c 	ldrsh.w	sl, [r4, #12]
 8004092:	f8d9 6000 	ldr.w	r6, [r9]
 8004096:	f01a 0702 	ands.w	r7, sl, #2
 800409a:	d169      	bne.n	8004170 <__sfvwrite_r+0x104>
 800409c:	f01a 0a01 	ands.w	sl, sl, #1
 80040a0:	f000 809f 	beq.w	80041e2 <__sfvwrite_r+0x176>
 80040a4:	4638      	mov	r0, r7
 80040a6:	46ba      	mov	sl, r7
 80040a8:	46bb      	mov	fp, r7
 80040aa:	f1bb 0f00 	cmp.w	fp, #0
 80040ae:	f000 8108 	beq.w	80042c2 <__sfvwrite_r+0x256>
 80040b2:	b950      	cbnz	r0, 80040ca <__sfvwrite_r+0x5e>
 80040b4:	465a      	mov	r2, fp
 80040b6:	210a      	movs	r1, #10
 80040b8:	4650      	mov	r0, sl
 80040ba:	f7fc faf1 	bl	80006a0 <memchr>
 80040be:	2800      	cmp	r0, #0
 80040c0:	f000 8104 	beq.w	80042cc <__sfvwrite_r+0x260>
 80040c4:	3001      	adds	r0, #1
 80040c6:	eba0 070a 	sub.w	r7, r0, sl
 80040ca:	6820      	ldr	r0, [r4, #0]
 80040cc:	6921      	ldr	r1, [r4, #16]
 80040ce:	6963      	ldr	r3, [r4, #20]
 80040d0:	455f      	cmp	r7, fp
 80040d2:	463a      	mov	r2, r7
 80040d4:	bf28      	it	cs
 80040d6:	465a      	movcs	r2, fp
 80040d8:	4288      	cmp	r0, r1
 80040da:	f240 80fa 	bls.w	80042d2 <__sfvwrite_r+0x266>
 80040de:	68a5      	ldr	r5, [r4, #8]
 80040e0:	441d      	add	r5, r3
 80040e2:	42aa      	cmp	r2, r5
 80040e4:	f340 80f5 	ble.w	80042d2 <__sfvwrite_r+0x266>
 80040e8:	4651      	mov	r1, sl
 80040ea:	462a      	mov	r2, r5
 80040ec:	f000 fa68 	bl	80045c0 <memmove>
 80040f0:	6823      	ldr	r3, [r4, #0]
 80040f2:	442b      	add	r3, r5
 80040f4:	6023      	str	r3, [r4, #0]
 80040f6:	4621      	mov	r1, r4
 80040f8:	4640      	mov	r0, r8
 80040fa:	f7ff fe4f 	bl	8003d9c <_fflush_r>
 80040fe:	2800      	cmp	r0, #0
 8004100:	d16a      	bne.n	80041d8 <__sfvwrite_r+0x16c>
 8004102:	1b7f      	subs	r7, r7, r5
 8004104:	f040 80fd 	bne.w	8004302 <__sfvwrite_r+0x296>
 8004108:	4621      	mov	r1, r4
 800410a:	4640      	mov	r0, r8
 800410c:	f7ff fe46 	bl	8003d9c <_fflush_r>
 8004110:	2800      	cmp	r0, #0
 8004112:	d161      	bne.n	80041d8 <__sfvwrite_r+0x16c>
 8004114:	f8d9 3008 	ldr.w	r3, [r9, #8]
 8004118:	1b5b      	subs	r3, r3, r5
 800411a:	f8c9 3008 	str.w	r3, [r9, #8]
 800411e:	2b00      	cmp	r3, #0
 8004120:	d0ab      	beq.n	800407a <__sfvwrite_r+0xe>
 8004122:	44aa      	add	sl, r5
 8004124:	ebab 0b05 	sub.w	fp, fp, r5
 8004128:	e7bf      	b.n	80040aa <__sfvwrite_r+0x3e>
 800412a:	4621      	mov	r1, r4
 800412c:	4640      	mov	r0, r8
 800412e:	f000 f9f3 	bl	8004518 <__swsetup_r>
 8004132:	2800      	cmp	r0, #0
 8004134:	d0ab      	beq.n	800408e <__sfvwrite_r+0x22>
 8004136:	f04f 30ff 	mov.w	r0, #4294967295
 800413a:	e79f      	b.n	800407c <__sfvwrite_r+0x10>
 800413c:	e9d6 b700 	ldrd	fp, r7, [r6]
 8004140:	3608      	adds	r6, #8
 8004142:	2f00      	cmp	r7, #0
 8004144:	d0fa      	beq.n	800413c <__sfvwrite_r+0xd0>
 8004146:	4557      	cmp	r7, sl
 8004148:	463b      	mov	r3, r7
 800414a:	6a21      	ldr	r1, [r4, #32]
 800414c:	6aa5      	ldr	r5, [r4, #40]	@ 0x28
 800414e:	bf28      	it	cs
 8004150:	4653      	movcs	r3, sl
 8004152:	465a      	mov	r2, fp
 8004154:	4640      	mov	r0, r8
 8004156:	47a8      	blx	r5
 8004158:	2800      	cmp	r0, #0
 800415a:	dd3d      	ble.n	80041d8 <__sfvwrite_r+0x16c>
 800415c:	f8d9 3008 	ldr.w	r3, [r9, #8]
 8004160:	1a1b      	subs	r3, r3, r0
 8004162:	f8c9 3008 	str.w	r3, [r9, #8]
 8004166:	2b00      	cmp	r3, #0
 8004168:	d087      	beq.n	800407a <__sfvwrite_r+0xe>
 800416a:	4483      	add	fp, r0
 800416c:	1a3f      	subs	r7, r7, r0
 800416e:	e7e8      	b.n	8004142 <__sfvwrite_r+0xd6>
 8004170:	f04f 0b00 	mov.w	fp, #0
 8004174:	f8df a190 	ldr.w	sl, [pc, #400]	@ 8004308 <__sfvwrite_r+0x29c>
 8004178:	465f      	mov	r7, fp
 800417a:	e7e2      	b.n	8004142 <__sfvwrite_r+0xd6>
 800417c:	e9d6 a500 	ldrd	sl, r5, [r6]
 8004180:	3608      	adds	r6, #8
 8004182:	2d00      	cmp	r5, #0
 8004184:	d0fa      	beq.n	800417c <__sfvwrite_r+0x110>
 8004186:	f9b4 c00c 	ldrsh.w	ip, [r4, #12]
 800418a:	68a3      	ldr	r3, [r4, #8]
 800418c:	6820      	ldr	r0, [r4, #0]
 800418e:	f41c 7f00 	tst.w	ip, #512	@ 0x200
 8004192:	d069      	beq.n	8004268 <__sfvwrite_r+0x1fc>
 8004194:	42ab      	cmp	r3, r5
 8004196:	469b      	mov	fp, r3
 8004198:	d862      	bhi.n	8004260 <__sfvwrite_r+0x1f4>
 800419a:	f41c 6f90 	tst.w	ip, #1152	@ 0x480
 800419e:	d061      	beq.n	8004264 <__sfvwrite_r+0x1f8>
 80041a0:	6921      	ldr	r1, [r4, #16]
 80041a2:	6967      	ldr	r7, [r4, #20]
 80041a4:	eba0 0b01 	sub.w	fp, r0, r1
 80041a8:	eb07 0747 	add.w	r7, r7, r7, lsl #1
 80041ac:	eb07 77d7 	add.w	r7, r7, r7, lsr #31
 80041b0:	f10b 0001 	add.w	r0, fp, #1
 80041b4:	107f      	asrs	r7, r7, #1
 80041b6:	4428      	add	r0, r5
 80041b8:	42b8      	cmp	r0, r7
 80041ba:	463a      	mov	r2, r7
 80041bc:	bf84      	itt	hi
 80041be:	4607      	movhi	r7, r0
 80041c0:	463a      	movhi	r2, r7
 80041c2:	f41c 6f80 	tst.w	ip, #1024	@ 0x400
 80041c6:	d03c      	beq.n	8004242 <__sfvwrite_r+0x1d6>
 80041c8:	4611      	mov	r1, r2
 80041ca:	4640      	mov	r0, r8
 80041cc:	f7fe fcd4 	bl	8002b78 <_malloc_r>
 80041d0:	b948      	cbnz	r0, 80041e6 <__sfvwrite_r+0x17a>
 80041d2:	230c      	movs	r3, #12
 80041d4:	f8c8 3000 	str.w	r3, [r8]
 80041d8:	89a3      	ldrh	r3, [r4, #12]
 80041da:	f043 0340 	orr.w	r3, r3, #64	@ 0x40
 80041de:	81a3      	strh	r3, [r4, #12]
 80041e0:	e7a9      	b.n	8004136 <__sfvwrite_r+0xca>
 80041e2:	4655      	mov	r5, sl
 80041e4:	e7cd      	b.n	8004182 <__sfvwrite_r+0x116>
 80041e6:	465a      	mov	r2, fp
 80041e8:	6921      	ldr	r1, [r4, #16]
 80041ea:	9001      	str	r0, [sp, #4]
 80041ec:	f000 fb0c 	bl	8004808 <memcpy>
 80041f0:	89a2      	ldrh	r2, [r4, #12]
 80041f2:	9b01      	ldr	r3, [sp, #4]
 80041f4:	f422 6290 	bic.w	r2, r2, #1152	@ 0x480
 80041f8:	f042 0280 	orr.w	r2, r2, #128	@ 0x80
 80041fc:	81a2      	strh	r2, [r4, #12]
 80041fe:	6123      	str	r3, [r4, #16]
 8004200:	6167      	str	r7, [r4, #20]
 8004202:	445b      	add	r3, fp
 8004204:	eba7 070b 	sub.w	r7, r7, fp
 8004208:	6023      	str	r3, [r4, #0]
 800420a:	60a7      	str	r7, [r4, #8]
 800420c:	462b      	mov	r3, r5
 800420e:	462f      	mov	r7, r5
 8004210:	46ab      	mov	fp, r5
 8004212:	465a      	mov	r2, fp
 8004214:	6820      	ldr	r0, [r4, #0]
 8004216:	9301      	str	r3, [sp, #4]
 8004218:	4651      	mov	r1, sl
 800421a:	f000 f9d1 	bl	80045c0 <memmove>
 800421e:	68a2      	ldr	r2, [r4, #8]
 8004220:	9b01      	ldr	r3, [sp, #4]
 8004222:	1ad2      	subs	r2, r2, r3
 8004224:	6823      	ldr	r3, [r4, #0]
 8004226:	60a2      	str	r2, [r4, #8]
 8004228:	445b      	add	r3, fp
 800422a:	6023      	str	r3, [r4, #0]
 800422c:	f8d9 3008 	ldr.w	r3, [r9, #8]
 8004230:	1bdb      	subs	r3, r3, r7
 8004232:	f8c9 3008 	str.w	r3, [r9, #8]
 8004236:	2b00      	cmp	r3, #0
 8004238:	f43f af1f 	beq.w	800407a <__sfvwrite_r+0xe>
 800423c:	44ba      	add	sl, r7
 800423e:	1bed      	subs	r5, r5, r7
 8004240:	e79f      	b.n	8004182 <__sfvwrite_r+0x116>
 8004242:	4640      	mov	r0, r8
 8004244:	f000 fb40 	bl	80048c8 <_realloc_r>
 8004248:	4603      	mov	r3, r0
 800424a:	2800      	cmp	r0, #0
 800424c:	d1d7      	bne.n	80041fe <__sfvwrite_r+0x192>
 800424e:	6921      	ldr	r1, [r4, #16]
 8004250:	4640      	mov	r0, r8
 8004252:	f7fe fc13 	bl	8002a7c <_free_r>
 8004256:	89a3      	ldrh	r3, [r4, #12]
 8004258:	f023 0380 	bic.w	r3, r3, #128	@ 0x80
 800425c:	81a3      	strh	r3, [r4, #12]
 800425e:	e7b8      	b.n	80041d2 <__sfvwrite_r+0x166>
 8004260:	462b      	mov	r3, r5
 8004262:	e7d4      	b.n	800420e <__sfvwrite_r+0x1a2>
 8004264:	462f      	mov	r7, r5
 8004266:	e7d4      	b.n	8004212 <__sfvwrite_r+0x1a6>
 8004268:	6922      	ldr	r2, [r4, #16]
 800426a:	4282      	cmp	r2, r0
 800426c:	d302      	bcc.n	8004274 <__sfvwrite_r+0x208>
 800426e:	6962      	ldr	r2, [r4, #20]
 8004270:	42aa      	cmp	r2, r5
 8004272:	d916      	bls.n	80042a2 <__sfvwrite_r+0x236>
 8004274:	42ab      	cmp	r3, r5
 8004276:	bf28      	it	cs
 8004278:	462b      	movcs	r3, r5
 800427a:	461a      	mov	r2, r3
 800427c:	4651      	mov	r1, sl
 800427e:	461f      	mov	r7, r3
 8004280:	f000 f99e 	bl	80045c0 <memmove>
 8004284:	68a3      	ldr	r3, [r4, #8]
 8004286:	6822      	ldr	r2, [r4, #0]
 8004288:	1bdb      	subs	r3, r3, r7
 800428a:	443a      	add	r2, r7
 800428c:	60a3      	str	r3, [r4, #8]
 800428e:	6022      	str	r2, [r4, #0]
 8004290:	2b00      	cmp	r3, #0
 8004292:	d1cb      	bne.n	800422c <__sfvwrite_r+0x1c0>
 8004294:	4621      	mov	r1, r4
 8004296:	4640      	mov	r0, r8
 8004298:	f7ff fd80 	bl	8003d9c <_fflush_r>
 800429c:	2800      	cmp	r0, #0
 800429e:	d0c5      	beq.n	800422c <__sfvwrite_r+0x1c0>
 80042a0:	e79a      	b.n	80041d8 <__sfvwrite_r+0x16c>
 80042a2:	f06f 4300 	mvn.w	r3, #2147483648	@ 0x80000000
 80042a6:	42ab      	cmp	r3, r5
 80042a8:	bf28      	it	cs
 80042aa:	462b      	movcs	r3, r5
 80042ac:	6aa7      	ldr	r7, [r4, #40]	@ 0x28
 80042ae:	fb93 f3f2 	sdiv	r3, r3, r2
 80042b2:	6a21      	ldr	r1, [r4, #32]
 80042b4:	4353      	muls	r3, r2
 80042b6:	4640      	mov	r0, r8
 80042b8:	4652      	mov	r2, sl
 80042ba:	47b8      	blx	r7
 80042bc:	1e07      	subs	r7, r0, #0
 80042be:	dcb5      	bgt.n	800422c <__sfvwrite_r+0x1c0>
 80042c0:	e78a      	b.n	80041d8 <__sfvwrite_r+0x16c>
 80042c2:	e9d6 ab00 	ldrd	sl, fp, [r6]
 80042c6:	2000      	movs	r0, #0
 80042c8:	3608      	adds	r6, #8
 80042ca:	e6ee      	b.n	80040aa <__sfvwrite_r+0x3e>
 80042cc:	f10b 0701 	add.w	r7, fp, #1
 80042d0:	e6fb      	b.n	80040ca <__sfvwrite_r+0x5e>
 80042d2:	4293      	cmp	r3, r2
 80042d4:	dc08      	bgt.n	80042e8 <__sfvwrite_r+0x27c>
 80042d6:	6aa5      	ldr	r5, [r4, #40]	@ 0x28
 80042d8:	6a21      	ldr	r1, [r4, #32]
 80042da:	4652      	mov	r2, sl
 80042dc:	4640      	mov	r0, r8
 80042de:	47a8      	blx	r5
 80042e0:	1e05      	subs	r5, r0, #0
 80042e2:	f73f af0e 	bgt.w	8004102 <__sfvwrite_r+0x96>
 80042e6:	e777      	b.n	80041d8 <__sfvwrite_r+0x16c>
 80042e8:	4651      	mov	r1, sl
 80042ea:	9201      	str	r2, [sp, #4]
 80042ec:	f000 f968 	bl	80045c0 <memmove>
 80042f0:	9a01      	ldr	r2, [sp, #4]
 80042f2:	68a3      	ldr	r3, [r4, #8]
 80042f4:	1a9b      	subs	r3, r3, r2
 80042f6:	60a3      	str	r3, [r4, #8]
 80042f8:	6823      	ldr	r3, [r4, #0]
 80042fa:	4413      	add	r3, r2
 80042fc:	6023      	str	r3, [r4, #0]
 80042fe:	4615      	mov	r5, r2
 8004300:	e6ff      	b.n	8004102 <__sfvwrite_r+0x96>
 8004302:	2001      	movs	r0, #1
 8004304:	e706      	b.n	8004114 <__sfvwrite_r+0xa8>
 8004306:	bf00      	nop
 8004308:	7ffffc00 			@ <UNDEFINED> instruction: 7ffffc00

Disassembly of section .text._fwalk_sglue:

0800430c <_fwalk_sglue>:
 800430c:	e92d 43f8 	stmdb	sp!, {r3, r4, r5, r6, r7, r8, r9, lr}
 8004310:	4680      	mov	r8, r0
 8004312:	4689      	mov	r9, r1
 8004314:	4614      	mov	r4, r2
 8004316:	2600      	movs	r6, #0
 8004318:	e9d4 7501 	ldrd	r7, r5, [r4, #4]
 800431c:	3f01      	subs	r7, #1
 800431e:	d505      	bpl.n	800432c <_fwalk_sglue+0x20>
 8004320:	6824      	ldr	r4, [r4, #0]
 8004322:	2c00      	cmp	r4, #0
 8004324:	d1f8      	bne.n	8004318 <_fwalk_sglue+0xc>
 8004326:	4630      	mov	r0, r6
 8004328:	e8bd 83f8 	ldmia.w	sp!, {r3, r4, r5, r6, r7, r8, r9, pc}
 800432c:	89ab      	ldrh	r3, [r5, #12]
 800432e:	2b01      	cmp	r3, #1
 8004330:	d907      	bls.n	8004342 <_fwalk_sglue+0x36>
 8004332:	f9b5 300e 	ldrsh.w	r3, [r5, #14]
 8004336:	3301      	adds	r3, #1
 8004338:	d003      	beq.n	8004342 <_fwalk_sglue+0x36>
 800433a:	4629      	mov	r1, r5
 800433c:	4640      	mov	r0, r8
 800433e:	47c8      	blx	r9
 8004340:	4306      	orrs	r6, r0
 8004342:	3568      	adds	r5, #104	@ 0x68
 8004344:	e7ea      	b.n	800431c <_fwalk_sglue+0x10>

Disassembly of section .text.__swhatbuf_r:

08004346 <__swhatbuf_r>:
 8004346:	b570      	push	{r4, r5, r6, lr}
 8004348:	460e      	mov	r6, r1
 800434a:	f9b1 100e 	ldrsh.w	r1, [r1, #14]
 800434e:	2900      	cmp	r1, #0
 8004350:	b096      	sub	sp, #88	@ 0x58
 8004352:	4614      	mov	r4, r2
 8004354:	461d      	mov	r5, r3
 8004356:	da0a      	bge.n	800436e <__swhatbuf_r+0x28>
 8004358:	89b2      	ldrh	r2, [r6, #12]
 800435a:	f012 0280 	ands.w	r2, r2, #128	@ 0x80
 800435e:	d113      	bne.n	8004388 <__swhatbuf_r+0x42>
 8004360:	f44f 6180 	mov.w	r1, #1024	@ 0x400
 8004364:	2000      	movs	r0, #0
 8004366:	602a      	str	r2, [r5, #0]
 8004368:	6021      	str	r1, [r4, #0]
 800436a:	b016      	add	sp, #88	@ 0x58
 800436c:	bd70      	pop	{r4, r5, r6, pc}
 800436e:	466a      	mov	r2, sp
 8004370:	f000 f9e2 	bl	8004738 <_fstat_r>
 8004374:	2800      	cmp	r0, #0
 8004376:	dbef      	blt.n	8004358 <__swhatbuf_r+0x12>
 8004378:	9a01      	ldr	r2, [sp, #4]
 800437a:	f402 4270 	and.w	r2, r2, #61440	@ 0xf000
 800437e:	f5a2 5300 	sub.w	r3, r2, #8192	@ 0x2000
 8004382:	425a      	negs	r2, r3
 8004384:	415a      	adcs	r2, r3
 8004386:	e7eb      	b.n	8004360 <__swhatbuf_r+0x1a>
 8004388:	2200      	movs	r2, #0
 800438a:	2140      	movs	r1, #64	@ 0x40
 800438c:	e7ea      	b.n	8004364 <__swhatbuf_r+0x1e>

Disassembly of section .text.__smakebuf_r:

0800438e <__smakebuf_r>:
 800438e:	898b      	ldrh	r3, [r1, #12]
 8004390:	b573      	push	{r0, r1, r4, r5, r6, lr}
 8004392:	079e      	lsls	r6, r3, #30
 8004394:	4605      	mov	r5, r0
 8004396:	460c      	mov	r4, r1
 8004398:	d507      	bpl.n	80043aa <__smakebuf_r+0x1c>
 800439a:	f104 0347 	add.w	r3, r4, #71	@ 0x47
 800439e:	6023      	str	r3, [r4, #0]
 80043a0:	6123      	str	r3, [r4, #16]
 80043a2:	2301      	movs	r3, #1
 80043a4:	6163      	str	r3, [r4, #20]
 80043a6:	b002      	add	sp, #8
 80043a8:	bd70      	pop	{r4, r5, r6, pc}
 80043aa:	ab01      	add	r3, sp, #4
 80043ac:	466a      	mov	r2, sp
 80043ae:	f7ff ffca 	bl	8004346 <__swhatbuf_r>
 80043b2:	9e00      	ldr	r6, [sp, #0]
 80043b4:	4628      	mov	r0, r5
 80043b6:	4631      	mov	r1, r6
 80043b8:	f7fe fbde 	bl	8002b78 <_malloc_r>
 80043bc:	f9b4 300c 	ldrsh.w	r3, [r4, #12]
 80043c0:	b938      	cbnz	r0, 80043d2 <__smakebuf_r+0x44>
 80043c2:	059a      	lsls	r2, r3, #22
 80043c4:	d4ef      	bmi.n	80043a6 <__smakebuf_r+0x18>
 80043c6:	f023 0303 	bic.w	r3, r3, #3
 80043ca:	f043 0302 	orr.w	r3, r3, #2
 80043ce:	81a3      	strh	r3, [r4, #12]
 80043d0:	e7e3      	b.n	800439a <__smakebuf_r+0xc>
 80043d2:	f043 0380 	orr.w	r3, r3, #128	@ 0x80
 80043d6:	81a3      	strh	r3, [r4, #12]
 80043d8:	9b01      	ldr	r3, [sp, #4]
 80043da:	6020      	str	r0, [r4, #0]
 80043dc:	e9c4 0604 	strd	r0, r6, [r4, #16]
 80043e0:	2b00      	cmp	r3, #0
 80043e2:	d0e0      	beq.n	80043a6 <__smakebuf_r+0x18>
 80043e4:	f9b4 100e 	ldrsh.w	r1, [r4, #14]
 80043e8:	4628      	mov	r0, r5
 80043ea:	f000 f9b7 	bl	800475c <_isatty_r>
 80043ee:	2800      	cmp	r0, #0
 80043f0:	d0d9      	beq.n	80043a6 <__smakebuf_r+0x18>
 80043f2:	89a3      	ldrh	r3, [r4, #12]
 80043f4:	f023 0303 	bic.w	r3, r3, #3
 80043f8:	f043 0301 	orr.w	r3, r3, #1
 80043fc:	81a3      	strh	r3, [r4, #12]
 80043fe:	e7d2      	b.n	80043a6 <__smakebuf_r+0x18>

Disassembly of section .text.__sread:

08004400 <__sread>:
 8004400:	b510      	push	{r4, lr}
 8004402:	460c      	mov	r4, r1
 8004404:	f9b1 100e 	ldrsh.w	r1, [r1, #14]
 8004408:	f000 f9ca 	bl	80047a0 <_read_r>
 800440c:	2800      	cmp	r0, #0
 800440e:	bfab      	itete	ge
 8004410:	6d63      	ldrge	r3, [r4, #84]	@ 0x54
 8004412:	89a3      	ldrhlt	r3, [r4, #12]
 8004414:	181b      	addge	r3, r3, r0
 8004416:	f423 5380 	biclt.w	r3, r3, #4096	@ 0x1000
 800441a:	bfac      	ite	ge
 800441c:	6563      	strge	r3, [r4, #84]	@ 0x54
 800441e:	81a3      	strhlt	r3, [r4, #12]
 8004420:	bd10      	pop	{r4, pc}

Disassembly of section .text.__seofread:

08004422 <__seofread>:
 8004422:	2000      	movs	r0, #0
 8004424:	4770      	bx	lr

Disassembly of section .text.__swrite:

08004426 <__swrite>:
 8004426:	e92d 41f0 	stmdb	sp!, {r4, r5, r6, r7, r8, lr}
 800442a:	461f      	mov	r7, r3
 800442c:	898b      	ldrh	r3, [r1, #12]
 800442e:	05db      	lsls	r3, r3, #23
 8004430:	4605      	mov	r5, r0
 8004432:	460c      	mov	r4, r1
 8004434:	4616      	mov	r6, r2
 8004436:	d505      	bpl.n	8004444 <__swrite+0x1e>
 8004438:	f9b1 100e 	ldrsh.w	r1, [r1, #14]
 800443c:	2302      	movs	r3, #2
 800443e:	2200      	movs	r2, #0
 8004440:	f000 f99c 	bl	800477c <_lseek_r>
 8004444:	89a3      	ldrh	r3, [r4, #12]
 8004446:	f9b4 100e 	ldrsh.w	r1, [r4, #14]
 800444a:	f423 5380 	bic.w	r3, r3, #4096	@ 0x1000
 800444e:	81a3      	strh	r3, [r4, #12]
 8004450:	4632      	mov	r2, r6
 8004452:	463b      	mov	r3, r7
 8004454:	4628      	mov	r0, r5
 8004456:	e8bd 41f0 	ldmia.w	sp!, {r4, r5, r6, r7, r8, lr}
 800445a:	f000 b9c3 	b.w	80047e4 <_write_r>

Disassembly of section .text.__sseek:

0800445e <__sseek>:
 800445e:	b510      	push	{r4, lr}
 8004460:	460c      	mov	r4, r1
 8004462:	f9b1 100e 	ldrsh.w	r1, [r1, #14]
 8004466:	f000 f989 	bl	800477c <_lseek_r>
 800446a:	f9b4 300c 	ldrsh.w	r3, [r4, #12]
 800446e:	1c42      	adds	r2, r0, #1
 8004470:	bf0b      	itete	eq
 8004472:	f423 5380 	biceq.w	r3, r3, #4096	@ 0x1000
 8004476:	f443 5380 	orrne.w	r3, r3, #4096	@ 0x1000
 800447a:	81a3      	strheq	r3, [r4, #12]
 800447c:	81a3      	strhne	r3, [r4, #12]
 800447e:	bf18      	it	ne
 8004480:	6560      	strne	r0, [r4, #84]	@ 0x54
 8004482:	bd10      	pop	{r4, pc}

Disassembly of section .text.__sclose:

08004484 <__sclose>:
 8004484:	f9b1 100e 	ldrsh.w	r1, [r1, #14]
 8004488:	f000 b8e8 	b.w	800465c <_close_r>

Disassembly of section .text.__swbuf_r:

0800448c <__swbuf_r>:
 800448c:	b5f8      	push	{r3, r4, r5, r6, r7, lr}
 800448e:	4605      	mov	r5, r0
 8004490:	460f      	mov	r7, r1
 8004492:	4614      	mov	r4, r2
 8004494:	b118      	cbz	r0, 800449e <__swbuf_r+0x12>
 8004496:	6a03      	ldr	r3, [r0, #32]
 8004498:	b90b      	cbnz	r3, 800449e <__swbuf_r+0x12>
 800449a:	f7ff fdb3 	bl	8004004 <__sinit>
 800449e:	69a3      	ldr	r3, [r4, #24]
 80044a0:	60a3      	str	r3, [r4, #8]
 80044a2:	89a3      	ldrh	r3, [r4, #12]
 80044a4:	071a      	lsls	r2, r3, #28
 80044a6:	d501      	bpl.n	80044ac <__swbuf_r+0x20>
 80044a8:	6923      	ldr	r3, [r4, #16]
 80044aa:	b943      	cbnz	r3, 80044be <__swbuf_r+0x32>
 80044ac:	4621      	mov	r1, r4
 80044ae:	4628      	mov	r0, r5
 80044b0:	f000 f832 	bl	8004518 <__swsetup_r>
 80044b4:	b118      	cbz	r0, 80044be <__swbuf_r+0x32>
 80044b6:	f04f 36ff 	mov.w	r6, #4294967295
 80044ba:	4630      	mov	r0, r6
 80044bc:	bdf8      	pop	{r3, r4, r5, r6, r7, pc}
 80044be:	6923      	ldr	r3, [r4, #16]
 80044c0:	6820      	ldr	r0, [r4, #0]
 80044c2:	1ac0      	subs	r0, r0, r3
 80044c4:	6963      	ldr	r3, [r4, #20]
 80044c6:	4283      	cmp	r3, r0
 80044c8:	dc05      	bgt.n	80044d6 <__swbuf_r+0x4a>
 80044ca:	4621      	mov	r1, r4
 80044cc:	4628      	mov	r0, r5
 80044ce:	f7ff fc65 	bl	8003d9c <_fflush_r>
 80044d2:	2800      	cmp	r0, #0
 80044d4:	d1ef      	bne.n	80044b6 <__swbuf_r+0x2a>
 80044d6:	68a3      	ldr	r3, [r4, #8]
 80044d8:	3b01      	subs	r3, #1
 80044da:	60a3      	str	r3, [r4, #8]
 80044dc:	6823      	ldr	r3, [r4, #0]
 80044de:	1c5a      	adds	r2, r3, #1
 80044e0:	6022      	str	r2, [r4, #0]
 80044e2:	701f      	strb	r7, [r3, #0]
 80044e4:	6963      	ldr	r3, [r4, #20]
 80044e6:	3001      	adds	r0, #1
 80044e8:	4283      	cmp	r3, r0
 80044ea:	b2fe      	uxtb	r6, r7
 80044ec:	d004      	beq.n	80044f8 <__swbuf_r+0x6c>
 80044ee:	89a3      	ldrh	r3, [r4, #12]
 80044f0:	07db      	lsls	r3, r3, #31
 80044f2:	d5e2      	bpl.n	80044ba <__swbuf_r+0x2e>
 80044f4:	2e0a      	cmp	r6, #10
 80044f6:	d1e0      	bne.n	80044ba <__swbuf_r+0x2e>
 80044f8:	4621      	mov	r1, r4
 80044fa:	4628      	mov	r0, r5
 80044fc:	f7ff fc4e 	bl	8003d9c <_fflush_r>
 8004500:	2800      	cmp	r0, #0
 8004502:	d0da      	beq.n	80044ba <__swbuf_r+0x2e>
 8004504:	e7d7      	b.n	80044b6 <__swbuf_r+0x2a>

Disassembly of section .text.__swbuf:

08004508 <__swbuf>:
 8004508:	4b02      	ldr	r3, [pc, #8]	@ (8004514 <__swbuf+0xc>)
 800450a:	460a      	mov	r2, r1
 800450c:	4601      	mov	r1, r0
 800450e:	6818      	ldr	r0, [r3, #0]
 8004510:	f7ff bfbc 	b.w	800448c <__swbuf_r>
 8004514:	20000004 			@ <UNDEFINED> instruction: 20000004

Disassembly of section .text.__swsetup_r:

08004518 <__swsetup_r>:
 8004518:	b538      	push	{r3, r4, r5, lr}
 800451a:	4b28      	ldr	r3, [pc, #160]	@ (80045bc <__swsetup_r+0xa4>)
 800451c:	4605      	mov	r5, r0
 800451e:	6818      	ldr	r0, [r3, #0]
 8004520:	460c      	mov	r4, r1
 8004522:	b118      	cbz	r0, 800452c <__swsetup_r+0x14>
 8004524:	6a03      	ldr	r3, [r0, #32]
 8004526:	b90b      	cbnz	r3, 800452c <__swsetup_r+0x14>
 8004528:	f7ff fd6c 	bl	8004004 <__sinit>
 800452c:	f9b4 300c 	ldrsh.w	r3, [r4, #12]
 8004530:	0719      	lsls	r1, r3, #28
 8004532:	d420      	bmi.n	8004576 <__swsetup_r+0x5e>
 8004534:	06da      	lsls	r2, r3, #27
 8004536:	d407      	bmi.n	8004548 <__swsetup_r+0x30>
 8004538:	2209      	movs	r2, #9
 800453a:	602a      	str	r2, [r5, #0]
 800453c:	f043 0340 	orr.w	r3, r3, #64	@ 0x40
 8004540:	81a3      	strh	r3, [r4, #12]
 8004542:	f04f 30ff 	mov.w	r0, #4294967295
 8004546:	e031      	b.n	80045ac <__swsetup_r+0x94>
 8004548:	0758      	lsls	r0, r3, #29
 800454a:	d511      	bpl.n	8004570 <__swsetup_r+0x58>
 800454c:	6b61      	ldr	r1, [r4, #52]	@ 0x34
 800454e:	b141      	cbz	r1, 8004562 <__swsetup_r+0x4a>
 8004550:	f104 0344 	add.w	r3, r4, #68	@ 0x44
 8004554:	4299      	cmp	r1, r3
 8004556:	d002      	beq.n	800455e <__swsetup_r+0x46>
 8004558:	4628      	mov	r0, r5
 800455a:	f7fe fa8f 	bl	8002a7c <_free_r>
 800455e:	2300      	movs	r3, #0
 8004560:	6363      	str	r3, [r4, #52]	@ 0x34
 8004562:	2200      	movs	r2, #0
 8004564:	89a3      	ldrh	r3, [r4, #12]
 8004566:	6062      	str	r2, [r4, #4]
 8004568:	6922      	ldr	r2, [r4, #16]
 800456a:	6022      	str	r2, [r4, #0]
 800456c:	f023 0324 	bic.w	r3, r3, #36	@ 0x24
 8004570:	f043 0308 	orr.w	r3, r3, #8
 8004574:	81a3      	strh	r3, [r4, #12]
 8004576:	6923      	ldr	r3, [r4, #16]
 8004578:	b94b      	cbnz	r3, 800458e <__swsetup_r+0x76>
 800457a:	89a3      	ldrh	r3, [r4, #12]
 800457c:	f403 7320 	and.w	r3, r3, #640	@ 0x280
 8004580:	f5b3 7f00 	cmp.w	r3, #512	@ 0x200
 8004584:	d003      	beq.n	800458e <__swsetup_r+0x76>
 8004586:	4621      	mov	r1, r4
 8004588:	4628      	mov	r0, r5
 800458a:	f7ff ff00 	bl	800438e <__smakebuf_r>
 800458e:	f9b4 300c 	ldrsh.w	r3, [r4, #12]
 8004592:	f013 0201 	ands.w	r2, r3, #1
 8004596:	d00a      	beq.n	80045ae <__swsetup_r+0x96>
 8004598:	2200      	movs	r2, #0
 800459a:	60a2      	str	r2, [r4, #8]
 800459c:	6962      	ldr	r2, [r4, #20]
 800459e:	4252      	negs	r2, r2
 80045a0:	61a2      	str	r2, [r4, #24]
 80045a2:	6922      	ldr	r2, [r4, #16]
 80045a4:	b942      	cbnz	r2, 80045b8 <__swsetup_r+0xa0>
 80045a6:	f013 0080 	ands.w	r0, r3, #128	@ 0x80
 80045aa:	d1c7      	bne.n	800453c <__swsetup_r+0x24>
 80045ac:	bd38      	pop	{r3, r4, r5, pc}
 80045ae:	0799      	lsls	r1, r3, #30
 80045b0:	bf58      	it	pl
 80045b2:	6962      	ldrpl	r2, [r4, #20]
 80045b4:	60a2      	str	r2, [r4, #8]
 80045b6:	e7f4      	b.n	80045a2 <__swsetup_r+0x8a>
 80045b8:	2000      	movs	r0, #0
 80045ba:	e7f7      	b.n	80045ac <__swsetup_r+0x94>
 80045bc:	20000004 			@ <UNDEFINED> instruction: 20000004

Disassembly of section .text.memmove:

080045c0 <memmove>:
 80045c0:	4288      	cmp	r0, r1
 80045c2:	b510      	push	{r4, lr}
 80045c4:	eb01 0402 	add.w	r4, r1, r2
 80045c8:	d902      	bls.n	80045d0 <memmove+0x10>
 80045ca:	4284      	cmp	r4, r0
 80045cc:	4623      	mov	r3, r4
 80045ce:	d807      	bhi.n	80045e0 <memmove+0x20>
 80045d0:	1e43      	subs	r3, r0, #1
 80045d2:	42a1      	cmp	r1, r4
 80045d4:	d007      	beq.n	80045e6 <memmove+0x26>
 80045d6:	f811 2b01 	ldrb.w	r2, [r1], #1
 80045da:	f803 2f01 	strb.w	r2, [r3, #1]!
 80045de:	e7f8      	b.n	80045d2 <memmove+0x12>
 80045e0:	4402      	add	r2, r0
 80045e2:	4282      	cmp	r2, r0
 80045e4:	d100      	bne.n	80045e8 <memmove+0x28>
 80045e6:	bd10      	pop	{r4, pc}
 80045e8:	f813 1d01 	ldrb.w	r1, [r3, #-1]!
 80045ec:	f802 1d01 	strb.w	r1, [r2, #-1]!
 80045f0:	e7f7      	b.n	80045e2 <memmove+0x22>

Disassembly of section .text.memset:

080045f2 <memset>:
 80045f2:	4402      	add	r2, r0
 80045f4:	4603      	mov	r3, r0
 80045f6:	4293      	cmp	r3, r2
 80045f8:	d100      	bne.n	80045fc <memset+0xa>
 80045fa:	4770      	bx	lr
 80045fc:	f803 1b01 	strb.w	r1, [r3], #1
 8004600:	e7f9      	b.n	80045f6 <memset+0x4>

Disassembly of section .text._setlocale_r:

08004604 <_setlocale_r>:
 8004604:	b510      	push	{r4, lr}
 8004606:	4614      	mov	r4, r2
 8004608:	b122      	cbz	r2, 8004614 <_setlocale_r+0x10>
 800460a:	490a      	ldr	r1, [pc, #40]	@ (8004634 <_setlocale_r+0x30>)
 800460c:	4610      	mov	r0, r2
 800460e:	f7fc f89f 	bl	8000750 <strcmp>
 8004612:	b908      	cbnz	r0, 8004618 <_setlocale_r+0x14>
 8004614:	4808      	ldr	r0, [pc, #32]	@ (8004638 <_setlocale_r+0x34>)
 8004616:	bd10      	pop	{r4, pc}
 8004618:	4907      	ldr	r1, [pc, #28]	@ (8004638 <_setlocale_r+0x34>)
 800461a:	4620      	mov	r0, r4
 800461c:	f7fc f898 	bl	8000750 <strcmp>
 8004620:	2800      	cmp	r0, #0
 8004622:	d0f7      	beq.n	8004614 <_setlocale_r+0x10>
 8004624:	4905      	ldr	r1, [pc, #20]	@ (800463c <_setlocale_r+0x38>)
 8004626:	4620      	mov	r0, r4
 8004628:	f7fc f892 	bl	8000750 <strcmp>
 800462c:	2800      	cmp	r0, #0
 800462e:	d0f1      	beq.n	8004614 <_setlocale_r+0x10>
 8004630:	2000      	movs	r0, #0
 8004632:	e7f0      	b.n	8004616 <_setlocale_r+0x12>
 8004634:	08004ca9 			@ <UNDEFINED> instruction: 08004ca9
 8004638:	08004ca7 			@ <UNDEFINED> instruction: 08004ca7
 800463c:	08004cec 			@ <UNDEFINED> instruction: 08004cec

Disassembly of section .text.__locale_mb_cur_max:

08004640 <__locale_mb_cur_max>:
 8004640:	4b01      	ldr	r3, [pc, #4]	@ (8004648 <__locale_mb_cur_max+0x8>)
 8004642:	f893 0128 	ldrb.w	r0, [r3, #296]	@ 0x128
 8004646:	4770      	bx	lr
 8004648:	20000060 			@ <UNDEFINED> instruction: 20000060

Disassembly of section .text.setlocale:

0800464c <setlocale>:
 800464c:	4b02      	ldr	r3, [pc, #8]	@ (8004658 <setlocale+0xc>)
 800464e:	460a      	mov	r2, r1
 8004650:	4601      	mov	r1, r0
 8004652:	6818      	ldr	r0, [r3, #0]
 8004654:	f7ff bfd6 	b.w	8004604 <_setlocale_r>
 8004658:	20000004 			@ <UNDEFINED> instruction: 20000004

Disassembly of section .text._close_r:

0800465c <_close_r>:
 800465c:	b538      	push	{r3, r4, r5, lr}
 800465e:	4c06      	ldr	r4, [pc, #24]	@ (8004678 <_close_r+0x1c>)
 8004660:	2300      	movs	r3, #0
 8004662:	4605      	mov	r5, r0
 8004664:	4608      	mov	r0, r1
 8004666:	6023      	str	r3, [r4, #0]
 8004668:	f7fb fe34 	bl	80002d4 <_close>
 800466c:	1c43      	adds	r3, r0, #1
 800466e:	d102      	bne.n	8004676 <_close_r+0x1a>
 8004670:	6823      	ldr	r3, [r4, #0]
 8004672:	b103      	cbz	r3, 8004676 <_close_r+0x1a>
 8004674:	602b      	str	r3, [r5, #0]
 8004676:	bd38      	pop	{r3, r4, r5, pc}
 8004678:	20000320 			@ <UNDEFINED> instruction: 20000320

Disassembly of section .text._reclaim_reent:

0800467c <_reclaim_reent>:
 800467c:	4b2d      	ldr	r3, [pc, #180]	@ (8004734 <_reclaim_reent+0xb8>)
 800467e:	681b      	ldr	r3, [r3, #0]
 8004680:	4283      	cmp	r3, r0
 8004682:	b570      	push	{r4, r5, r6, lr}
 8004684:	4604      	mov	r4, r0
 8004686:	d053      	beq.n	8004730 <_reclaim_reent+0xb4>
 8004688:	69c3      	ldr	r3, [r0, #28]
 800468a:	b31b      	cbz	r3, 80046d4 <_reclaim_reent+0x58>
 800468c:	68db      	ldr	r3, [r3, #12]
 800468e:	b163      	cbz	r3, 80046aa <_reclaim_reent+0x2e>
 8004690:	2500      	movs	r5, #0
 8004692:	69e3      	ldr	r3, [r4, #28]
 8004694:	68db      	ldr	r3, [r3, #12]
 8004696:	5959      	ldr	r1, [r3, r5]
 8004698:	b9b1      	cbnz	r1, 80046c8 <_reclaim_reent+0x4c>
 800469a:	3504      	adds	r5, #4
 800469c:	2d80      	cmp	r5, #128	@ 0x80
 800469e:	d1f8      	bne.n	8004692 <_reclaim_reent+0x16>
 80046a0:	69e3      	ldr	r3, [r4, #28]
 80046a2:	4620      	mov	r0, r4
 80046a4:	68d9      	ldr	r1, [r3, #12]
 80046a6:	f7fe f9e9 	bl	8002a7c <_free_r>
 80046aa:	69e3      	ldr	r3, [r4, #28]
 80046ac:	6819      	ldr	r1, [r3, #0]
 80046ae:	b111      	cbz	r1, 80046b6 <_reclaim_reent+0x3a>
 80046b0:	4620      	mov	r0, r4
 80046b2:	f7fe f9e3 	bl	8002a7c <_free_r>
 80046b6:	69e3      	ldr	r3, [r4, #28]
 80046b8:	689d      	ldr	r5, [r3, #8]
 80046ba:	b15d      	cbz	r5, 80046d4 <_reclaim_reent+0x58>
 80046bc:	4629      	mov	r1, r5
 80046be:	4620      	mov	r0, r4
 80046c0:	682d      	ldr	r5, [r5, #0]
 80046c2:	f7fe f9db 	bl	8002a7c <_free_r>
 80046c6:	e7f8      	b.n	80046ba <_reclaim_reent+0x3e>
 80046c8:	680e      	ldr	r6, [r1, #0]
 80046ca:	4620      	mov	r0, r4
 80046cc:	f7fe f9d6 	bl	8002a7c <_free_r>
 80046d0:	4631      	mov	r1, r6
 80046d2:	e7e1      	b.n	8004698 <_reclaim_reent+0x1c>
 80046d4:	6961      	ldr	r1, [r4, #20]
 80046d6:	b111      	cbz	r1, 80046de <_reclaim_reent+0x62>
 80046d8:	4620      	mov	r0, r4
 80046da:	f7fe f9cf 	bl	8002a7c <_free_r>
 80046de:	69e1      	ldr	r1, [r4, #28]
 80046e0:	b111      	cbz	r1, 80046e8 <_reclaim_reent+0x6c>
 80046e2:	4620      	mov	r0, r4
 80046e4:	f7fe f9ca 	bl	8002a7c <_free_r>
 80046e8:	6b21      	ldr	r1, [r4, #48]	@ 0x30
 80046ea:	b111      	cbz	r1, 80046f2 <_reclaim_reent+0x76>
 80046ec:	4620      	mov	r0, r4
 80046ee:	f7fe f9c5 	bl	8002a7c <_free_r>
 80046f2:	6b61      	ldr	r1, [r4, #52]	@ 0x34
 80046f4:	b111      	cbz	r1, 80046fc <_reclaim_reent+0x80>
 80046f6:	4620      	mov	r0, r4
 80046f8:	f7fe f9c0 	bl	8002a7c <_free_r>
 80046fc:	6ba1      	ldr	r1, [r4, #56]	@ 0x38
 80046fe:	b111      	cbz	r1, 8004706 <_reclaim_reent+0x8a>
 8004700:	4620      	mov	r0, r4
 8004702:	f7fe f9bb 	bl	8002a7c <_free_r>
 8004706:	6ca1      	ldr	r1, [r4, #72]	@ 0x48
 8004708:	b111      	cbz	r1, 8004710 <_reclaim_reent+0x94>
 800470a:	4620      	mov	r0, r4
 800470c:	f7fe f9b6 	bl	8002a7c <_free_r>
 8004710:	6c61      	ldr	r1, [r4, #68]	@ 0x44
 8004712:	b111      	cbz	r1, 800471a <_reclaim_reent+0x9e>
 8004714:	4620      	mov	r0, r4
 8004716:	f7fe f9b1 	bl	8002a7c <_free_r>
 800471a:	6ae1      	ldr	r1, [r4, #44]	@ 0x2c
 800471c:	b111      	cbz	r1, 8004724 <_reclaim_reent+0xa8>
 800471e:	4620      	mov	r0, r4
 8004720:	f7fe f9ac 	bl	8002a7c <_free_r>
 8004724:	6a23      	ldr	r3, [r4, #32]
 8004726:	b11b      	cbz	r3, 8004730 <_reclaim_reent+0xb4>
 8004728:	4620      	mov	r0, r4
 800472a:	e8bd 4070 	ldmia.w	sp!, {r4, r5, r6, lr}
 800472e:	4718      	bx	r3
 8004730:	bd70      	pop	{r4, r5, r6, pc}
 8004732:	bf00      	nop
 8004734:	20000004 			@ <UNDEFINED> instruction: 20000004

Disassembly of section .text._fstat_r:

08004738 <_fstat_r>:
 8004738:	b538      	push	{r3, r4, r5, lr}
 800473a:	4c07      	ldr	r4, [pc, #28]	@ (8004758 <_fstat_r+0x20>)
 800473c:	2300      	movs	r3, #0
 800473e:	4605      	mov	r5, r0
 8004740:	4608      	mov	r0, r1
 8004742:	4611      	mov	r1, r2
 8004744:	6023      	str	r3, [r4, #0]
 8004746:	f7fb fdc9 	bl	80002dc <_fstat>
 800474a:	1c43      	adds	r3, r0, #1
 800474c:	d102      	bne.n	8004754 <_fstat_r+0x1c>
 800474e:	6823      	ldr	r3, [r4, #0]
 8004750:	b103      	cbz	r3, 8004754 <_fstat_r+0x1c>
 8004752:	602b      	str	r3, [r5, #0]
 8004754:	bd38      	pop	{r3, r4, r5, pc}
 8004756:	bf00      	nop
 8004758:	20000320 			@ <UNDEFINED> instruction: 20000320

Disassembly of section .text._isatty_r:

0800475c <_isatty_r>:
 800475c:	b538      	push	{r3, r4, r5, lr}
 800475e:	4c06      	ldr	r4, [pc, #24]	@ (8004778 <_isatty_r+0x1c>)
 8004760:	2300      	movs	r3, #0
 8004762:	4605      	mov	r5, r0
 8004764:	4608      	mov	r0, r1
 8004766:	6023      	str	r3, [r4, #0]
 8004768:	f7fb fdbe 	bl	80002e8 <_isatty>
 800476c:	1c43      	adds	r3, r0, #1
 800476e:	d102      	bne.n	8004776 <_isatty_r+0x1a>
 8004770:	6823      	ldr	r3, [r4, #0]
 8004772:	b103      	cbz	r3, 8004776 <_isatty_r+0x1a>
 8004774:	602b      	str	r3, [r5, #0]
 8004776:	bd38      	pop	{r3, r4, r5, pc}
 8004778:	20000320 			@ <UNDEFINED> instruction: 20000320

Disassembly of section .text._lseek_r:

0800477c <_lseek_r>:
 800477c:	b538      	push	{r3, r4, r5, lr}
 800477e:	4c07      	ldr	r4, [pc, #28]	@ (800479c <_lseek_r+0x20>)
 8004780:	4605      	mov	r5, r0
 8004782:	4608      	mov	r0, r1
 8004784:	4611      	mov	r1, r2
 8004786:	2200      	movs	r2, #0
 8004788:	6022      	str	r2, [r4, #0]
 800478a:	461a      	mov	r2, r3
 800478c:	f7fb fda0 	bl	80002d0 <_lseek>
 8004790:	1c43      	adds	r3, r0, #1
 8004792:	d102      	bne.n	800479a <_lseek_r+0x1e>
 8004794:	6823      	ldr	r3, [r4, #0]
 8004796:	b103      	cbz	r3, 800479a <_lseek_r+0x1e>
 8004798:	602b      	str	r3, [r5, #0]
 800479a:	bd38      	pop	{r3, r4, r5, pc}
 800479c:	20000320 			@ <UNDEFINED> instruction: 20000320

Disassembly of section .text._read_r:

080047a0 <_read_r>:
 80047a0:	b538      	push	{r3, r4, r5, lr}
 80047a2:	4c07      	ldr	r4, [pc, #28]	@ (80047c0 <_read_r+0x20>)
 80047a4:	4605      	mov	r5, r0
 80047a6:	4608      	mov	r0, r1
 80047a8:	4611      	mov	r1, r2
 80047aa:	2200      	movs	r2, #0
 80047ac:	6022      	str	r2, [r4, #0]
 80047ae:	461a      	mov	r2, r3
 80047b0:	f7fb fd8c 	bl	80002cc <_read>
 80047b4:	1c43      	adds	r3, r0, #1
 80047b6:	d102      	bne.n	80047be <_read_r+0x1e>
 80047b8:	6823      	ldr	r3, [r4, #0]
 80047ba:	b103      	cbz	r3, 80047be <_read_r+0x1e>
 80047bc:	602b      	str	r3, [r5, #0]
 80047be:	bd38      	pop	{r3, r4, r5, pc}
 80047c0:	20000320 			@ <UNDEFINED> instruction: 20000320

Disassembly of section .text._sbrk_r:

080047c4 <_sbrk_r>:
 80047c4:	b538      	push	{r3, r4, r5, lr}
 80047c6:	4c06      	ldr	r4, [pc, #24]	@ (80047e0 <_sbrk_r+0x1c>)
 80047c8:	2300      	movs	r3, #0
 80047ca:	4605      	mov	r5, r0
 80047cc:	4608      	mov	r0, r1
 80047ce:	6023      	str	r3, [r4, #0]
 80047d0:	f7fb fd52 	bl	8000278 <_sbrk>
 80047d4:	1c43      	adds	r3, r0, #1
 80047d6:	d102      	bne.n	80047de <_sbrk_r+0x1a>
 80047d8:	6823      	ldr	r3, [r4, #0]
 80047da:	b103      	cbz	r3, 80047de <_sbrk_r+0x1a>
 80047dc:	602b      	str	r3, [r5, #0]
 80047de:	bd38      	pop	{r3, r4, r5, pc}
 80047e0:	20000320 			@ <UNDEFINED> instruction: 20000320

Disassembly of section .text._write_r:

080047e4 <_write_r>:
 80047e4:	b538      	push	{r3, r4, r5, lr}
 80047e6:	4c07      	ldr	r4, [pc, #28]	@ (8004804 <_write_r+0x20>)
 80047e8:	4605      	mov	r5, r0
 80047ea:	4608      	mov	r0, r1
 80047ec:	4611      	mov	r1, r2
 80047ee:	2200      	movs	r2, #0
 80047f0:	6022      	str	r2, [r4, #0]
 80047f2:	461a      	mov	r2, r3
 80047f4:	f7fb fd5c 	bl	80002b0 <_write>
 80047f8:	1c43      	adds	r3, r0, #1
 80047fa:	d102      	bne.n	8004802 <_write_r+0x1e>
 80047fc:	6823      	ldr	r3, [r4, #0]
 80047fe:	b103      	cbz	r3, 8004802 <_write_r+0x1e>
 8004800:	602b      	str	r3, [r5, #0]
 8004802:	bd38      	pop	{r3, r4, r5, pc}
 8004804:	20000320 			@ <UNDEFINED> instruction: 20000320

Disassembly of section .text.memcpy:

08004808 <memcpy>:
 8004808:	440a      	add	r2, r1
 800480a:	4291      	cmp	r1, r2
 800480c:	f100 33ff 	add.w	r3, r0, #4294967295
 8004810:	d100      	bne.n	8004814 <memcpy+0xc>
 8004812:	4770      	bx	lr
 8004814:	b510      	push	{r4, lr}
 8004816:	f811 4b01 	ldrb.w	r4, [r1], #1
 800481a:	f803 4f01 	strb.w	r4, [r3, #1]!
 800481e:	4291      	cmp	r1, r2
 8004820:	d1f9      	bne.n	8004816 <memcpy+0xe>
 8004822:	bd10      	pop	{r4, pc}

Disassembly of section .text.__assert_func:

08004824 <__assert_func>:
 8004824:	b51f      	push	{r0, r1, r2, r3, r4, lr}
 8004826:	461d      	mov	r5, r3
 8004828:	4b09      	ldr	r3, [pc, #36]	@ (8004850 <__assert_func+0x2c>)
 800482a:	681b      	ldr	r3, [r3, #0]
 800482c:	4606      	mov	r6, r0
 800482e:	68d8      	ldr	r0, [r3, #12]
 8004830:	b152      	cbz	r2, 8004848 <__assert_func+0x24>
 8004832:	4c08      	ldr	r4, [pc, #32]	@ (8004854 <__assert_func+0x30>)
 8004834:	9100      	str	r1, [sp, #0]
 8004836:	e9cd 4201 	strd	r4, r2, [sp, #4]
 800483a:	4907      	ldr	r1, [pc, #28]	@ (8004858 <__assert_func+0x34>)
 800483c:	4633      	mov	r3, r6
 800483e:	462a      	mov	r2, r5
 8004840:	f000 f892 	bl	8004968 <fiprintf>
 8004844:	f000 f8a2 	bl	800498c <abort>
 8004848:	4c04      	ldr	r4, [pc, #16]	@ (800485c <__assert_func+0x38>)
 800484a:	4622      	mov	r2, r4
 800484c:	e7f2      	b.n	8004834 <__assert_func+0x10>
 800484e:	bf00      	nop
 8004850:	20000004 			@ <UNDEFINED> instruction: 20000004
 8004854:	08004cb1 			@ <UNDEFINED> instruction: 08004cb1
 8004858:	08004cbe 			@ <UNDEFINED> instruction: 08004cbe
 800485c:	08004cec 			@ <UNDEFINED> instruction: 08004cec

Disassembly of section .text.__assert:

08004860 <__assert>:
 8004860:	b508      	push	{r3, lr}
 8004862:	4613      	mov	r3, r2
 8004864:	2200      	movs	r2, #0
 8004866:	f7ff ffdd 	bl	8004824 <__assert_func>

Disassembly of section .text._calloc_r:

0800486a <_calloc_r>:
 800486a:	b570      	push	{r4, r5, r6, lr}
 800486c:	fba1 6502 	umull	r6, r5, r1, r2
 8004870:	b935      	cbnz	r5, 8004880 <_calloc_r+0x16>
 8004872:	4631      	mov	r1, r6
 8004874:	f7fe f980 	bl	8002b78 <_malloc_r>
 8004878:	4604      	mov	r4, r0
 800487a:	b928      	cbnz	r0, 8004888 <_calloc_r+0x1e>
 800487c:	4620      	mov	r0, r4
 800487e:	bd70      	pop	{r4, r5, r6, pc}
 8004880:	230c      	movs	r3, #12
 8004882:	6003      	str	r3, [r0, #0]
 8004884:	2400      	movs	r4, #0
 8004886:	e7f9      	b.n	800487c <_calloc_r+0x12>
 8004888:	4632      	mov	r2, r6
 800488a:	4629      	mov	r1, r5
 800488c:	f7ff feb1 	bl	80045f2 <memset>
 8004890:	e7f4      	b.n	800487c <_calloc_r+0x12>

Disassembly of section .text._mbtowc_r:

08004894 <_mbtowc_r>:
 8004894:	b410      	push	{r4}
 8004896:	4c02      	ldr	r4, [pc, #8]	@ (80048a0 <_mbtowc_r+0xc>)
 8004898:	f8d4 c0e4 	ldr.w	ip, [r4, #228]	@ 0xe4
 800489c:	bc10      	pop	{r4}
 800489e:	4760      	bx	ip
 80048a0:	20000060 			@ <UNDEFINED> instruction: 20000060

Disassembly of section .text.__ascii_mbtowc:

080048a4 <__ascii_mbtowc>:
 80048a4:	b082      	sub	sp, #8
 80048a6:	b901      	cbnz	r1, 80048aa <__ascii_mbtowc+0x6>
 80048a8:	a901      	add	r1, sp, #4
 80048aa:	b142      	cbz	r2, 80048be <__ascii_mbtowc+0x1a>
 80048ac:	b14b      	cbz	r3, 80048c2 <__ascii_mbtowc+0x1e>
 80048ae:	7813      	ldrb	r3, [r2, #0]
 80048b0:	600b      	str	r3, [r1, #0]
 80048b2:	7812      	ldrb	r2, [r2, #0]
 80048b4:	1e10      	subs	r0, r2, #0
 80048b6:	bf18      	it	ne
 80048b8:	2001      	movne	r0, #1
 80048ba:	b002      	add	sp, #8
 80048bc:	4770      	bx	lr
 80048be:	4610      	mov	r0, r2
 80048c0:	e7fb      	b.n	80048ba <__ascii_mbtowc+0x16>
 80048c2:	f06f 0001 	mvn.w	r0, #1
 80048c6:	e7f8      	b.n	80048ba <__ascii_mbtowc+0x16>

Disassembly of section .text._realloc_r:

080048c8 <_realloc_r>:
 80048c8:	e92d 41f0 	stmdb	sp!, {r4, r5, r6, r7, r8, lr}
 80048cc:	4607      	mov	r7, r0
 80048ce:	4615      	mov	r5, r2
 80048d0:	460c      	mov	r4, r1
 80048d2:	b921      	cbnz	r1, 80048de <_realloc_r+0x16>
 80048d4:	e8bd 41f0 	ldmia.w	sp!, {r4, r5, r6, r7, r8, lr}
 80048d8:	4611      	mov	r1, r2
 80048da:	f7fe b94d 	b.w	8002b78 <_malloc_r>
 80048de:	b92a      	cbnz	r2, 80048ec <_realloc_r+0x24>
 80048e0:	f7fe f8cc 	bl	8002a7c <_free_r>
 80048e4:	462c      	mov	r4, r5
 80048e6:	4620      	mov	r0, r4
 80048e8:	e8bd 81f0 	ldmia.w	sp!, {r4, r5, r6, r7, r8, pc}
 80048ec:	f000 f855 	bl	800499a <_malloc_usable_size_r>
 80048f0:	4285      	cmp	r5, r0
 80048f2:	4606      	mov	r6, r0
 80048f4:	d802      	bhi.n	80048fc <_realloc_r+0x34>
 80048f6:	ebb5 0f50 	cmp.w	r5, r0, lsr #1
 80048fa:	d8f4      	bhi.n	80048e6 <_realloc_r+0x1e>
 80048fc:	4629      	mov	r1, r5
 80048fe:	4638      	mov	r0, r7
 8004900:	f7fe f93a 	bl	8002b78 <_malloc_r>
 8004904:	4680      	mov	r8, r0
 8004906:	b908      	cbnz	r0, 800490c <_realloc_r+0x44>
 8004908:	4644      	mov	r4, r8
 800490a:	e7ec      	b.n	80048e6 <_realloc_r+0x1e>
 800490c:	42b5      	cmp	r5, r6
 800490e:	462a      	mov	r2, r5
 8004910:	4621      	mov	r1, r4
 8004912:	bf28      	it	cs
 8004914:	4632      	movcs	r2, r6
 8004916:	f7ff ff77 	bl	8004808 <memcpy>
 800491a:	4621      	mov	r1, r4
 800491c:	4638      	mov	r0, r7
 800491e:	f7fe f8ad 	bl	8002a7c <_free_r>
 8004922:	e7f1      	b.n	8004908 <_realloc_r+0x40>

Disassembly of section .text._wctomb_r:

08004924 <_wctomb_r>:
 8004924:	b410      	push	{r4}
 8004926:	4c02      	ldr	r4, [pc, #8]	@ (8004930 <_wctomb_r+0xc>)
 8004928:	f8d4 c0e0 	ldr.w	ip, [r4, #224]	@ 0xe0
 800492c:	bc10      	pop	{r4}
 800492e:	4760      	bx	ip
 8004930:	20000060 			@ <UNDEFINED> instruction: 20000060

Disassembly of section .text.__ascii_wctomb:

08004934 <__ascii_wctomb>:
 8004934:	b149      	cbz	r1, 800494a <__ascii_wctomb+0x16>
 8004936:	2aff      	cmp	r2, #255	@ 0xff
 8004938:	bf85      	ittet	hi
 800493a:	238a      	movhi	r3, #138	@ 0x8a
 800493c:	6003      	strhi	r3, [r0, #0]
 800493e:	700a      	strbls	r2, [r1, #0]
 8004940:	f04f 30ff 	movhi.w	r0, #4294967295
 8004944:	bf98      	it	ls
 8004946:	2001      	movls	r0, #1
 8004948:	4770      	bx	lr
 800494a:	4608      	mov	r0, r1
 800494c:	4770      	bx	lr

Disassembly of section .text._fprintf_r:

0800494e <_fiprintf_r>:
 800494e:	b40c      	push	{r2, r3}
 8004950:	b507      	push	{r0, r1, r2, lr}
 8004952:	ab04      	add	r3, sp, #16
 8004954:	f853 2b04 	ldr.w	r2, [r3], #4
 8004958:	9301      	str	r3, [sp, #4]
 800495a:	f7ff f881 	bl	8003a60 <_vfiprintf_r>
 800495e:	b003      	add	sp, #12
 8004960:	f85d eb04 	ldr.w	lr, [sp], #4
 8004964:	b002      	add	sp, #8
 8004966:	4770      	bx	lr

Disassembly of section .text.fprintf:

08004968 <fiprintf>:
 8004968:	b40e      	push	{r1, r2, r3}
 800496a:	b503      	push	{r0, r1, lr}
 800496c:	4601      	mov	r1, r0
 800496e:	ab03      	add	r3, sp, #12
 8004970:	4805      	ldr	r0, [pc, #20]	@ (8004988 <fiprintf+0x20>)
 8004972:	f853 2b04 	ldr.w	r2, [r3], #4
 8004976:	6800      	ldr	r0, [r0, #0]
 8004978:	9301      	str	r3, [sp, #4]
 800497a:	f7ff f871 	bl	8003a60 <_vfiprintf_r>
 800497e:	b002      	add	sp, #8
 8004980:	f85d eb04 	ldr.w	lr, [sp], #4
 8004984:	b003      	add	sp, #12
 8004986:	4770      	bx	lr
 8004988:	20000004 			@ <UNDEFINED> instruction: 20000004

Disassembly of section .text.abort:

0800498c <abort>:
 800498c:	b508      	push	{r3, lr}
 800498e:	2006      	movs	r0, #6
 8004990:	f000 f884 	bl	8004a9c <raise>
 8004994:	2001      	movs	r0, #1
 8004996:	f000 f8b3 	bl	8004b00 <_exit>

Disassembly of section .text._malloc_usable_size_r:

0800499a <_malloc_usable_size_r>:
 800499a:	f851 3c04 	ldr.w	r3, [r1, #-4]
 800499e:	1f18      	subs	r0, r3, #4
 80049a0:	2b00      	cmp	r3, #0
 80049a2:	bfbc      	itt	lt
 80049a4:	580b      	ldrlt	r3, [r1, r0]
 80049a6:	18c0      	addlt	r0, r0, r3
 80049a8:	4770      	bx	lr

Disassembly of section .text._init_signal_r:

080049aa <_init_signal_r>:
 80049aa:	b538      	push	{r3, r4, r5, lr}
 80049ac:	6bc4      	ldr	r4, [r0, #60]	@ 0x3c
 80049ae:	4605      	mov	r5, r0
 80049b0:	b954      	cbnz	r4, 80049c8 <_init_signal_r+0x1e>
 80049b2:	2180      	movs	r1, #128	@ 0x80
 80049b4:	f7fe f8e0 	bl	8002b78 <_malloc_r>
 80049b8:	63e8      	str	r0, [r5, #60]	@ 0x3c
 80049ba:	b138      	cbz	r0, 80049cc <_init_signal_r+0x22>
 80049bc:	1f03      	subs	r3, r0, #4
 80049be:	307c      	adds	r0, #124	@ 0x7c
 80049c0:	f843 4f04 	str.w	r4, [r3, #4]!
 80049c4:	4283      	cmp	r3, r0
 80049c6:	d1fb      	bne.n	80049c0 <_init_signal_r+0x16>
 80049c8:	2000      	movs	r0, #0
 80049ca:	bd38      	pop	{r3, r4, r5, pc}
 80049cc:	f04f 30ff 	mov.w	r0, #4294967295
 80049d0:	e7fb      	b.n	80049ca <_init_signal_r+0x20>

Disassembly of section .text._signal_r:

080049d2 <_signal_r>:
 80049d2:	291f      	cmp	r1, #31
 80049d4:	b570      	push	{r4, r5, r6, lr}
 80049d6:	4604      	mov	r4, r0
 80049d8:	460d      	mov	r5, r1
 80049da:	4616      	mov	r6, r2
 80049dc:	d904      	bls.n	80049e8 <_signal_r+0x16>
 80049de:	2316      	movs	r3, #22
 80049e0:	6003      	str	r3, [r0, #0]
 80049e2:	f04f 30ff 	mov.w	r0, #4294967295
 80049e6:	e006      	b.n	80049f6 <_signal_r+0x24>
 80049e8:	6bc3      	ldr	r3, [r0, #60]	@ 0x3c
 80049ea:	b12b      	cbz	r3, 80049f8 <_signal_r+0x26>
 80049ec:	6be3      	ldr	r3, [r4, #60]	@ 0x3c
 80049ee:	f853 0025 	ldr.w	r0, [r3, r5, lsl #2]
 80049f2:	f843 6025 	str.w	r6, [r3, r5, lsl #2]
 80049f6:	bd70      	pop	{r4, r5, r6, pc}
 80049f8:	f7ff ffd7 	bl	80049aa <_init_signal_r>
 80049fc:	2800      	cmp	r0, #0
 80049fe:	d0f5      	beq.n	80049ec <_signal_r+0x1a>
 8004a00:	e7ef      	b.n	80049e2 <_signal_r+0x10>

Disassembly of section .text._raise_r:

08004a02 <_raise_r>:
 8004a02:	291f      	cmp	r1, #31
 8004a04:	b538      	push	{r3, r4, r5, lr}
 8004a06:	4605      	mov	r5, r0
 8004a08:	460c      	mov	r4, r1
 8004a0a:	d904      	bls.n	8004a16 <_raise_r+0x14>
 8004a0c:	2316      	movs	r3, #22
 8004a0e:	6003      	str	r3, [r0, #0]
 8004a10:	f04f 30ff 	mov.w	r0, #4294967295
 8004a14:	bd38      	pop	{r3, r4, r5, pc}
 8004a16:	6bc2      	ldr	r2, [r0, #60]	@ 0x3c
 8004a18:	b112      	cbz	r2, 8004a20 <_raise_r+0x1e>
 8004a1a:	f852 3021 	ldr.w	r3, [r2, r1, lsl #2]
 8004a1e:	b94b      	cbnz	r3, 8004a34 <_raise_r+0x32>
 8004a20:	4628      	mov	r0, r5
 8004a22:	f000 f86b 	bl	8004afc <_getpid_r>
 8004a26:	4622      	mov	r2, r4
 8004a28:	4601      	mov	r1, r0
 8004a2a:	4628      	mov	r0, r5
 8004a2c:	e8bd 4038 	ldmia.w	sp!, {r3, r4, r5, lr}
 8004a30:	f000 b852 	b.w	8004ad8 <_kill_r>
 8004a34:	2b01      	cmp	r3, #1
 8004a36:	d00a      	beq.n	8004a4e <_raise_r+0x4c>
 8004a38:	1c59      	adds	r1, r3, #1
 8004a3a:	d103      	bne.n	8004a44 <_raise_r+0x42>
 8004a3c:	2316      	movs	r3, #22
 8004a3e:	6003      	str	r3, [r0, #0]
 8004a40:	2001      	movs	r0, #1
 8004a42:	e7e7      	b.n	8004a14 <_raise_r+0x12>
 8004a44:	2100      	movs	r1, #0
 8004a46:	f842 1024 	str.w	r1, [r2, r4, lsl #2]
 8004a4a:	4620      	mov	r0, r4
 8004a4c:	4798      	blx	r3
 8004a4e:	2000      	movs	r0, #0
 8004a50:	e7e0      	b.n	8004a14 <_raise_r+0x12>

Disassembly of section .text.__sigtramp_r:

08004a52 <__sigtramp_r>:
 8004a52:	291f      	cmp	r1, #31
 8004a54:	b538      	push	{r3, r4, r5, lr}
 8004a56:	4604      	mov	r4, r0
 8004a58:	460d      	mov	r5, r1
 8004a5a:	d902      	bls.n	8004a62 <__sigtramp_r+0x10>
 8004a5c:	f04f 30ff 	mov.w	r0, #4294967295
 8004a60:	bd38      	pop	{r3, r4, r5, pc}
 8004a62:	6bc3      	ldr	r3, [r0, #60]	@ 0x3c
 8004a64:	b12b      	cbz	r3, 8004a72 <__sigtramp_r+0x20>
 8004a66:	6be2      	ldr	r2, [r4, #60]	@ 0x3c
 8004a68:	f852 3025 	ldr.w	r3, [r2, r5, lsl #2]
 8004a6c:	b933      	cbnz	r3, 8004a7c <__sigtramp_r+0x2a>
 8004a6e:	2001      	movs	r0, #1
 8004a70:	e7f6      	b.n	8004a60 <__sigtramp_r+0xe>
 8004a72:	f7ff ff9a 	bl	80049aa <_init_signal_r>
 8004a76:	2800      	cmp	r0, #0
 8004a78:	d0f5      	beq.n	8004a66 <__sigtramp_r+0x14>
 8004a7a:	e7ef      	b.n	8004a5c <__sigtramp_r+0xa>
 8004a7c:	1c59      	adds	r1, r3, #1
 8004a7e:	d008      	beq.n	8004a92 <__sigtramp_r+0x40>
 8004a80:	2b01      	cmp	r3, #1
 8004a82:	d008      	beq.n	8004a96 <__sigtramp_r+0x44>
 8004a84:	2400      	movs	r4, #0
 8004a86:	4628      	mov	r0, r5
 8004a88:	f842 4025 	str.w	r4, [r2, r5, lsl #2]
 8004a8c:	4798      	blx	r3
 8004a8e:	4620      	mov	r0, r4
 8004a90:	e7e6      	b.n	8004a60 <__sigtramp_r+0xe>
 8004a92:	2002      	movs	r0, #2
 8004a94:	e7e4      	b.n	8004a60 <__sigtramp_r+0xe>
 8004a96:	2003      	movs	r0, #3
 8004a98:	e7e2      	b.n	8004a60 <__sigtramp_r+0xe>

Disassembly of section .text.raise:

08004a9c <raise>:
 8004a9c:	4b02      	ldr	r3, [pc, #8]	@ (8004aa8 <raise+0xc>)
 8004a9e:	4601      	mov	r1, r0
 8004aa0:	6818      	ldr	r0, [r3, #0]
 8004aa2:	f7ff bfae 	b.w	8004a02 <_raise_r>
 8004aa6:	bf00      	nop
 8004aa8:	20000004 			@ <UNDEFINED> instruction: 20000004

Disassembly of section .text.signal:

08004aac <signal>:
 8004aac:	4b02      	ldr	r3, [pc, #8]	@ (8004ab8 <signal+0xc>)
 8004aae:	460a      	mov	r2, r1
 8004ab0:	4601      	mov	r1, r0
 8004ab2:	6818      	ldr	r0, [r3, #0]
 8004ab4:	f7ff bf8d 	b.w	80049d2 <_signal_r>
 8004ab8:	20000004 			@ <UNDEFINED> instruction: 20000004

Disassembly of section .text._init_signal:

08004abc <_init_signal>:
 8004abc:	4b01      	ldr	r3, [pc, #4]	@ (8004ac4 <_init_signal+0x8>)
 8004abe:	6818      	ldr	r0, [r3, #0]
 8004ac0:	f7ff bf73 	b.w	80049aa <_init_signal_r>
 8004ac4:	20000004 			@ <UNDEFINED> instruction: 20000004

Disassembly of section .text.__sigtramp:

08004ac8 <__sigtramp>:
 8004ac8:	4b02      	ldr	r3, [pc, #8]	@ (8004ad4 <__sigtramp+0xc>)
 8004aca:	4601      	mov	r1, r0
 8004acc:	6818      	ldr	r0, [r3, #0]
 8004ace:	f7ff bfc0 	b.w	8004a52 <__sigtramp_r>
 8004ad2:	bf00      	nop
 8004ad4:	20000004 			@ <UNDEFINED> instruction: 20000004

Disassembly of section .text._kill_r:

08004ad8 <_kill_r>:
 8004ad8:	b538      	push	{r3, r4, r5, lr}
 8004ada:	4c07      	ldr	r4, [pc, #28]	@ (8004af8 <_kill_r+0x20>)
 8004adc:	2300      	movs	r3, #0
 8004ade:	4605      	mov	r5, r0
 8004ae0:	4608      	mov	r0, r1
 8004ae2:	4611      	mov	r1, r2
 8004ae4:	6023      	str	r3, [r4, #0]
 8004ae6:	f7fb fc03 	bl	80002f0 <_kill>
 8004aea:	1c43      	adds	r3, r0, #1
 8004aec:	d102      	bne.n	8004af4 <_kill_r+0x1c>
 8004aee:	6823      	ldr	r3, [r4, #0]
 8004af0:	b103      	cbz	r3, 8004af4 <_kill_r+0x1c>
 8004af2:	602b      	str	r3, [r5, #0]
 8004af4:	bd38      	pop	{r3, r4, r5, pc}
 8004af6:	bf00      	nop
 8004af8:	20000320 			@ <UNDEFINED> instruction: 20000320

Disassembly of section .text._getpid_r:

08004afc <_getpid_r>:
 8004afc:	f7fb bbf6 	b.w	80002ec <_getpid>

Disassembly of section .text._exit:

08004b00 <_exit>:
 8004b00:	e7fe      	b.n	8004b00 <_exit>
 8004b02:	bf00      	nop

Disassembly of section .ARM.exidx:

08004b04 <.ARM.exidx>:
 8004b04:	7fffbb9c 			@ <UNDEFINED> instruction: 7fffbb9c
 8004b08:	00000001 			@ <UNDEFINED> instruction: 00000001

Disassembly of section .rodata:

08004b10 <AHBPrescTable>:
	...
 8004b18:	04030201 			@ <UNDEFINED> instruction: 04030201
 8004b1c:	09080706 			@ <UNDEFINED> instruction: 09080706

08004b20 <APBPrescTable>:
 8004b20:	00000000 			@ <UNDEFINED> instruction: 00000000
 8004b24:	04030201 			@ <UNDEFINED> instruction: 04030201
 8004b28:	54737953 			@ <UNDEFINED> instruction: 54737953
 8004b2c:	206b6369 			@ <UNDEFINED> instruction: 206b6369
 8004b30:	ea9c8bec 			@ <UNDEFINED> instruction: ea9c8bec
 8004b34:	ec2084b0 			@ <UNDEFINED> instruction: ec2084b0
 8004b38:	a0eca1b8 	strhtge	sl, [ip], #24
 8004b3c:	65742095 			@ <UNDEFINED> instruction: 65742095
 8004b40:	000a7473 			@ <UNDEFINED> instruction: 000a7473
 8004b44:	616c6544 			@ <UNDEFINED> instruction: 616c6544
 8004b48:	69542079 			@ <UNDEFINED> instruction: 69542079
 8004b4c:	3d20656d 			@ <UNDEFINED> instruction: 3d20656d
 8004b50:	20752520 			@ <UNDEFINED> instruction: 20752520
 8004b54:	6365736d 			@ <UNDEFINED> instruction: 6365736d
 8004b58:	0000000a 			@ <UNDEFINED> instruction: 0000000a
 8004b5c:	54737953 			@ <UNDEFINED> instruction: 54737953
 8004b60:	206b6369 			@ <UNDEFINED> instruction: 206b6369
 8004b64:	4b434954 			@ <UNDEFINED> instruction: 4b434954
 8004b68:	9cb0eb20 	vldmials	r0!, {d14-d29}
 8004b6c:	209d83ec 			@ <UNDEFINED> instruction: 209d83ec
 8004b70:	74736574 			@ <UNDEFINED> instruction: 74736574
 8004b74:	0000000a 			@ <UNDEFINED> instruction: 0000000a
 8004b78:	4e49002e 			@ <UNDEFINED> instruction: 4e49002e
 8004b7c:	6e690046 			@ <UNDEFINED> instruction: 6e690046
 8004b80:	414e0066 			@ <UNDEFINED> instruction: 414e0066
 8004b84:	616e004e 			@ <UNDEFINED> instruction: 616e004e
 8004b88:	0030006e 			@ <UNDEFINED> instruction: 0030006e
 8004b8c:	33323130 			@ <UNDEFINED> instruction: 33323130
 8004b90:	37363534 			@ <UNDEFINED> instruction: 37363534
 8004b94:	42413938 			@ <UNDEFINED> instruction: 42413938
 8004b98:	46454443 			@ <UNDEFINED> instruction: 46454443
 8004b9c:	32313000 			@ <UNDEFINED> instruction: 32313000
 8004ba0:	36353433 			@ <UNDEFINED> instruction: 36353433
 8004ba4:	61393837 			@ <UNDEFINED> instruction: 61393837
 8004ba8:	65646362 			@ <UNDEFINED> instruction: 65646362
 8004bac:	6e490066 			@ <UNDEFINED> instruction: 6e490066
 8004bb0:	696e6966 			@ <UNDEFINED> instruction: 696e6966
 8004bb4:	4e007974 			@ <UNDEFINED> instruction: 4e007974
 8004bb8:	52004e61 			@ <UNDEFINED> instruction: 52004e61
 8004bbc:	544e4545 			@ <UNDEFINED> instruction: 544e4545
 8004bc0:	6c616d20 			@ <UNDEFINED> instruction: 6c616d20
 8004bc4:	20636f6c 			@ <UNDEFINED> instruction: 20636f6c
 8004bc8:	63637573 			@ <UNDEFINED> instruction: 63637573
 8004bcc:	65646565 			@ <UNDEFINED> instruction: 65646565
 8004bd0:	642f0064 			@ <UNDEFINED> instruction: 642f0064
 8004bd4:	2f617461 			@ <UNDEFINED> instruction: 2f617461
 8004bd8:	6b6e656a 			@ <UNDEFINED> instruction: 6b6e656a
 8004bdc:	2f736e69 			@ <UNDEFINED> instruction: 2f736e69
 8004be0:	6b726f77 			@ <UNDEFINED> instruction: 6b726f77
 8004be4:	63617073 			@ <UNDEFINED> instruction: 63617073
 8004be8:	4e472f65 			@ <UNDEFINED> instruction: 4e472f65
 8004bec:	6f742d55 			@ <UNDEFINED> instruction: 6f742d55
 8004bf0:	68636c6f 			@ <UNDEFINED> instruction: 68636c6f
 8004bf4:	2f6e6961 			@ <UNDEFINED> instruction: 2f6e6961
 8004bf8:	2d6d7261 			@ <UNDEFINED> instruction: 2d6d7261
 8004bfc:	732f3531 			@ <UNDEFINED> instruction: 732f3531
 8004c00:	6e2f6372 			@ <UNDEFINED> instruction: 6e2f6372
 8004c04:	696c7765 			@ <UNDEFINED> instruction: 696c7765
 8004c08:	79632d62 			@ <UNDEFINED> instruction: 79632d62
 8004c0c:	6e697767 			@ <UNDEFINED> instruction: 6e697767
 8004c10:	77656e2f 			@ <UNDEFINED> instruction: 77656e2f
 8004c14:	2f62696c 			@ <UNDEFINED> instruction: 2f62696c
 8004c18:	6362696c 			@ <UNDEFINED> instruction: 6362696c
 8004c1c:	6474732f 			@ <UNDEFINED> instruction: 6474732f
 8004c20:	2f62696c 			@ <UNDEFINED> instruction: 2f62696c
 8004c24:	616f7464 			@ <UNDEFINED> instruction: 616f7464
 8004c28:	4200632e 			@ <UNDEFINED> instruction: 4200632e
 8004c2c:	6f6c6c61 			@ <UNDEFINED> instruction: 6f6c6c61
 8004c30:	75732063 			@ <UNDEFINED> instruction: 75732063
 8004c34:	65656363 			@ <UNDEFINED> instruction: 65656363
 8004c38:	00646564 			@ <UNDEFINED> instruction: 00646564
 8004c3c:	7461642f 			@ <UNDEFINED> instruction: 7461642f
 8004c40:	656a2f61 			@ <UNDEFINED> instruction: 656a2f61
 8004c44:	6e696b6e 	vnmulvs.f64	d22, d9, d30
 8004c48:	6f772f73 			@ <UNDEFINED> instruction: 6f772f73
 8004c4c:	70736b72 			@ <UNDEFINED> instruction: 70736b72
 8004c50:	2f656361 			@ <UNDEFINED> instruction: 2f656361
 8004c54:	2d554e47 			@ <UNDEFINED> instruction: 2d554e47
 8004c58:	6c6f6f74 			@ <UNDEFINED> instruction: 6c6f6f74
 8004c5c:	69616863 			@ <UNDEFINED> instruction: 69616863
 8004c60:	72612f6e 			@ <UNDEFINED> instruction: 72612f6e
 8004c64:	35312d6d 			@ <UNDEFINED> instruction: 35312d6d
 8004c68:	6372732f 			@ <UNDEFINED> instruction: 6372732f
 8004c6c:	77656e2f 			@ <UNDEFINED> instruction: 77656e2f
 8004c70:	2d62696c 			@ <UNDEFINED> instruction: 2d62696c
 8004c74:	77677963 			@ <UNDEFINED> instruction: 77677963
 8004c78:	6e2f6e69 			@ <UNDEFINED> instruction: 6e2f6e69
 8004c7c:	696c7765 			@ <UNDEFINED> instruction: 696c7765
 8004c80:	696c2f62 			@ <UNDEFINED> instruction: 696c2f62
 8004c84:	732f6362 			@ <UNDEFINED> instruction: 732f6362
 8004c88:	696c6474 			@ <UNDEFINED> instruction: 696c6474
 8004c8c:	706d2f62 			@ <UNDEFINED> instruction: 706d2f62
 8004c90:	2e636572 			@ <UNDEFINED> instruction: 2e636572
 8004c94:	2d230063 			@ <UNDEFINED> instruction: 2d230063
 8004c98:	00202b30 			@ <UNDEFINED> instruction: 00202b30
 8004c9c:	004c6c68 			@ <UNDEFINED> instruction: 004c6c68
 8004ca0:	45676665 			@ <UNDEFINED> instruction: 45676665
 8004ca4:	43004746 	movwmi	r4, #1862	@ 0x746
 8004ca8:	534f5000 	movtpl	r5, #61440	@ 0xf000
 8004cac:	2e005849 			@ <UNDEFINED> instruction: 2e005849
 8004cb0:	66202c00 			@ <UNDEFINED> instruction: 66202c00
 8004cb4:	74636e75 			@ <UNDEFINED> instruction: 74636e75
 8004cb8:	3a6e6f69 			@ <UNDEFINED> instruction: 3a6e6f69
 8004cbc:	73610020 			@ <UNDEFINED> instruction: 73610020
 8004cc0:	74726573 			@ <UNDEFINED> instruction: 74726573
 8004cc4:	206e6f69 			@ <UNDEFINED> instruction: 206e6f69
 8004cc8:	22732522 			@ <UNDEFINED> instruction: 22732522
 8004ccc:	69616620 			@ <UNDEFINED> instruction: 69616620
 8004cd0:	3a64656c 			@ <UNDEFINED> instruction: 3a64656c
 8004cd4:	6c696620 			@ <UNDEFINED> instruction: 6c696620
 8004cd8:	25222065 			@ <UNDEFINED> instruction: 25222065
 8004cdc:	202c2273 			@ <UNDEFINED> instruction: 202c2273
 8004ce0:	656e696c 			@ <UNDEFINED> instruction: 656e696c
 8004ce4:	25642520 			@ <UNDEFINED> instruction: 25642520
 8004ce8:	0a732573 			@ <UNDEFINED> instruction: 0a732573
 8004cec:	00000000 			@ <UNDEFINED> instruction: 00000000

08004cf0 <p05.0>:
 8004cf0:	00000005 			@ <UNDEFINED> instruction: 00000005
 8004cf4:	00000019 			@ <UNDEFINED> instruction: 00000019
 8004cf8:	0000007d 			@ <UNDEFINED> instruction: 0000007d
 8004cfc:	00000000 			@ <UNDEFINED> instruction: 00000000

08004d00 <__mprec_tinytens>:
 8004d00:	97d889bc 			@ <UNDEFINED> instruction: 97d889bc
 8004d04:	3c9cd2b2 			@ <UNDEFINED> instruction: 3c9cd2b2
 8004d08:	d5a8a733 			@ <UNDEFINED> instruction: d5a8a733
 8004d0c:	3949f623 			@ <UNDEFINED> instruction: 3949f623
 8004d10:	44f4a73d 			@ <UNDEFINED> instruction: 44f4a73d
 8004d14:	32a50ffd 			@ <UNDEFINED> instruction: 32a50ffd
 8004d18:	cf8c979d 			@ <UNDEFINED> instruction: cf8c979d
 8004d1c:	255bba08 			@ <UNDEFINED> instruction: 255bba08
 8004d20:	64ac6f43 			@ <UNDEFINED> instruction: 64ac6f43
 8004d24:	0ac80628 			@ <UNDEFINED> instruction: 0ac80628

08004d28 <__mprec_bigtens>:
 8004d28:	37e08000 			@ <UNDEFINED> instruction: 37e08000
 8004d2c:	4341c379 	movtmi	ip, #4985	@ 0x1379
 8004d30:	b5056e17 			@ <UNDEFINED> instruction: b5056e17
 8004d34:	4693b8b5 			@ <UNDEFINED> instruction: 4693b8b5
 8004d38:	e93ff9f5 			@ <UNDEFINED> instruction: e93ff9f5
 8004d3c:	4d384f03 			@ <UNDEFINED> instruction: 4d384f03
 8004d40:	f9301d32 			@ <UNDEFINED> instruction: f9301d32
 8004d44:	5a827748 			@ <UNDEFINED> instruction: 5a827748
 8004d48:	7f73bf3c 			@ <UNDEFINED> instruction: 7f73bf3c
 8004d4c:	75154fdd 			@ <UNDEFINED> instruction: 75154fdd

08004d50 <__mprec_tens>:
 8004d50:	00000000 			@ <UNDEFINED> instruction: 00000000
 8004d54:	3ff00000 			@ <UNDEFINED> instruction: 3ff00000
 8004d58:	00000000 			@ <UNDEFINED> instruction: 00000000
 8004d5c:	40240000 			@ <UNDEFINED> instruction: 40240000
 8004d60:	00000000 			@ <UNDEFINED> instruction: 00000000
 8004d64:	40590000 			@ <UNDEFINED> instruction: 40590000
 8004d68:	00000000 			@ <UNDEFINED> instruction: 00000000
 8004d6c:	408f4000 			@ <UNDEFINED> instruction: 408f4000
 8004d70:	00000000 			@ <UNDEFINED> instruction: 00000000
 8004d74:	40c38800 			@ <UNDEFINED> instruction: 40c38800
 8004d78:	00000000 			@ <UNDEFINED> instruction: 00000000
 8004d7c:	40f86a00 			@ <UNDEFINED> instruction: 40f86a00
 8004d80:	00000000 			@ <UNDEFINED> instruction: 00000000
 8004d84:	412e8480 	smlawbmi	lr, r0, r4, r8
 8004d88:	00000000 			@ <UNDEFINED> instruction: 00000000
 8004d8c:	416312d0 	ldrdmi	r1, [r3, #-32]!	@ 0xffffffe0
 8004d90:	00000000 			@ <UNDEFINED> instruction: 00000000
 8004d94:	4197d784 			@ <UNDEFINED> instruction: 4197d784
 8004d98:	00000000 			@ <UNDEFINED> instruction: 00000000
 8004d9c:	41cdcd65 			@ <UNDEFINED> instruction: 41cdcd65
 8004da0:	20000000 			@ <UNDEFINED> instruction: 20000000
 8004da4:	4202a05f 			@ <UNDEFINED> instruction: 4202a05f
 8004da8:	e8000000 			@ <UNDEFINED> instruction: e8000000
 8004dac:	42374876 			@ <UNDEFINED> instruction: 42374876
 8004db0:	a2000000 			@ <UNDEFINED> instruction: a2000000
 8004db4:	426d1a94 			@ <UNDEFINED> instruction: 426d1a94
 8004db8:	e5400000 			@ <UNDEFINED> instruction: e5400000
 8004dbc:	42a2309c 			@ <UNDEFINED> instruction: 42a2309c
 8004dc0:	1e900000 			@ <UNDEFINED> instruction: 1e900000
 8004dc4:	42d6bcc4 			@ <UNDEFINED> instruction: 42d6bcc4
 8004dc8:	26340000 			@ <UNDEFINED> instruction: 26340000
 8004dcc:	430c6bf5 	movwmi	r6, #52213	@ 0xcbf5
 8004dd0:	37e08000 			@ <UNDEFINED> instruction: 37e08000
 8004dd4:	4341c379 	movtmi	ip, #4985	@ 0x1379
 8004dd8:	85d8a000 			@ <UNDEFINED> instruction: 85d8a000
 8004ddc:	43763457 			@ <UNDEFINED> instruction: 43763457
 8004de0:	674ec800 			@ <UNDEFINED> instruction: 674ec800
 8004de4:	43abc16d 			@ <UNDEFINED> instruction: 43abc16d
 8004de8:	60913d00 			@ <UNDEFINED> instruction: 60913d00
 8004dec:	43e158e4 			@ <UNDEFINED> instruction: 43e158e4
 8004df0:	78b58c40 			@ <UNDEFINED> instruction: 78b58c40
 8004df4:	4415af1d 			@ <UNDEFINED> instruction: 4415af1d
 8004df8:	d6e2ef50 	usatle	lr, #2, r0, asr #30
 8004dfc:	444b1ae4 			@ <UNDEFINED> instruction: 444b1ae4
 8004e00:	064dd592 			@ <UNDEFINED> instruction: 064dd592
 8004e04:	4480f0cf 			@ <UNDEFINED> instruction: 4480f0cf
 8004e08:	c7e14af6 			@ <UNDEFINED> instruction: c7e14af6
 8004e0c:	44b52d02 			@ <UNDEFINED> instruction: 44b52d02
 8004e10:	79d99db4 			@ <UNDEFINED> instruction: 79d99db4
 8004e14:	44ea7843 			@ <UNDEFINED> instruction: 44ea7843

08004e18 <_ctype_>:
 8004e18:	20202000 			@ <UNDEFINED> instruction: 20202000
 8004e1c:	20202020 			@ <UNDEFINED> instruction: 20202020
 8004e20:	28282020 			@ <UNDEFINED> instruction: 28282020
 8004e24:	20282828 			@ <UNDEFINED> instruction: 20282828
 8004e28:	20202020 			@ <UNDEFINED> instruction: 20202020
 8004e2c:	20202020 			@ <UNDEFINED> instruction: 20202020
 8004e30:	20202020 			@ <UNDEFINED> instruction: 20202020
 8004e34:	20202020 			@ <UNDEFINED> instruction: 20202020
 8004e38:	10108820 			@ <UNDEFINED> instruction: 10108820
 8004e3c:	10101010 			@ <UNDEFINED> instruction: 10101010
 8004e40:	10101010 			@ <UNDEFINED> instruction: 10101010
 8004e44:	10101010 			@ <UNDEFINED> instruction: 10101010
 8004e48:	04040410 			@ <UNDEFINED> instruction: 04040410
 8004e4c:	04040404 			@ <UNDEFINED> instruction: 04040404
 8004e50:	10040404 			@ <UNDEFINED> instruction: 10040404
 8004e54:	10101010 			@ <UNDEFINED> instruction: 10101010
 8004e58:	41411010 			@ <UNDEFINED> instruction: 41411010
 8004e5c:	41414141 			@ <UNDEFINED> instruction: 41414141
 8004e60:	01010101 			@ <UNDEFINED> instruction: 01010101
 8004e64:	01010101 			@ <UNDEFINED> instruction: 01010101
 8004e68:	01010101 			@ <UNDEFINED> instruction: 01010101
 8004e6c:	01010101 			@ <UNDEFINED> instruction: 01010101
 8004e70:	01010101 			@ <UNDEFINED> instruction: 01010101
 8004e74:	10101010 			@ <UNDEFINED> instruction: 10101010
 8004e78:	42421010 			@ <UNDEFINED> instruction: 42421010
 8004e7c:	42424242 			@ <UNDEFINED> instruction: 42424242
 8004e80:	02020202 			@ <UNDEFINED> instruction: 02020202
 8004e84:	02020202 			@ <UNDEFINED> instruction: 02020202
 8004e88:	02020202 			@ <UNDEFINED> instruction: 02020202
 8004e8c:	02020202 			@ <UNDEFINED> instruction: 02020202
 8004e90:	02020202 			@ <UNDEFINED> instruction: 02020202
 8004e94:	10101010 			@ <UNDEFINED> instruction: 10101010
 8004e98:	00000020 			@ <UNDEFINED> instruction: 00000020
	...

Disassembly of section .data:

20000000 <SystemCoreClock>:
20000000:	00f42400 			@ <UNDEFINED> instruction: 00f42400

20000004 <_impure_ptr>:
20000004:	20000008 			@ <UNDEFINED> instruction: 20000008

20000008 <_impure_data>:
20000008:	00000000 			@ <UNDEFINED> instruction: 00000000
2000000c:	200001e0 			@ <UNDEFINED> instruction: 200001e0
20000010:	20000248 			@ <UNDEFINED> instruction: 20000248
20000014:	200002b0 			@ <UNDEFINED> instruction: 200002b0
	...

20000054 <__sglue>:
20000054:	00000000 			@ <UNDEFINED> instruction: 00000000
20000058:	00000003 			@ <UNDEFINED> instruction: 00000003
2000005c:	200001e0 			@ <UNDEFINED> instruction: 200001e0

20000060 <__global_locale>:
20000060:	00000043 			@ <UNDEFINED> instruction: 00000043
	...
20000080:	00000043 			@ <UNDEFINED> instruction: 00000043
	...
200000a0:	00000043 			@ <UNDEFINED> instruction: 00000043
	...
200000c0:	00000043 			@ <UNDEFINED> instruction: 00000043
	...
200000e0:	00000043 			@ <UNDEFINED> instruction: 00000043
	...
20000100:	00000043 			@ <UNDEFINED> instruction: 00000043
	...
20000120:	00000043 			@ <UNDEFINED> instruction: 00000043
	...
20000140:	08004935 			@ <UNDEFINED> instruction: 08004935
20000144:	080048a5 			@ <UNDEFINED> instruction: 080048a5
20000148:	00000000 			@ <UNDEFINED> instruction: 00000000
2000014c:	08004e18 			@ <UNDEFINED> instruction: 08004e18
20000150:	08004caf 			@ <UNDEFINED> instruction: 08004caf
20000154:	08004cec 			@ <UNDEFINED> instruction: 08004cec
20000158:	08004cec 			@ <UNDEFINED> instruction: 08004cec
2000015c:	08004cec 			@ <UNDEFINED> instruction: 08004cec
20000160:	08004cec 			@ <UNDEFINED> instruction: 08004cec
20000164:	08004cec 			@ <UNDEFINED> instruction: 08004cec
20000168:	08004cec 			@ <UNDEFINED> instruction: 08004cec
2000016c:	08004cec 			@ <UNDEFINED> instruction: 08004cec
20000170:	08004cec 			@ <UNDEFINED> instruction: 08004cec
20000174:	08004cec 			@ <UNDEFINED> instruction: 08004cec
20000178:	ffffffff 			@ <UNDEFINED> instruction: ffffffff
2000017c:	ffffffff 			@ <UNDEFINED> instruction: ffffffff
20000180:	ffffffff 			@ <UNDEFINED> instruction: ffffffff
20000184:	0000ffff 	strdeq	pc, [r0], -pc	@ <UNPREDICTABLE>
20000188:	53410001 	movtpl	r0, #4097	@ 0x1001
2000018c:	00494943 			@ <UNDEFINED> instruction: 00494943
	...
200001a8:	53410000 	movtpl	r0, #4096	@ 0x1000
200001ac:	00494943 			@ <UNDEFINED> instruction: 00494943
	...

Disassembly of section .debug_info:

00000000 <.debug_info>:
       0:	000002b7 			@ <UNDEFINED> instruction: 000002b7
       4:	04010005 			@ <UNDEFINED> instruction: 04010005
       8:	00000000 			@ <UNDEFINED> instruction: 00000000
       c:	0001cf0a 			@ <UNDEFINED> instruction: 0001cf0a
      10:	008c0c00 			@ <UNDEFINED> instruction: 008c0c00
      14:	00f70000 			@ <UNDEFINED> instruction: 00f70000
      18:	00700000 			@ <UNDEFINED> instruction: 00700000
      1c:	00600800 			@ <UNDEFINED> instruction: 00600800
      20:	00000000 			@ <UNDEFINED> instruction: 00000000
      24:	01020000 			@ <UNDEFINED> instruction: 01020000
      28:	00009f06 			@ <UNDEFINED> instruction: 00009f06
      2c:	08010200 			@ <UNDEFINED> instruction: 08010200
      30:	0000009d 			@ <UNDEFINED> instruction: 0000009d
      34:	a5050202 			@ <UNDEFINED> instruction: a5050202
      38:	02000001 			@ <UNDEFINED> instruction: 02000001
      3c:	028e0702 			@ <UNDEFINED> instruction: 028e0702
      40:	04020000 			@ <UNDEFINED> instruction: 04020000
      44:	00000505 			@ <UNDEFINED> instruction: 00000505
      48:	00e40400 			@ <UNDEFINED> instruction: 00e40400
      4c:	4f020000 			@ <UNDEFINED> instruction: 4f020000
      50:	00005519 			@ <UNDEFINED> instruction: 00005519
      54:	07040200 			@ <UNDEFINED> instruction: 07040200
      58:	00000161 			@ <UNDEFINED> instruction: 00000161
      5c:	00050802 			@ <UNDEFINED> instruction: 00050802
      60:	02000000 			@ <UNDEFINED> instruction: 02000000
      64:	015c0708 			@ <UNDEFINED> instruction: 015c0708
      68:	040b0000 			@ <UNDEFINED> instruction: 040b0000
      6c:	746e6905 			@ <UNDEFINED> instruction: 746e6905
      70:	07040200 			@ <UNDEFINED> instruction: 07040200
      74:	00000166 			@ <UNDEFINED> instruction: 00000166
      78:	0000e604 			@ <UNDEFINED> instruction: 0000e604
      7c:	14300300 			@ <UNDEFINED> instruction: 14300300
      80:	00000049 			@ <UNDEFINED> instruction: 00000049
      84:	0000780c 			@ <UNDEFINED> instruction: 0000780c
      88:	00780500 			@ <UNDEFINED> instruction: 00780500
      8c:	00990000 			@ <UNDEFINED> instruction: 00990000
      90:	71060000 			@ <UNDEFINED> instruction: 71060000
      94:	00000000 			@ <UNDEFINED> instruction: 00000000
      98:	00780500 			@ <UNDEFINED> instruction: 00780500
      9c:	00a90000 			@ <UNDEFINED> instruction: 00a90000
      a0:	71060000 			@ <UNDEFINED> instruction: 71060000
      a4:	01000000 			@ <UNDEFINED> instruction: 01000000
      a8:	041c0d00 			@ <UNDEFINED> instruction: 041c0d00
      ac:	010109fa 	strdeq	r0, [r1, -sl]
      b0:	41070000 			@ <UNDEFINED> instruction: 41070000
      b4:	fc005243 	stc2	2, cr5, [r0], {67}	@ 0x43
      b8:	00000084 			@ <UNDEFINED> instruction: 00000084
      bc:	00cf0800 			@ <UNDEFINED> instruction: 00cf0800
      c0:	84fd0000 			@ <UNDEFINED> instruction: 84fd0000
      c4:	04000000 			@ <UNDEFINED> instruction: 04000000
      c8:	0000cc08 			@ <UNDEFINED> instruction: 0000cc08
      cc:	0084fe00 			@ <UNDEFINED> instruction: 0084fe00
      d0:	07080000 			@ <UNDEFINED> instruction: 07080000
      d4:	ff005253 			@ <UNDEFINED> instruction: ff005253
      d8:	00000084 			@ <UNDEFINED> instruction: 00000084
      dc:	5243030c 			@ <UNDEFINED> instruction: 5243030c
      e0:	84010000 			@ <UNDEFINED> instruction: 84010000
      e4:	10000000 			@ <UNDEFINED> instruction: 10000000
      e8:	00007e01 			@ <UNDEFINED> instruction: 00007e01
      ec:	84010100 			@ <UNDEFINED> instruction: 84010100
      f0:	14000000 			@ <UNDEFINED> instruction: 14000000
      f4:	0000ab01 			@ <UNDEFINED> instruction: 0000ab01
      f8:	84010200 			@ <UNDEFINED> instruction: 84010200
      fc:	18000000 			@ <UNDEFINED> instruction: 18000000
     100:	00210900 			@ <UNDEFINED> instruction: 00210900
     104:	01030000 			@ <UNDEFINED> instruction: 01030000
     108:	000000a9 			@ <UNDEFINED> instruction: 000000a9
     10c:	5004900e 			@ <UNDEFINED> instruction: 5004900e
     110:	02960901 			@ <UNDEFINED> instruction: 02960901
     114:	43030000 	movwmi	r0, #12288	@ 0x3000
     118:	01520052 			@ <UNDEFINED> instruction: 01520052
     11c:	00000084 			@ <UNDEFINED> instruction: 00000084
     120:	00c40100 			@ <UNDEFINED> instruction: 00c40100
     124:	01530000 			@ <UNDEFINED> instruction: 01530000
     128:	00000084 			@ <UNDEFINED> instruction: 00000084
     12c:	00bf0104 			@ <UNDEFINED> instruction: 00bf0104
     130:	01540000 			@ <UNDEFINED> instruction: 01540000
     134:	00000084 			@ <UNDEFINED> instruction: 00000084
     138:	49430308 			@ <UNDEFINED> instruction: 49430308
     13c:	01550052 			@ <UNDEFINED> instruction: 01550052
     140:	00000084 			@ <UNDEFINED> instruction: 00000084
     144:	0187010c 			@ <UNDEFINED> instruction: 0187010c
     148:	01560000 			@ <UNDEFINED> instruction: 01560000
     14c:	00000084 			@ <UNDEFINED> instruction: 00000084
     150:	02850110 			@ <UNDEFINED> instruction: 02850110
     154:	01570000 			@ <UNDEFINED> instruction: 01570000
     158:	00000084 			@ <UNDEFINED> instruction: 00000084
     15c:	00390114 			@ <UNDEFINED> instruction: 00390114
     160:	01580000 			@ <UNDEFINED> instruction: 01580000
     164:	00000084 			@ <UNDEFINED> instruction: 00000084
     168:	00420118 			@ <UNDEFINED> instruction: 00420118
     16c:	01590000 			@ <UNDEFINED> instruction: 01590000
     170:	00000078 			@ <UNDEFINED> instruction: 00000078
     174:	0094011c 			@ <UNDEFINED> instruction: 0094011c
     178:	015a0000 			@ <UNDEFINED> instruction: 015a0000
     17c:	00000084 			@ <UNDEFINED> instruction: 00000084
     180:	01480120 			@ <UNDEFINED> instruction: 01480120
     184:	015b0000 			@ <UNDEFINED> instruction: 015b0000
     188:	00000084 			@ <UNDEFINED> instruction: 00000084
     18c:	004c0124 			@ <UNDEFINED> instruction: 004c0124
     190:	015c0000 			@ <UNDEFINED> instruction: 015c0000
     194:	00000099 			@ <UNDEFINED> instruction: 00000099
     198:	00130128 			@ <UNDEFINED> instruction: 00130128
     19c:	015d0000 			@ <UNDEFINED> instruction: 015d0000
     1a0:	00000084 			@ <UNDEFINED> instruction: 00000084
     1a4:	00840130 			@ <UNDEFINED> instruction: 00840130
     1a8:	015e0000 			@ <UNDEFINED> instruction: 015e0000
     1ac:	00000084 			@ <UNDEFINED> instruction: 00000084
     1b0:	00d40134 			@ <UNDEFINED> instruction: 00d40134
     1b4:	015f0000 			@ <UNDEFINED> instruction: 015f0000
     1b8:	00000084 			@ <UNDEFINED> instruction: 00000084
     1bc:	00560138 			@ <UNDEFINED> instruction: 00560138
     1c0:	01600000 			@ <UNDEFINED> instruction: 01600000
     1c4:	00000078 			@ <UNDEFINED> instruction: 00000078
     1c8:	00ef013c 			@ <UNDEFINED> instruction: 00ef013c
     1cc:	01610000 			@ <UNDEFINED> instruction: 01610000
     1d0:	00000084 			@ <UNDEFINED> instruction: 00000084
     1d4:	00dc0140 			@ <UNDEFINED> instruction: 00dc0140
     1d8:	01620000 			@ <UNDEFINED> instruction: 01620000
     1dc:	00000084 			@ <UNDEFINED> instruction: 00000084
     1e0:	00600144 			@ <UNDEFINED> instruction: 00600144
     1e4:	01630000 			@ <UNDEFINED> instruction: 01630000
     1e8:	00000099 			@ <UNDEFINED> instruction: 00000099
     1ec:	002f0148 			@ <UNDEFINED> instruction: 002f0148
     1f0:	01640000 			@ <UNDEFINED> instruction: 01640000
     1f4:	00000084 			@ <UNDEFINED> instruction: 00000084
     1f8:	00b20150 			@ <UNDEFINED> instruction: 00b20150
     1fc:	01650000 			@ <UNDEFINED> instruction: 01650000
     200:	00000084 			@ <UNDEFINED> instruction: 00000084
     204:	01900154 			@ <UNDEFINED> instruction: 01900154
     208:	01660000 			@ <UNDEFINED> instruction: 01660000
     20c:	00000084 			@ <UNDEFINED> instruction: 00000084
     210:	006a0158 			@ <UNDEFINED> instruction: 006a0158
     214:	01670000 			@ <UNDEFINED> instruction: 01670000
     218:	00000078 			@ <UNDEFINED> instruction: 00000078
     21c:	0173015c 			@ <UNDEFINED> instruction: 0173015c
     220:	01680000 			@ <UNDEFINED> instruction: 01680000
     224:	00000084 			@ <UNDEFINED> instruction: 00000084
     228:	01b90160 			@ <UNDEFINED> instruction: 01b90160
     22c:	01690000 			@ <UNDEFINED> instruction: 01690000
     230:	00000084 			@ <UNDEFINED> instruction: 00000084
     234:	00740164 			@ <UNDEFINED> instruction: 00740164
     238:	016a0000 			@ <UNDEFINED> instruction: 016a0000
     23c:	00000099 			@ <UNDEFINED> instruction: 00000099
     240:	000e0168 			@ <UNDEFINED> instruction: 000e0168
     244:	016b0000 			@ <UNDEFINED> instruction: 016b0000
     248:	00000084 			@ <UNDEFINED> instruction: 00000084
     24c:	53430370 	movtpl	r0, #13168	@ 0x3370
     250:	016c0052 	qdsubeq	r0, r2, ip
     254:	00000084 			@ <UNDEFINED> instruction: 00000084
     258:	01af0174 			@ <UNDEFINED> instruction: 01af0174
     25c:	016d0000 			@ <UNDEFINED> instruction: 016d0000
     260:	00000099 			@ <UNDEFINED> instruction: 00000099
     264:	001b0178 			@ <UNDEFINED> instruction: 001b0178
     268:	016e0000 			@ <UNDEFINED> instruction: 016e0000
     26c:	00000084 			@ <UNDEFINED> instruction: 00000084
     270:	01510180 			@ <UNDEFINED> instruction: 01510180
     274:	016f0000 			@ <UNDEFINED> instruction: 016f0000
     278:	00000084 			@ <UNDEFINED> instruction: 00000084
     27c:	017d0184 			@ <UNDEFINED> instruction: 017d0184
     280:	01700000 			@ <UNDEFINED> instruction: 01700000
     284:	00000089 			@ <UNDEFINED> instruction: 00000089
     288:	00bc0188 			@ <UNDEFINED> instruction: 00bc0188
     28c:	01710000 			@ <UNDEFINED> instruction: 01710000
     290:	00000084 			@ <UNDEFINED> instruction: 00000084
     294:	c309008c 	movwgt	r0, #37004	@ 0x908c
     298:	72000001 			@ <UNDEFINED> instruction: 72000001
     29c:	00010c01 			@ <UNDEFINED> instruction: 00010c01
     2a0:	08010200 			@ <UNDEFINED> instruction: 08010200
     2a4:	000000a6 			@ <UNDEFINED> instruction: 000000a6
     2a8:	00019a0f 			@ <UNDEFINED> instruction: 00019a0f
     2ac:	06030100 			@ <UNDEFINED> instruction: 06030100
     2b0:	08000070 			@ <UNDEFINED> instruction: 08000070
     2b4:	00000060 			@ <UNDEFINED> instruction: 00000060
     2b8:	1b009c01 			@ <UNDEFINED> instruction: 1b009c01
     2bc:	05000003 			@ <UNDEFINED> instruction: 05000003
     2c0:	e6040100 			@ <UNDEFINED> instruction: e6040100
     2c4:	0b000000 			@ <UNDEFINED> instruction: 0b000000
     2c8:	000001cf 			@ <UNDEFINED> instruction: 000001cf
     2cc:	0002f60c 			@ <UNDEFINED> instruction: 0002f60c
     2d0:	0000f700 			@ <UNDEFINED> instruction: 0000f700
     2d4:	0000d000 			@ <UNDEFINED> instruction: 0000d000
     2d8:	00005408 			@ <UNDEFINED> instruction: 00005408
     2dc:	0001b600 			@ <UNDEFINED> instruction: 0001b600
     2e0:	06010200 			@ <UNDEFINED> instruction: 06010200
     2e4:	0000009f 			@ <UNDEFINED> instruction: 0000009f
     2e8:	9d080102 			@ <UNDEFINED> instruction: 9d080102
     2ec:	02000000 			@ <UNDEFINED> instruction: 02000000
     2f0:	01a50502 			@ <UNDEFINED> instruction: 01a50502
     2f4:	02020000 			@ <UNDEFINED> instruction: 02020000
     2f8:	00028e07 			@ <UNDEFINED> instruction: 00028e07
     2fc:	05040200 			@ <UNDEFINED> instruction: 05040200
     300:	00000005 			@ <UNDEFINED> instruction: 00000005
     304:	0000e407 			@ <UNDEFINED> instruction: 0000e407
     308:	194f0200 			@ <UNDEFINED> instruction: 194f0200
     30c:	00000055 			@ <UNDEFINED> instruction: 00000055
     310:	61070402 			@ <UNDEFINED> instruction: 61070402
     314:	02000001 			@ <UNDEFINED> instruction: 02000001
     318:	00000508 			@ <UNDEFINED> instruction: 00000508
     31c:	08020000 			@ <UNDEFINED> instruction: 08020000
     320:	00015c07 			@ <UNDEFINED> instruction: 00015c07
     324:	05040c00 			@ <UNDEFINED> instruction: 05040c00
     328:	00746e69 			@ <UNDEFINED> instruction: 00746e69
     32c:	66070402 			@ <UNDEFINED> instruction: 66070402
     330:	07000001 			@ <UNDEFINED> instruction: 07000001
     334:	000000e6 			@ <UNDEFINED> instruction: 000000e6
     338:	49143003 			@ <UNDEFINED> instruction: 49143003
     33c:	08000000 			@ <UNDEFINED> instruction: 08000000
     340:	00000078 			@ <UNDEFINED> instruction: 00000078
     344:	00007804 			@ <UNDEFINED> instruction: 00007804
     348:	00009900 			@ <UNDEFINED> instruction: 00009900
     34c:	00710500 			@ <UNDEFINED> instruction: 00710500
     350:	00000000 			@ <UNDEFINED> instruction: 00000000
     354:	00007804 			@ <UNDEFINED> instruction: 00007804
     358:	0000a900 			@ <UNDEFINED> instruction: 0000a900
     35c:	00710500 			@ <UNDEFINED> instruction: 00710500
     360:	00010000 			@ <UNDEFINED> instruction: 00010000
     364:	01092809 			@ <UNDEFINED> instruction: 01092809
     368:	0000011e 			@ <UNDEFINED> instruction: 0000011e
     36c:	0002a901 			@ <UNDEFINED> instruction: 0002a901
     370:	84010b00 			@ <UNDEFINED> instruction: 84010b00
     374:	00000000 			@ <UNDEFINED> instruction: 00000000
     378:	0002da01 			@ <UNDEFINED> instruction: 0002da01
     37c:	84010c00 			@ <UNDEFINED> instruction: 84010c00
     380:	04000000 			@ <UNDEFINED> instruction: 04000000
     384:	0002a101 			@ <UNDEFINED> instruction: 0002a101
     388:	84010d00 			@ <UNDEFINED> instruction: 84010d00
     38c:	08000000 			@ <UNDEFINED> instruction: 08000000
     390:	00030a01 			@ <UNDEFINED> instruction: 00030a01
     394:	84010e00 			@ <UNDEFINED> instruction: 84010e00
     398:	0c000000 			@ <UNDEFINED> instruction: 0c000000
     39c:	52444903 			@ <UNDEFINED> instruction: 52444903
     3a0:	84010f00 			@ <UNDEFINED> instruction: 84010f00
     3a4:	10000000 			@ <UNDEFINED> instruction: 10000000
     3a8:	52444f03 			@ <UNDEFINED> instruction: 52444f03
     3ac:	84011000 			@ <UNDEFINED> instruction: 84011000
     3b0:	14000000 			@ <UNDEFINED> instruction: 14000000
     3b4:	0002c501 			@ <UNDEFINED> instruction: 0002c501
     3b8:	84011100 			@ <UNDEFINED> instruction: 84011100
     3bc:	18000000 			@ <UNDEFINED> instruction: 18000000
     3c0:	00031d01 			@ <UNDEFINED> instruction: 00031d01
     3c4:	84011200 			@ <UNDEFINED> instruction: 84011200
     3c8:	1c000000 			@ <UNDEFINED> instruction: 1c000000
     3cc:	52464103 			@ <UNDEFINED> instruction: 52464103
     3d0:	2e011300 			@ <UNDEFINED> instruction: 2e011300
     3d4:	20000001 			@ <UNDEFINED> instruction: 20000001
     3d8:	00840400 			@ <UNDEFINED> instruction: 00840400
     3dc:	012e0000 			@ <UNDEFINED> instruction: 012e0000
     3e0:	71050000 			@ <UNDEFINED> instruction: 71050000
     3e4:	01000000 			@ <UNDEFINED> instruction: 01000000
     3e8:	011e0800 			@ <UNDEFINED> instruction: 011e0800
     3ec:	100a0000 			@ <UNDEFINED> instruction: 100a0000
     3f0:	14000003 			@ <UNDEFINED> instruction: 14000003
     3f4:	0000a901 			@ <UNDEFINED> instruction: 0000a901
     3f8:	50900900 			@ <UNDEFINED> instruction: 50900900
     3fc:	0002c601 			@ <UNDEFINED> instruction: 0002c601
     400:	52430300 			@ <UNDEFINED> instruction: 52430300
     404:	84015200 			@ <UNDEFINED> instruction: 84015200
     408:	00000000 			@ <UNDEFINED> instruction: 00000000
     40c:	0000c401 			@ <UNDEFINED> instruction: 0000c401
     410:	84015300 			@ <UNDEFINED> instruction: 84015300
     414:	04000000 			@ <UNDEFINED> instruction: 04000000
     418:	0000bf01 			@ <UNDEFINED> instruction: 0000bf01
     41c:	84015400 			@ <UNDEFINED> instruction: 84015400
     420:	08000000 			@ <UNDEFINED> instruction: 08000000
     424:	52494303 			@ <UNDEFINED> instruction: 52494303
     428:	84015500 			@ <UNDEFINED> instruction: 84015500
     42c:	0c000000 			@ <UNDEFINED> instruction: 0c000000
     430:	00018701 			@ <UNDEFINED> instruction: 00018701
     434:	84015600 			@ <UNDEFINED> instruction: 84015600
     438:	10000000 			@ <UNDEFINED> instruction: 10000000
     43c:	00028501 			@ <UNDEFINED> instruction: 00028501
     440:	84015700 			@ <UNDEFINED> instruction: 84015700
     444:	14000000 			@ <UNDEFINED> instruction: 14000000
     448:	00003901 			@ <UNDEFINED> instruction: 00003901
     44c:	84015800 			@ <UNDEFINED> instruction: 84015800
     450:	18000000 			@ <UNDEFINED> instruction: 18000000
     454:	00004201 			@ <UNDEFINED> instruction: 00004201
     458:	78015900 			@ <UNDEFINED> instruction: 78015900
     45c:	1c000000 			@ <UNDEFINED> instruction: 1c000000
     460:	00009401 			@ <UNDEFINED> instruction: 00009401
     464:	84015a00 			@ <UNDEFINED> instruction: 84015a00
     468:	20000000 			@ <UNDEFINED> instruction: 20000000
     46c:	00014801 			@ <UNDEFINED> instruction: 00014801
     470:	84015b00 			@ <UNDEFINED> instruction: 84015b00
     474:	24000000 			@ <UNDEFINED> instruction: 24000000
     478:	00004c01 			@ <UNDEFINED> instruction: 00004c01
     47c:	99015c00 			@ <UNDEFINED> instruction: 99015c00
     480:	28000000 			@ <UNDEFINED> instruction: 28000000
     484:	00001301 			@ <UNDEFINED> instruction: 00001301
     488:	84015d00 			@ <UNDEFINED> instruction: 84015d00
     48c:	30000000 			@ <UNDEFINED> instruction: 30000000
     490:	00008401 			@ <UNDEFINED> instruction: 00008401
     494:	84015e00 			@ <UNDEFINED> instruction: 84015e00
     498:	34000000 			@ <UNDEFINED> instruction: 34000000
     49c:	0000d401 			@ <UNDEFINED> instruction: 0000d401
     4a0:	84015f00 			@ <UNDEFINED> instruction: 84015f00
     4a4:	38000000 			@ <UNDEFINED> instruction: 38000000
     4a8:	00005601 			@ <UNDEFINED> instruction: 00005601
     4ac:	78016000 			@ <UNDEFINED> instruction: 78016000
     4b0:	3c000000 			@ <UNDEFINED> instruction: 3c000000
     4b4:	0000ef01 			@ <UNDEFINED> instruction: 0000ef01
     4b8:	84016100 			@ <UNDEFINED> instruction: 84016100
     4bc:	40000000 			@ <UNDEFINED> instruction: 40000000
     4c0:	0000dc01 			@ <UNDEFINED> instruction: 0000dc01
     4c4:	84016200 			@ <UNDEFINED> instruction: 84016200
     4c8:	44000000 			@ <UNDEFINED> instruction: 44000000
     4cc:	00006001 			@ <UNDEFINED> instruction: 00006001
     4d0:	99016300 			@ <UNDEFINED> instruction: 99016300
     4d4:	48000000 			@ <UNDEFINED> instruction: 48000000
     4d8:	00002f01 			@ <UNDEFINED> instruction: 00002f01
     4dc:	84016400 			@ <UNDEFINED> instruction: 84016400
     4e0:	50000000 			@ <UNDEFINED> instruction: 50000000
     4e4:	0000b201 			@ <UNDEFINED> instruction: 0000b201
     4e8:	84016500 			@ <UNDEFINED> instruction: 84016500
     4ec:	54000000 			@ <UNDEFINED> instruction: 54000000
     4f0:	00019001 			@ <UNDEFINED> instruction: 00019001
     4f4:	84016600 			@ <UNDEFINED> instruction: 84016600
     4f8:	58000000 			@ <UNDEFINED> instruction: 58000000
     4fc:	00006a01 			@ <UNDEFINED> instruction: 00006a01
     500:	78016700 			@ <UNDEFINED> instruction: 78016700
     504:	5c000000 			@ <UNDEFINED> instruction: 5c000000
     508:	00017301 			@ <UNDEFINED> instruction: 00017301
     50c:	84016800 			@ <UNDEFINED> instruction: 84016800
     510:	60000000 			@ <UNDEFINED> instruction: 60000000
     514:	0001b901 			@ <UNDEFINED> instruction: 0001b901
     518:	84016900 			@ <UNDEFINED> instruction: 84016900
     51c:	64000000 			@ <UNDEFINED> instruction: 64000000
     520:	00007401 			@ <UNDEFINED> instruction: 00007401
     524:	99016a00 			@ <UNDEFINED> instruction: 99016a00
     528:	68000000 			@ <UNDEFINED> instruction: 68000000
     52c:	00000e01 			@ <UNDEFINED> instruction: 00000e01
     530:	84016b00 			@ <UNDEFINED> instruction: 84016b00
     534:	70000000 			@ <UNDEFINED> instruction: 70000000
     538:	52534303 			@ <UNDEFINED> instruction: 52534303
     53c:	84016c00 			@ <UNDEFINED> instruction: 84016c00
     540:	74000000 			@ <UNDEFINED> instruction: 74000000
     544:	0001af01 			@ <UNDEFINED> instruction: 0001af01
     548:	99016d00 			@ <UNDEFINED> instruction: 99016d00
     54c:	78000000 			@ <UNDEFINED> instruction: 78000000
     550:	00001b01 			@ <UNDEFINED> instruction: 00001b01
     554:	84016e00 			@ <UNDEFINED> instruction: 84016e00
     558:	80000000 			@ <UNDEFINED> instruction: 80000000
     55c:	00015101 			@ <UNDEFINED> instruction: 00015101
     560:	84016f00 			@ <UNDEFINED> instruction: 84016f00
     564:	84000000 			@ <UNDEFINED> instruction: 84000000
     568:	00017d01 			@ <UNDEFINED> instruction: 00017d01
     56c:	89017000 			@ <UNDEFINED> instruction: 89017000
     570:	88000000 			@ <UNDEFINED> instruction: 88000000
     574:	0000bc01 			@ <UNDEFINED> instruction: 0000bc01
     578:	84017100 			@ <UNDEFINED> instruction: 84017100
     57c:	8c000000 			@ <UNDEFINED> instruction: 8c000000
     580:	01c30a00 			@ <UNDEFINED> instruction: 01c30a00
     584:	01720000 			@ <UNDEFINED> instruction: 01720000
     588:	0000013e 			@ <UNDEFINED> instruction: 0000013e
     58c:	a6080102 			@ <UNDEFINED> instruction: a6080102
     590:	06000000 			@ <UNDEFINED> instruction: 06000000
     594:	000002af 			@ <UNDEFINED> instruction: 000002af
     598:	00011413 			@ <UNDEFINED> instruction: 00011413
     59c:	00001008 			@ <UNDEFINED> instruction: 00001008
     5a0:	069c0100 			@ <UNDEFINED> instruction: 069c0100
     5a4:	000002e1 			@ <UNDEFINED> instruction: 000002e1
     5a8:	0001040e 			@ <UNDEFINED> instruction: 0001040e
     5ac:	00001008 			@ <UNDEFINED> instruction: 00001008
     5b0:	0d9c0100 			@ <UNDEFINED> instruction: 0d9c0100
     5b4:	000002ca 			@ <UNDEFINED> instruction: 000002ca
     5b8:	6a050901 			@ <UNDEFINED> instruction: 6a050901
     5bc:	f0000000 			@ <UNDEFINED> instruction: f0000000
     5c0:	14080000 			@ <UNDEFINED> instruction: 14080000
     5c4:	01000000 			@ <UNDEFINED> instruction: 01000000
     5c8:	02fc069c 			@ <UNDEFINED> instruction: 02fc069c
     5cc:	d0030000 			@ <UNDEFINED> instruction: d0030000
     5d0:	20080000 			@ <UNDEFINED> instruction: 20080000
     5d4:	01000000 			@ <UNDEFINED> instruction: 01000000
     5d8:	0305009c 	movweq	r0, #20636	@ 0x509c
     5dc:	00050000 			@ <UNDEFINED> instruction: 00050000
     5e0:	01b60401 			@ <UNDEFINED> instruction: 01b60401
     5e4:	cf0b0000 			@ <UNDEFINED> instruction: cf0b0000
     5e8:	0c000001 			@ <UNDEFINED> instruction: 0c000001
     5ec:	00000322 			@ <UNDEFINED> instruction: 00000322
     5f0:	000000f7 	strdeq	r0, [r0], -r7
     5f4:	08000124 			@ <UNDEFINED> instruction: 08000124
     5f8:	00000054 			@ <UNDEFINED> instruction: 00000054
     5fc:	00000333 			@ <UNDEFINED> instruction: 00000333
     600:	9f060102 			@ <UNDEFINED> instruction: 9f060102
     604:	02000000 			@ <UNDEFINED> instruction: 02000000
     608:	009d0801 			@ <UNDEFINED> instruction: 009d0801
     60c:	02020000 			@ <UNDEFINED> instruction: 02020000
     610:	0001a505 			@ <UNDEFINED> instruction: 0001a505
     614:	07020200 			@ <UNDEFINED> instruction: 07020200
     618:	0000028e 			@ <UNDEFINED> instruction: 0000028e
     61c:	05050402 			@ <UNDEFINED> instruction: 05050402
     620:	07000000 			@ <UNDEFINED> instruction: 07000000
     624:	000000e4 			@ <UNDEFINED> instruction: 000000e4
     628:	55194f02 			@ <UNDEFINED> instruction: 55194f02
     62c:	02000000 			@ <UNDEFINED> instruction: 02000000
     630:	01610704 			@ <UNDEFINED> instruction: 01610704
     634:	08020000 			@ <UNDEFINED> instruction: 08020000
     638:	00000005 			@ <UNDEFINED> instruction: 00000005
     63c:	07080200 			@ <UNDEFINED> instruction: 07080200
     640:	0000015c 			@ <UNDEFINED> instruction: 0000015c
     644:	6905040c 			@ <UNDEFINED> instruction: 6905040c
     648:	0200746e 			@ <UNDEFINED> instruction: 0200746e
     64c:	01660704 			@ <UNDEFINED> instruction: 01660704
     650:	e6070000 			@ <UNDEFINED> instruction: e6070000
     654:	03000000 	movweq	r0, #0
     658:	00491430 			@ <UNDEFINED> instruction: 00491430
     65c:	78080000 			@ <UNDEFINED> instruction: 78080000
     660:	04000000 			@ <UNDEFINED> instruction: 04000000
     664:	00000078 			@ <UNDEFINED> instruction: 00000078
     668:	00000099 			@ <UNDEFINED> instruction: 00000099
     66c:	00007105 			@ <UNDEFINED> instruction: 00007105
     670:	04000000 			@ <UNDEFINED> instruction: 04000000
     674:	00000078 			@ <UNDEFINED> instruction: 00000078
     678:	000000a9 			@ <UNDEFINED> instruction: 000000a9
     67c:	00007105 			@ <UNDEFINED> instruction: 00007105
     680:	09000100 			@ <UNDEFINED> instruction: 09000100
     684:	1e010928 			@ <UNDEFINED> instruction: 1e010928
     688:	01000001 			@ <UNDEFINED> instruction: 01000001
     68c:	000002a9 			@ <UNDEFINED> instruction: 000002a9
     690:	0084010b 			@ <UNDEFINED> instruction: 0084010b
     694:	01000000 			@ <UNDEFINED> instruction: 01000000
     698:	000002da 	ldrdeq	r0, [r0], -sl
     69c:	0084010c 			@ <UNDEFINED> instruction: 0084010c
     6a0:	01040000 			@ <UNDEFINED> instruction: 01040000
     6a4:	000002a1 			@ <UNDEFINED> instruction: 000002a1
     6a8:	0084010d 			@ <UNDEFINED> instruction: 0084010d
     6ac:	01080000 			@ <UNDEFINED> instruction: 01080000
     6b0:	0000030a 			@ <UNDEFINED> instruction: 0000030a
     6b4:	0084010e 			@ <UNDEFINED> instruction: 0084010e
     6b8:	030c0000 	movweq	r0, #49152	@ 0xc000
     6bc:	00524449 			@ <UNDEFINED> instruction: 00524449
     6c0:	0084010f 			@ <UNDEFINED> instruction: 0084010f
     6c4:	03100000 			@ <UNDEFINED> instruction: 03100000
     6c8:	0052444f 			@ <UNDEFINED> instruction: 0052444f
     6cc:	00840110 			@ <UNDEFINED> instruction: 00840110
     6d0:	01140000 			@ <UNDEFINED> instruction: 01140000
     6d4:	000002c5 			@ <UNDEFINED> instruction: 000002c5
     6d8:	00840111 			@ <UNDEFINED> instruction: 00840111
     6dc:	01180000 			@ <UNDEFINED> instruction: 01180000
     6e0:	0000031d 			@ <UNDEFINED> instruction: 0000031d
     6e4:	00840112 			@ <UNDEFINED> instruction: 00840112
     6e8:	031c0000 			@ <UNDEFINED> instruction: 031c0000
     6ec:	00524641 			@ <UNDEFINED> instruction: 00524641
     6f0:	012e0113 			@ <UNDEFINED> instruction: 012e0113
     6f4:	00200000 			@ <UNDEFINED> instruction: 00200000
     6f8:	00008404 			@ <UNDEFINED> instruction: 00008404
     6fc:	00012e00 			@ <UNDEFINED> instruction: 00012e00
     700:	00710500 			@ <UNDEFINED> instruction: 00710500
     704:	00010000 			@ <UNDEFINED> instruction: 00010000
     708:	00011e08 			@ <UNDEFINED> instruction: 00011e08
     70c:	03100a00 			@ <UNDEFINED> instruction: 03100a00
     710:	01140000 			@ <UNDEFINED> instruction: 01140000
     714:	000000a9 			@ <UNDEFINED> instruction: 000000a9
     718:	01509009 			@ <UNDEFINED> instruction: 01509009
     71c:	000002c6 			@ <UNDEFINED> instruction: 000002c6
     720:	00524303 			@ <UNDEFINED> instruction: 00524303
     724:	00840152 			@ <UNDEFINED> instruction: 00840152
     728:	01000000 			@ <UNDEFINED> instruction: 01000000
     72c:	000000c4 			@ <UNDEFINED> instruction: 000000c4
     730:	00840153 			@ <UNDEFINED> instruction: 00840153
     734:	01040000 			@ <UNDEFINED> instruction: 01040000
     738:	000000bf 			@ <UNDEFINED> instruction: 000000bf
     73c:	00840154 			@ <UNDEFINED> instruction: 00840154
     740:	03080000 	movweq	r0, #32768	@ 0x8000
     744:	00524943 			@ <UNDEFINED> instruction: 00524943
     748:	00840155 			@ <UNDEFINED> instruction: 00840155
     74c:	010c0000 			@ <UNDEFINED> instruction: 010c0000
     750:	00000187 			@ <UNDEFINED> instruction: 00000187
     754:	00840156 			@ <UNDEFINED> instruction: 00840156
     758:	01100000 			@ <UNDEFINED> instruction: 01100000
     75c:	00000285 			@ <UNDEFINED> instruction: 00000285
     760:	00840157 			@ <UNDEFINED> instruction: 00840157
     764:	01140000 			@ <UNDEFINED> instruction: 01140000
     768:	00000039 			@ <UNDEFINED> instruction: 00000039
     76c:	00840158 			@ <UNDEFINED> instruction: 00840158
     770:	01180000 			@ <UNDEFINED> instruction: 01180000
     774:	00000042 			@ <UNDEFINED> instruction: 00000042
     778:	00780159 			@ <UNDEFINED> instruction: 00780159
     77c:	011c0000 			@ <UNDEFINED> instruction: 011c0000
     780:	00000094 			@ <UNDEFINED> instruction: 00000094
     784:	0084015a 			@ <UNDEFINED> instruction: 0084015a
     788:	01200000 			@ <UNDEFINED> instruction: 01200000
     78c:	00000148 			@ <UNDEFINED> instruction: 00000148
     790:	0084015b 			@ <UNDEFINED> instruction: 0084015b
     794:	01240000 			@ <UNDEFINED> instruction: 01240000
     798:	0000004c 			@ <UNDEFINED> instruction: 0000004c
     79c:	0099015c 			@ <UNDEFINED> instruction: 0099015c
     7a0:	01280000 			@ <UNDEFINED> instruction: 01280000
     7a4:	00000013 			@ <UNDEFINED> instruction: 00000013
     7a8:	0084015d 			@ <UNDEFINED> instruction: 0084015d
     7ac:	01300000 			@ <UNDEFINED> instruction: 01300000
     7b0:	00000084 			@ <UNDEFINED> instruction: 00000084
     7b4:	0084015e 			@ <UNDEFINED> instruction: 0084015e
     7b8:	01340000 			@ <UNDEFINED> instruction: 01340000
     7bc:	000000d4 	ldrdeq	r0, [r0], -r4
     7c0:	0084015f 			@ <UNDEFINED> instruction: 0084015f
     7c4:	01380000 			@ <UNDEFINED> instruction: 01380000
     7c8:	00000056 			@ <UNDEFINED> instruction: 00000056
     7cc:	00780160 			@ <UNDEFINED> instruction: 00780160
     7d0:	013c0000 			@ <UNDEFINED> instruction: 013c0000
     7d4:	000000ef 			@ <UNDEFINED> instruction: 000000ef
     7d8:	00840161 			@ <UNDEFINED> instruction: 00840161
     7dc:	01400000 			@ <UNDEFINED> instruction: 01400000
     7e0:	000000dc 	ldrdeq	r0, [r0], -ip
     7e4:	00840162 			@ <UNDEFINED> instruction: 00840162
     7e8:	01440000 			@ <UNDEFINED> instruction: 01440000
     7ec:	00000060 			@ <UNDEFINED> instruction: 00000060
     7f0:	00990163 			@ <UNDEFINED> instruction: 00990163
     7f4:	01480000 			@ <UNDEFINED> instruction: 01480000
     7f8:	0000002f 			@ <UNDEFINED> instruction: 0000002f
     7fc:	00840164 			@ <UNDEFINED> instruction: 00840164
     800:	01500000 			@ <UNDEFINED> instruction: 01500000
     804:	000000b2 			@ <UNDEFINED> instruction: 000000b2
     808:	00840165 			@ <UNDEFINED> instruction: 00840165
     80c:	01540000 			@ <UNDEFINED> instruction: 01540000
     810:	00000190 			@ <UNDEFINED> instruction: 00000190
     814:	00840166 			@ <UNDEFINED> instruction: 00840166
     818:	01580000 			@ <UNDEFINED> instruction: 01580000
     81c:	0000006a 			@ <UNDEFINED> instruction: 0000006a
     820:	00780167 			@ <UNDEFINED> instruction: 00780167
     824:	015c0000 			@ <UNDEFINED> instruction: 015c0000
     828:	00000173 			@ <UNDEFINED> instruction: 00000173
     82c:	00840168 			@ <UNDEFINED> instruction: 00840168
     830:	01600000 			@ <UNDEFINED> instruction: 01600000
     834:	000001b9 			@ <UNDEFINED> instruction: 000001b9
     838:	00840169 			@ <UNDEFINED> instruction: 00840169
     83c:	01640000 			@ <UNDEFINED> instruction: 01640000
     840:	00000074 			@ <UNDEFINED> instruction: 00000074
     844:	0099016a 			@ <UNDEFINED> instruction: 0099016a
     848:	01680000 			@ <UNDEFINED> instruction: 01680000
     84c:	0000000e 			@ <UNDEFINED> instruction: 0000000e
     850:	0084016b 			@ <UNDEFINED> instruction: 0084016b
     854:	03700000 			@ <UNDEFINED> instruction: 03700000
     858:	00525343 			@ <UNDEFINED> instruction: 00525343
     85c:	0084016c 			@ <UNDEFINED> instruction: 0084016c
     860:	01740000 			@ <UNDEFINED> instruction: 01740000
     864:	000001af 			@ <UNDEFINED> instruction: 000001af
     868:	0099016d 			@ <UNDEFINED> instruction: 0099016d
     86c:	01780000 			@ <UNDEFINED> instruction: 01780000
     870:	0000001b 			@ <UNDEFINED> instruction: 0000001b
     874:	0084016e 			@ <UNDEFINED> instruction: 0084016e
     878:	01800000 			@ <UNDEFINED> instruction: 01800000
     87c:	00000151 			@ <UNDEFINED> instruction: 00000151
     880:	0084016f 			@ <UNDEFINED> instruction: 0084016f
     884:	01840000 			@ <UNDEFINED> instruction: 01840000
     888:	0000017d 			@ <UNDEFINED> instruction: 0000017d
     88c:	00890170 			@ <UNDEFINED> instruction: 00890170
     890:	01880000 			@ <UNDEFINED> instruction: 01880000
     894:	000000bc 			@ <UNDEFINED> instruction: 000000bc
     898:	00840171 			@ <UNDEFINED> instruction: 00840171
     89c:	008c0000 			@ <UNDEFINED> instruction: 008c0000
     8a0:	0001c30a 			@ <UNDEFINED> instruction: 0001c30a
     8a4:	3e017200 			@ <UNDEFINED> instruction: 3e017200
     8a8:	02000001 			@ <UNDEFINED> instruction: 02000001
     8ac:	00a60801 			@ <UNDEFINED> instruction: 00a60801
     8b0:	28060000 			@ <UNDEFINED> instruction: 28060000
     8b4:	14000003 			@ <UNDEFINED> instruction: 14000003
     8b8:	08000168 			@ <UNDEFINED> instruction: 08000168
     8bc:	00000010 			@ <UNDEFINED> instruction: 00000010
     8c0:	30069c01 			@ <UNDEFINED> instruction: 30069c01
     8c4:	0e000003 			@ <UNDEFINED> instruction: 0e000003
     8c8:	08000158 			@ <UNDEFINED> instruction: 08000158
     8cc:	00000010 			@ <UNDEFINED> instruction: 00000010
     8d0:	37069c01 			@ <UNDEFINED> instruction: 37069c01
     8d4:	03000003 	movweq	r0, #3
     8d8:	08000124 			@ <UNDEFINED> instruction: 08000124
     8dc:	00000034 			@ <UNDEFINED> instruction: 00000034
     8e0:	9f009c01 			@ <UNDEFINED> instruction: 9f009c01
     8e4:	0500000b 			@ <UNDEFINED> instruction: 0500000b
     8e8:	6b040100 			@ <UNDEFINED> instruction: 6b040100
     8ec:	1d000002 			@ <UNDEFINED> instruction: 1d000002
     8f0:	000001cf 			@ <UNDEFINED> instruction: 000001cf
     8f4:	0003530c 			@ <UNDEFINED> instruction: 0003530c
     8f8:	0000f700 			@ <UNDEFINED> instruction: 0000f700
     8fc:	00001b00 			@ <UNDEFINED> instruction: 00001b00
     900:	00000000 			@ <UNDEFINED> instruction: 00000000
     904:	00046a00 			@ <UNDEFINED> instruction: 00046a00
     908:	04080800 			@ <UNDEFINED> instruction: 04080800
     90c:	000006f7 	strdeq	r0, [r0], -r7
     910:	66070408 			@ <UNDEFINED> instruction: 66070408
     914:	1e000001 			@ <UNDEFINED> instruction: 1e000001
     918:	6e690504 			@ <UNDEFINED> instruction: 6e690504
     91c:	01080074 			@ <UNDEFINED> instruction: 01080074
     920:	00009f06 			@ <UNDEFINED> instruction: 00009f06
     924:	063e0700 			@ <UNDEFINED> instruction: 063e0700
     928:	2b020000 			@ <UNDEFINED> instruction: 2b020000
     92c:	00004e18 			@ <UNDEFINED> instruction: 00004e18
     930:	08010800 			@ <UNDEFINED> instruction: 08010800
     934:	0000009d 			@ <UNDEFINED> instruction: 0000009d
     938:	a5050208 			@ <UNDEFINED> instruction: a5050208
     93c:	08000001 			@ <UNDEFINED> instruction: 08000001
     940:	028e0702 			@ <UNDEFINED> instruction: 028e0702
     944:	04080000 			@ <UNDEFINED> instruction: 04080000
     948:	00000505 			@ <UNDEFINED> instruction: 00000505
     94c:	00e40700 			@ <UNDEFINED> instruction: 00e40700
     950:	4f020000 			@ <UNDEFINED> instruction: 4f020000
     954:	00007619 			@ <UNDEFINED> instruction: 00007619
     958:	07040800 			@ <UNDEFINED> instruction: 07040800
     95c:	00000161 			@ <UNDEFINED> instruction: 00000161
     960:	00050808 			@ <UNDEFINED> instruction: 00050808
     964:	08000000 			@ <UNDEFINED> instruction: 08000000
     968:	015c0708 			@ <UNDEFINED> instruction: 015c0708
     96c:	340d0000 			@ <UNDEFINED> instruction: 340d0000
     970:	07000000 			@ <UNDEFINED> instruction: 07000000
     974:	00000640 			@ <UNDEFINED> instruction: 00000640
     978:	42131803 			@ <UNDEFINED> instruction: 42131803
     97c:	0d000000 			@ <UNDEFINED> instruction: 0d000000
     980:	00000090 			@ <UNDEFINED> instruction: 00000090
     984:	0000e607 			@ <UNDEFINED> instruction: 0000e607
     988:	14300300 			@ <UNDEFINED> instruction: 14300300
     98c:	0000006a 			@ <UNDEFINED> instruction: 0000006a
     990:	0000a10d 			@ <UNDEFINED> instruction: 0000a10d
     994:	00ad0f00 			@ <UNDEFINED> instruction: 00ad0f00
     998:	8c1f0000 			@ <UNDEFINED> instruction: 8c1f0000
     99c:	0901c904 			@ <UNDEFINED> instruction: 0901c904
     9a0:	000001dc 	ldrdeq	r0, [r0], -ip
     9a4:	0004a301 			@ <UNDEFINED> instruction: 0004a301
     9a8:	01cb0400 			@ <UNDEFINED> instruction: 01cb0400
     9ac:	0000b212 			@ <UNDEFINED> instruction: 0000b212
     9b0:	75010000 			@ <UNDEFINED> instruction: 75010000
     9b4:	04000006 			@ <UNDEFINED> instruction: 04000006
     9b8:	ad1201cc 			@ <UNDEFINED> instruction: ad1201cc
     9bc:	04000000 			@ <UNDEFINED> instruction: 04000000
     9c0:	00066b01 			@ <UNDEFINED> instruction: 00066b01
     9c4:	01cd0400 			@ <UNDEFINED> instruction: 01cd0400
     9c8:	0000ad12 			@ <UNDEFINED> instruction: 0000ad12
     9cc:	38010800 			@ <UNDEFINED> instruction: 38010800
     9d0:	04000005 			@ <UNDEFINED> instruction: 04000005
     9d4:	ad1201ce 			@ <UNDEFINED> instruction: ad1201ce
     9d8:	0c000000 			@ <UNDEFINED> instruction: 0c000000
     9dc:	5243530e 			@ <UNDEFINED> instruction: 5243530e
     9e0:	ad01cf00 			@ <UNDEFINED> instruction: ad01cf00
     9e4:	10000000 			@ <UNDEFINED> instruction: 10000000
     9e8:	5243430e 			@ <UNDEFINED> instruction: 5243430e
     9ec:	ad01d000 			@ <UNDEFINED> instruction: ad01d000
     9f0:	14000000 			@ <UNDEFINED> instruction: 14000000
     9f4:	5048530e 			@ <UNDEFINED> instruction: 5048530e
     9f8:	ec01d100 			@ <UNDEFINED> instruction: ec01d100
     9fc:	18000001 			@ <UNDEFINED> instruction: 18000001
     a00:	0005f601 			@ <UNDEFINED> instruction: 0005f601
     a04:	01d20400 			@ <UNDEFINED> instruction: 01d20400
     a08:	0000ad12 			@ <UNDEFINED> instruction: 0000ad12
     a0c:	88012400 			@ <UNDEFINED> instruction: 88012400
     a10:	04000005 			@ <UNDEFINED> instruction: 04000005
     a14:	ad1201d3 			@ <UNDEFINED> instruction: ad1201d3
     a18:	28000000 			@ <UNDEFINED> instruction: 28000000
     a1c:	0004ff01 			@ <UNDEFINED> instruction: 0004ff01
     a20:	01d40400 			@ <UNDEFINED> instruction: 01d40400
     a24:	0000ad12 			@ <UNDEFINED> instruction: 0000ad12
     a28:	97012c00 			@ <UNDEFINED> instruction: 97012c00
     a2c:	04000003 			@ <UNDEFINED> instruction: 04000003
     a30:	ad1201d5 			@ <UNDEFINED> instruction: ad1201d5
     a34:	30000000 			@ <UNDEFINED> instruction: 30000000
     a38:	0005f001 			@ <UNDEFINED> instruction: 0005f001
     a3c:	01d60400 			@ <UNDEFINED> instruction: 01d60400
     a40:	0000ad12 			@ <UNDEFINED> instruction: 0000ad12
     a44:	66013400 			@ <UNDEFINED> instruction: 66013400
     a48:	04000006 			@ <UNDEFINED> instruction: 04000006
     a4c:	ad1201d7 			@ <UNDEFINED> instruction: ad1201d7
     a50:	38000000 			@ <UNDEFINED> instruction: 38000000
     a54:	0004ed01 			@ <UNDEFINED> instruction: 0004ed01
     a58:	01d80400 			@ <UNDEFINED> instruction: 01d80400
     a5c:	0000ad12 			@ <UNDEFINED> instruction: 0000ad12
     a60:	500e3c00 			@ <UNDEFINED> instruction: 500e3c00
     a64:	d9005246 			@ <UNDEFINED> instruction: d9005246
     a68:	00020601 			@ <UNDEFINED> instruction: 00020601
     a6c:	440e4000 			@ <UNDEFINED> instruction: 440e4000
     a70:	da005246 			@ <UNDEFINED> instruction: da005246
     a74:	0000b201 			@ <UNDEFINED> instruction: 0000b201
     a78:	410e4800 			@ <UNDEFINED> instruction: 410e4800
     a7c:	db005244 			@ <UNDEFINED> instruction: db005244
     a80:	0000b201 			@ <UNDEFINED> instruction: 0000b201
     a84:	22014c00 			@ <UNDEFINED> instruction: 22014c00
     a88:	04000004 			@ <UNDEFINED> instruction: 04000004
     a8c:	201201dc 			@ <UNDEFINED> instruction: 201201dc
     a90:	50000002 			@ <UNDEFINED> instruction: 50000002
     a94:	0006fe01 			@ <UNDEFINED> instruction: 0006fe01
     a98:	01dd0400 			@ <UNDEFINED> instruction: 01dd0400
     a9c:	00023a12 			@ <UNDEFINED> instruction: 00023a12
     aa0:	42016000 			@ <UNDEFINED> instruction: 42016000
     aa4:	04000000 			@ <UNDEFINED> instruction: 04000000
     aa8:	3f1201de 			@ <UNDEFINED> instruction: 3f1201de
     aac:	74000002 			@ <UNDEFINED> instruction: 74000002
     ab0:	00034d01 			@ <UNDEFINED> instruction: 00034d01
     ab4:	01df0400 			@ <UNDEFINED> instruction: 01df0400
     ab8:	0000ad12 			@ <UNDEFINED> instruction: 0000ad12
     abc:	05008800 			@ <UNDEFINED> instruction: 05008800
     ac0:	0000009c 			@ <UNDEFINED> instruction: 0000009c
     ac4:	000001ec 			@ <UNDEFINED> instruction: 000001ec
     ac8:	00002d06 			@ <UNDEFINED> instruction: 00002d06
     acc:	0d000b00 	vstreq	d0, [r0, #-0]
     ad0:	000001dc 	ldrdeq	r0, [r0], -ip
     ad4:	0000b205 			@ <UNDEFINED> instruction: 0000b205
     ad8:	00020100 			@ <UNDEFINED> instruction: 00020100
     adc:	002d0600 			@ <UNDEFINED> instruction: 002d0600
     ae0:	00010000 			@ <UNDEFINED> instruction: 00010000
     ae4:	0001f10f 			@ <UNDEFINED> instruction: 0001f10f
     ae8:	02010d00 			@ <UNDEFINED> instruction: 02010d00
     aec:	b2050000 			@ <UNDEFINED> instruction: b2050000
     af0:	1b000000 			@ <UNDEFINED> instruction: 1b000000
     af4:	06000002 			@ <UNDEFINED> instruction: 06000002
     af8:	0000002d 			@ <UNDEFINED> instruction: 0000002d
     afc:	0b0f0003 			@ <UNDEFINED> instruction: 0b0f0003
     b00:	0d000002 			@ <UNDEFINED> instruction: 0d000002
     b04:	0000021b 			@ <UNDEFINED> instruction: 0000021b
     b08:	0000b205 			@ <UNDEFINED> instruction: 0000b205
     b0c:	00023500 			@ <UNDEFINED> instruction: 00023500
     b10:	002d0600 			@ <UNDEFINED> instruction: 002d0600
     b14:	00040000 			@ <UNDEFINED> instruction: 00040000
     b18:	0002250f 			@ <UNDEFINED> instruction: 0002250f
     b1c:	02350d00 			@ <UNDEFINED> instruction: 02350d00
     b20:	a1050000 			@ <UNDEFINED> instruction: a1050000
     b24:	4f000000 			@ <UNDEFINED> instruction: 4f000000
     b28:	06000002 			@ <UNDEFINED> instruction: 06000002
     b2c:	0000002d 			@ <UNDEFINED> instruction: 0000002d
     b30:	4d130004 			@ <UNDEFINED> instruction: 4d130004
     b34:	04000006 			@ <UNDEFINED> instruction: 04000006
     b38:	b70301e0 			@ <UNDEFINED> instruction: b70301e0
     b3c:	07000000 			@ <UNDEFINED> instruction: 07000000
     b40:	00000816 			@ <UNDEFINED> instruction: 00000816
     b44:	2d17e505 			@ <UNDEFINED> instruction: 2d17e505
     b48:	13000000 	movwne	r0, #0
     b4c:	0000067a 			@ <UNDEFINED> instruction: 0000067a
     b50:	17017605 			@ <UNDEFINED> instruction: 17017605
     b54:	0000002d 			@ <UNDEFINED> instruction: 0000002d
     b58:	00086607 			@ <UNDEFINED> instruction: 00086607
     b5c:	0e2e0600 			@ <UNDEFINED> instruction: 0e2e0600
     b60:	00000063 			@ <UNDEFINED> instruction: 00000063
     b64:	0003e707 			@ <UNDEFINED> instruction: 0003e707
     b68:	0e740600 			@ <UNDEFINED> instruction: 0e740600
     b6c:	00000063 			@ <UNDEFINED> instruction: 00000063
     b70:	a5060420 			@ <UNDEFINED> instruction: a5060420
     b74:	0002ad03 			@ <UNDEFINED> instruction: 0002ad03
     b78:	05471700 			@ <UNDEFINED> instruction: 05471700
     b7c:	0ca70000 			@ <UNDEFINED> instruction: 0ca70000
     b80:	00000268 			@ <UNDEFINED> instruction: 00000268
     b84:	00061e17 			@ <UNDEFINED> instruction: 00061e17
     b88:	ad13a800 			@ <UNDEFINED> instruction: ad13a800
     b8c:	00000002 			@ <UNDEFINED> instruction: 00000002
     b90:	00004e05 			@ <UNDEFINED> instruction: 00004e05
     b94:	0002bd00 			@ <UNDEFINED> instruction: 0002bd00
     b98:	002d0600 			@ <UNDEFINED> instruction: 002d0600
     b9c:	00030000 			@ <UNDEFINED> instruction: 00030000
     ba0:	a2060821 			@ <UNDEFINED> instruction: a2060821
     ba4:	0002e109 			@ <UNDEFINED> instruction: 0002e109
     ba8:	04270200 			@ <UNDEFINED> instruction: 04270200
     bac:	a4060000 			@ <UNDEFINED> instruction: a4060000
     bb0:	00003407 			@ <UNDEFINED> instruction: 00003407
     bb4:	f2020000 	vhadd.s8	d0, d2, d0
     bb8:	06000004 			@ <UNDEFINED> instruction: 06000004
     bbc:	028d05a9 			@ <UNDEFINED> instruction: 028d05a9
     bc0:	00040000 			@ <UNDEFINED> instruction: 00040000
     bc4:	0005b907 			@ <UNDEFINED> instruction: 0005b907
     bc8:	03aa0600 			@ <UNDEFINED> instruction: 03aa0600
     bcc:	000002bd 			@ <UNDEFINED> instruction: 000002bd
     bd0:	80070422 			@ <UNDEFINED> instruction: 80070422
     bd4:	07000005 			@ <UNDEFINED> instruction: 07000005
     bd8:	00761917 			@ <UNDEFINED> instruction: 00761917
     bdc:	e1070000 			@ <UNDEFINED> instruction: e1070000
     be0:	08000005 			@ <UNDEFINED> instruction: 08000005
     be4:	03071922 	movweq	r1, #31010	@ 0x7922
     be8:	0c040000 			@ <UNDEFINED> instruction: 0c040000
     bec:	18000003 			@ <UNDEFINED> instruction: 18000003
     bf0:	00000681 			@ <UNDEFINED> instruction: 00000681
     bf4:	00053e07 			@ <UNDEFINED> instruction: 00053e07
     bf8:	1b240700 			@ <UNDEFINED> instruction: 1b240700
     bfc:	000002fb 	strdeq	r0, [r0], -fp
     c00:	0003fe11 			@ <UNDEFINED> instruction: 0003fe11
     c04:	73351800 			@ <UNDEFINED> instruction: 73351800
     c08:	02000003 			@ <UNDEFINED> instruction: 02000003
     c0c:	00000728 			@ <UNDEFINED> instruction: 00000728
     c10:	73133707 			@ <UNDEFINED> instruction: 73133707
     c14:	00000003 			@ <UNDEFINED> instruction: 00000003
     c18:	006b5f0a 			@ <UNDEFINED> instruction: 006b5f0a
     c1c:	00340738 			@ <UNDEFINED> instruction: 00340738
     c20:	02040000 			@ <UNDEFINED> instruction: 02040000
     c24:	0000065e 			@ <UNDEFINED> instruction: 0000065e
     c28:	340b3807 			@ <UNDEFINED> instruction: 340b3807
     c2c:	08000000 			@ <UNDEFINED> instruction: 08000000
     c30:	00061202 			@ <UNDEFINED> instruction: 00061202
     c34:	14380700 			@ <UNDEFINED> instruction: 14380700
     c38:	00000034 			@ <UNDEFINED> instruction: 00000034
     c3c:	046b020c 			@ <UNDEFINED> instruction: 046b020c
     c40:	38070000 			@ <UNDEFINED> instruction: 38070000
     c44:	0000341b 			@ <UNDEFINED> instruction: 0000341b
     c48:	5f0a1000 			@ <UNDEFINED> instruction: 5f0a1000
     c4c:	0b390078 			@ <UNDEFINED> instruction: 0b390078
     c50:	00000378 			@ <UNDEFINED> instruction: 00000378
     c54:	1d040014 			@ <UNDEFINED> instruction: 1d040014
     c58:	05000003 			@ <UNDEFINED> instruction: 05000003
     c5c:	000002ef 			@ <UNDEFINED> instruction: 000002ef
     c60:	00000388 			@ <UNDEFINED> instruction: 00000388
     c64:	00002d06 			@ <UNDEFINED> instruction: 00002d06
     c68:	11000000 			@ <UNDEFINED> instruction: 11000000
     c6c:	00000670 			@ <UNDEFINED> instruction: 00000670
     c70:	04093d24 			@ <UNDEFINED> instruction: 04093d24
     c74:	9a020000 			@ <UNDEFINED> instruction: 9a020000
     c78:	07000004 			@ <UNDEFINED> instruction: 07000004
     c7c:	0034093f 			@ <UNDEFINED> instruction: 0034093f
     c80:	02000000 			@ <UNDEFINED> instruction: 02000000
     c84:	0000042f 			@ <UNDEFINED> instruction: 0000042f
     c88:	34094007 			@ <UNDEFINED> instruction: 34094007
     c8c:	04000000 			@ <UNDEFINED> instruction: 04000000
     c90:	00041802 			@ <UNDEFINED> instruction: 00041802
     c94:	09410700 			@ <UNDEFINED> instruction: 09410700
     c98:	00000034 			@ <UNDEFINED> instruction: 00000034
     c9c:	05150208 			@ <UNDEFINED> instruction: 05150208
     ca0:	42070000 			@ <UNDEFINED> instruction: 42070000
     ca4:	00003409 			@ <UNDEFINED> instruction: 00003409
     ca8:	d8020c00 			@ <UNDEFINED> instruction: d8020c00
     cac:	07000005 			@ <UNDEFINED> instruction: 07000005
     cb0:	00340943 			@ <UNDEFINED> instruction: 00340943
     cb4:	02100000 			@ <UNDEFINED> instruction: 02100000
     cb8:	00000625 			@ <UNDEFINED> instruction: 00000625
     cbc:	34094407 			@ <UNDEFINED> instruction: 34094407
     cc0:	14000000 			@ <UNDEFINED> instruction: 14000000
     cc4:	00040602 			@ <UNDEFINED> instruction: 00040602
     cc8:	09450700 			@ <UNDEFINED> instruction: 09450700
     ccc:	00000034 			@ <UNDEFINED> instruction: 00000034
     cd0:	04a90218 			@ <UNDEFINED> instruction: 04a90218
     cd4:	46070000 			@ <UNDEFINED> instruction: 46070000
     cd8:	00003409 			@ <UNDEFINED> instruction: 00003409
     cdc:	c4021c00 			@ <UNDEFINED> instruction: c4021c00
     ce0:	07000005 			@ <UNDEFINED> instruction: 07000005
     ce4:	00340947 			@ <UNDEFINED> instruction: 00340947
     ce8:	00200000 			@ <UNDEFINED> instruction: 00200000
     cec:	0006bc11 			@ <UNDEFINED> instruction: 0006bc11
     cf0:	2f740800 			@ <UNDEFINED> instruction: 2f740800
     cf4:	02000004 			@ <UNDEFINED> instruction: 02000004
     cf8:	0000056a 			@ <UNDEFINED> instruction: 0000056a
     cfc:	2f117507 			@ <UNDEFINED> instruction: 2f117507
     d00:	00000004 			@ <UNDEFINED> instruction: 00000004
     d04:	00084e02 			@ <UNDEFINED> instruction: 00084e02
     d08:	06760700 			@ <UNDEFINED> instruction: 06760700
     d0c:	00000034 			@ <UNDEFINED> instruction: 00000034
     d10:	4e040004 			@ <UNDEFINED> instruction: 4e040004
     d14:	11000000 			@ <UNDEFINED> instruction: 11000000
     d18:	00000463 			@ <UNDEFINED> instruction: 00000463
     d1c:	056d9968 			@ <UNDEFINED> instruction: 056d9968
     d20:	5f0a0000 			@ <UNDEFINED> instruction: 5f0a0000
     d24:	129a0070 			@ <UNDEFINED> instruction: 129a0070
     d28:	0000042f 			@ <UNDEFINED> instruction: 0000042f
     d2c:	725f0a00 			@ <UNDEFINED> instruction: 725f0a00
     d30:	34079b00 			@ <UNDEFINED> instruction: 34079b00
     d34:	04000000 			@ <UNDEFINED> instruction: 04000000
     d38:	00775f0a 			@ <UNDEFINED> instruction: 00775f0a
     d3c:	0034079c 			@ <UNDEFINED> instruction: 0x0034079c
     d40:	02080000 			@ <UNDEFINED> instruction: 02080000
     d44:	000003f7 	strdeq	r0, [r0], -r7
     d48:	55099d07 			@ <UNDEFINED> instruction: 55099d07
     d4c:	0c000000 			@ <UNDEFINED> instruction: 0c000000
     d50:	00059c02 			@ <UNDEFINED> instruction: 00059c02
     d54:	099e0700 			@ <UNDEFINED> instruction: 099e0700
     d58:	00000055 			@ <UNDEFINED> instruction: 00000055
     d5c:	625f0a0e 			@ <UNDEFINED> instruction: 625f0a0e
     d60:	119f0066 			@ <UNDEFINED> instruction: 119f0066
     d64:	00000409 			@ <UNDEFINED> instruction: 00000409
     d68:	038e0210 			@ <UNDEFINED> instruction: 038e0210
     d6c:	a0070000 			@ <UNDEFINED> instruction: a0070000
     d70:	00003407 			@ <UNDEFINED> instruction: 00003407
     d74:	ef021800 			@ <UNDEFINED> instruction: ef021800
     d78:	07000003 			@ <UNDEFINED> instruction: 07000003
     d7c:	02ed0aa7 			@ <UNDEFINED> instruction: 02ed0aa7
     d80:	021c0000 			@ <UNDEFINED> instruction: 021c0000
     d84:	000003cb 			@ <UNDEFINED> instruction: 000003cb
     d88:	971da907 			@ <UNDEFINED> instruction: 971da907
     d8c:	20000006 			@ <UNDEFINED> instruction: 20000006
     d90:	0005e902 			@ <UNDEFINED> instruction: 0005e902
     d94:	1dab0700 			@ <UNDEFINED> instruction: 1dab0700
     d98:	000006c4 			@ <UNDEFINED> instruction: 000006c4
     d9c:	07390224 			@ <UNDEFINED> instruction: 07390224
     da0:	ae070000 			@ <UNDEFINED> instruction: ae070000
     da4:	0006e70d 			@ <UNDEFINED> instruction: 0006e70d
     da8:	4d022800 			@ <UNDEFINED> instruction: 4d022800
     dac:	07000005 			@ <UNDEFINED> instruction: 07000005
     db0:	070009af 			@ <UNDEFINED> instruction: 070009af
     db4:	0a2c0000 			@ <UNDEFINED> instruction: 0a2c0000
     db8:	0062755f 			@ <UNDEFINED> instruction: 0062755f
     dbc:	040911b2 			@ <UNDEFINED> instruction: 040911b2
     dc0:	0a300000 			@ <UNDEFINED> instruction: 0a300000
     dc4:	0070755f 			@ <UNDEFINED> instruction: 0070755f
     dc8:	042f12b3 			@ <UNDEFINED> instruction: 042f12b3
     dcc:	0a380000 			@ <UNDEFINED> instruction: 0a380000
     dd0:	0072755f 			@ <UNDEFINED> instruction: 0072755f
     dd4:	003407b4 	ldrhteq	r0, [r4], -r4
     dd8:	023c0000 			@ <UNDEFINED> instruction: 023c0000
     ddc:	00000747 			@ <UNDEFINED> instruction: 00000747
     de0:	0511b707 			@ <UNDEFINED> instruction: 0511b707
     de4:	40000007 			@ <UNDEFINED> instruction: 40000007
     de8:	00070302 			@ <UNDEFINED> instruction: 00070302
     dec:	11b80700 			@ <UNDEFINED> instruction: 11b80700
     df0:	00000715 			@ <UNDEFINED> instruction: 00000715
     df4:	6c5f0a43 	mrrcvs	10, 4, r0, pc, cr3	@ <UNPREDICTABLE>
     df8:	11bb0062 			@ <UNDEFINED> instruction: 11bb0062
     dfc:	00000409 			@ <UNDEFINED> instruction: 00000409
     e00:	07b50244 			@ <UNDEFINED> instruction: 07b50244
     e04:	be070000 			@ <UNDEFINED> instruction: be070000
     e08:	00003407 			@ <UNDEFINED> instruction: 00003407
     e0c:	87024c00 			@ <UNDEFINED> instruction: 87024c00
     e10:	07000004 			@ <UNDEFINED> instruction: 07000004
     e14:	02750abf 			@ <UNDEFINED> instruction: 02750abf
     e18:	02500000 			@ <UNDEFINED> instruction: 02500000
     e1c:	00000618 			@ <UNDEFINED> instruction: 00000618
     e20:	8b12c207 			@ <UNDEFINED> instruction: 8b12c207
     e24:	54000005 			@ <UNDEFINED> instruction: 54000005
     e28:	00068202 			@ <UNDEFINED> instruction: 00068202
     e2c:	0cc60700 			@ <UNDEFINED> instruction: 0cc60700
     e30:	00000311 			@ <UNDEFINED> instruction: 00000311
     e34:	03c20258 			@ <UNDEFINED> instruction: 03c20258
     e38:	c8070000 			@ <UNDEFINED> instruction: c8070000
     e3c:	0002e10e 			@ <UNDEFINED> instruction: 0002e10e
     e40:	09025c00 			@ <UNDEFINED> instruction: 09025c00
     e44:	07000007 			@ <UNDEFINED> instruction: 07000007
     e48:	003409c9 			@ <UNDEFINED> instruction: 003409c9
     e4c:	00640000 			@ <UNDEFINED> instruction: 00640000
     e50:	00003412 			@ <UNDEFINED> instruction: 00003412
     e54:	00058b00 			@ <UNDEFINED> instruction: 00058b00
     e58:	058b0300 			@ <UNDEFINED> instruction: 058b0300
     e5c:	ed030000 			@ <UNDEFINED> instruction: ed030000
     e60:	03000002 	movweq	r0, #2
     e64:	00000681 			@ <UNDEFINED> instruction: 00000681
     e68:	00003403 			@ <UNDEFINED> instruction: 00003403
     e6c:	90040000 			@ <UNDEFINED> instruction: 90040000
     e70:	23000005 	movwcs	r0, #5
     e74:	000006f0 	strdeq	r0, [r0], -r0	@ <UNPREDICTABLE>
     e78:	44070200 			@ <UNDEFINED> instruction: 44070200
     e7c:	06810802 			@ <UNDEFINED> instruction: 06810802
     e80:	a3010000 	movwge	r0, #4096	@ 0x1000
     e84:	07000008 			@ <UNDEFINED> instruction: 07000008
     e88:	34070246 			@ <UNDEFINED> instruction: 34070246
     e8c:	00000000 			@ <UNDEFINED> instruction: 00000000
     e90:	00055401 			@ <UNDEFINED> instruction: 00055401
     e94:	024b0700 			@ <UNDEFINED> instruction: 024b0700
     e98:	0007320b 			@ <UNDEFINED> instruction: 0007320b
     e9c:	df010400 			@ <UNDEFINED> instruction: df010400
     ea0:	07000003 			@ <UNDEFINED> instruction: 07000003
     ea4:	3214024b 			@ <UNDEFINED> instruction: 3214024b
     ea8:	08000007 			@ <UNDEFINED> instruction: 08000007
     eac:	00073f01 			@ <UNDEFINED> instruction: 00073f01
     eb0:	024b0700 			@ <UNDEFINED> instruction: 024b0700
     eb4:	0007321e 			@ <UNDEFINED> instruction: 0007321e
     eb8:	b3010c00 	movwlt	r0, #7168	@ 0x1c00
     ebc:	07000004 			@ <UNDEFINED> instruction: 07000004
     ec0:	3408024d 			@ <UNDEFINED> instruction: 3408024d
     ec4:	10000000 			@ <UNDEFINED> instruction: 10000000
     ec8:	00048f01 			@ <UNDEFINED> instruction: 00048f01
     ecc:	024e0700 			@ <UNDEFINED> instruction: 024e0700
     ed0:	0008ef08 			@ <UNDEFINED> instruction: 0008ef08
     ed4:	e8011400 			@ <UNDEFINED> instruction: e8011400
     ed8:	07000006 			@ <UNDEFINED> instruction: 07000006
     edc:	04160253 			@ <UNDEFINED> instruction: 04160253
     ee0:	30000009 			@ <UNDEFINED> instruction: 30000009
     ee4:	0005a201 			@ <UNDEFINED> instruction: 0005a201
     ee8:	02590700 			@ <UNDEFINED> instruction: 02590700
     eec:	0009140a 			@ <UNDEFINED> instruction: 0009140a
     ef0:	10013400 			@ <UNDEFINED> instruction: 10013400
     ef4:	07000004 			@ <UNDEFINED> instruction: 07000004
     ef8:	7313025c 			@ <UNDEFINED> instruction: 7313025c
     efc:	38000003 			@ <UNDEFINED> instruction: 38000003
     f00:	00044c01 			@ <UNDEFINED> instruction: 00044c01
     f04:	025d0700 			@ <UNDEFINED> instruction: 025d0700
     f08:	00003407 			@ <UNDEFINED> instruction: 00003407
     f0c:	fa013c00 	blx	4ff14 <__RW_SIZE__+0x4fd48>
     f10:	07000004 			@ <UNDEFINED> instruction: 07000004
     f14:	7313025e 			@ <UNDEFINED> instruction: 7313025e
     f18:	40000003 			@ <UNDEFINED> instruction: 40000003
     f1c:	00057001 			@ <UNDEFINED> instruction: 00057001
     f20:	025f0700 			@ <UNDEFINED> instruction: 025f0700
     f24:	00091914 			@ <UNDEFINED> instruction: 00091914
     f28:	56014400 			@ <UNDEFINED> instruction: 56014400
     f2c:	07000006 			@ <UNDEFINED> instruction: 07000006
     f30:	34070262 			@ <UNDEFINED> instruction: 34070262
     f34:	48000000 			@ <UNDEFINED> instruction: 48000000
     f38:	00068801 			@ <UNDEFINED> instruction: 00068801
     f3c:	02630700 			@ <UNDEFINED> instruction: 02630700
     f40:	00068109 			@ <UNDEFINED> instruction: 00068109
     f44:	48014c00 			@ <UNDEFINED> instruction: 48014c00
     f48:	07000006 			@ <UNDEFINED> instruction: 07000006
     f4c:	d6070295 			@ <UNDEFINED> instruction: d6070295
     f50:	50000008 			@ <UNDEFINED> instruction: 50000008
     f54:	00051f24 			@ <UNDEFINED> instruction: 00051f24
     f58:	029d0700 			@ <UNDEFINED> instruction: 029d0700
     f5c:	0009290b 			@ <UNDEFINED> instruction: 0009290b
     f60:	0001f800 			@ <UNDEFINED> instruction: 0001f800
     f64:	00068b04 			@ <UNDEFINED> instruction: 00068b04
     f68:	06811400 			@ <UNDEFINED> instruction: 06811400
     f6c:	01080000 			@ <UNDEFINED> instruction: 01080000
     f70:	0000a608 			@ <UNDEFINED> instruction: 0000a608
     f74:	068b0f00 			@ <UNDEFINED> instruction: 068b0f00
     f78:	6d040000 			@ <UNDEFINED> instruction: 6d040000
     f7c:	12000005 			@ <UNDEFINED> instruction: 12000005
     f80:	00000034 			@ <UNDEFINED> instruction: 00000034
     f84:	000006ba 			@ <UNDEFINED> instruction: 000006ba
     f88:	00058b03 			@ <UNDEFINED> instruction: 00058b03
     f8c:	02ed0300 			@ <UNDEFINED> instruction: 02ed0300
     f90:	ba030000 			@ <UNDEFINED> instruction: ba030000
     f94:	03000006 	movweq	r0, #6
     f98:	00000034 			@ <UNDEFINED> instruction: 00000034
     f9c:	06920400 			@ <UNDEFINED> instruction: 06920400
     fa0:	ba140000 			@ <UNDEFINED> instruction: ba140000
     fa4:	04000006 			@ <UNDEFINED> instruction: 04000006
     fa8:	0000069c 			@ <UNDEFINED> instruction: 0000069c
     fac:	00028112 			@ <UNDEFINED> instruction: 00028112
     fb0:	0006e700 			@ <UNDEFINED> instruction: 0006e700
     fb4:	058b0300 			@ <UNDEFINED> instruction: 058b0300
     fb8:	ed030000 			@ <UNDEFINED> instruction: ed030000
     fbc:	03000002 	movweq	r0, #2
     fc0:	00000281 			@ <UNDEFINED> instruction: 00000281
     fc4:	00003403 			@ <UNDEFINED> instruction: 00003403
     fc8:	c9040000 			@ <UNDEFINED> instruction: c9040000
     fcc:	12000006 			@ <UNDEFINED> instruction: 12000006
     fd0:	00000034 			@ <UNDEFINED> instruction: 00000034
     fd4:	00000700 			@ <UNDEFINED> instruction: 00000700
     fd8:	00058b03 			@ <UNDEFINED> instruction: 00058b03
     fdc:	02ed0300 			@ <UNDEFINED> instruction: 02ed0300
     fe0:	04000000 			@ <UNDEFINED> instruction: 04000000
     fe4:	000006ec 			@ <UNDEFINED> instruction: 000006ec
     fe8:	00004e05 			@ <UNDEFINED> instruction: 00004e05
     fec:	00071500 			@ <UNDEFINED> instruction: 00071500
     ff0:	002d0600 			@ <UNDEFINED> instruction: 002d0600
     ff4:	00020000 			@ <UNDEFINED> instruction: 00020000
     ff8:	00004e05 			@ <UNDEFINED> instruction: 00004e05
     ffc:	00072500 			@ <UNDEFINED> instruction: 00072500
    1000:	002d0600 			@ <UNDEFINED> instruction: 002d0600
    1004:	00000000 			@ <UNDEFINED> instruction: 00000000
    1008:	00047513 			@ <UNDEFINED> instruction: 00047513
    100c:	010e0700 			@ <UNDEFINED> instruction: 010e0700
    1010:	0004341a 			@ <UNDEFINED> instruction: 0004341a
    1014:	07250400 			@ <UNDEFINED> instruction: 07250400
    1018:	44250000 			@ <UNDEFINED> instruction: 44250000
    101c:	0e000004 			@ <UNDEFINED> instruction: 0e000004
    1020:	08013207 			@ <UNDEFINED> instruction: 08013207
    1024:	00000770 			@ <UNDEFINED> instruction: 00000770
    1028:	00071d01 			@ <UNDEFINED> instruction: 00071d01
    102c:	01330700 			@ <UNDEFINED> instruction: 01330700
    1030:	00077012 			@ <UNDEFINED> instruction: 00077012
    1034:	7a010000 			@ <UNDEFINED> instruction: 7a010000
    1038:	07000005 			@ <UNDEFINED> instruction: 07000005
    103c:	70120134 			@ <UNDEFINED> instruction: 70120134
    1040:	06000007 			@ <UNDEFINED> instruction: 06000007
    1044:	00069d01 			@ <UNDEFINED> instruction: 00069d01
    1048:	01350700 			@ <UNDEFINED> instruction: 01350700
    104c:	00005c12 			@ <UNDEFINED> instruction: 00005c12
    1050:	05000c00 			@ <UNDEFINED> instruction: 05000c00
    1054:	0000005c 			@ <UNDEFINED> instruction: 0000005c
    1058:	00000780 			@ <UNDEFINED> instruction: 00000780
    105c:	00002d06 			@ <UNDEFINED> instruction: 00002d06
    1060:	26000200 			@ <UNDEFINED> instruction: 26000200
    1064:	670701a8 			@ <UNDEFINED> instruction: 670701a8
    1068:	08960702 			@ <UNDEFINED> instruction: 08960702
    106c:	cd010000 			@ <UNDEFINED> instruction: cd010000
    1070:	07000006 			@ <UNDEFINED> instruction: 07000006
    1074:	8112026c 			@ <UNDEFINED> instruction: 8112026c
    1078:	00000006 			@ <UNDEFINED> instruction: 00000006
    107c:	00045601 			@ <UNDEFINED> instruction: 00045601
    1080:	026d0700 			@ <UNDEFINED> instruction: 026d0700
    1084:	00089610 			@ <UNDEFINED> instruction: 00089610
    1088:	2f010400 			@ <UNDEFINED> instruction: 2f010400
    108c:	07000006 			@ <UNDEFINED> instruction: 07000006
    1090:	8817026e 			@ <UNDEFINED> instruction: 8817026e
    1094:	20000003 			@ <UNDEFINED> instruction: 20000003
    1098:	00055b01 			@ <UNDEFINED> instruction: 00055b01
    109c:	026f0700 			@ <UNDEFINED> instruction: 026f0700
    10a0:	0000340f 			@ <UNDEFINED> instruction: 0000340f
    10a4:	23014400 	movwcs	r4, #5120	@ 0x1400
    10a8:	07000007 			@ <UNDEFINED> instruction: 07000007
    10ac:	842c0270 			@ <UNDEFINED> instruction: 842c0270
    10b0:	48000000 			@ <UNDEFINED> instruction: 48000000
    10b4:	00037d01 			@ <UNDEFINED> instruction: 00037d01
    10b8:	02710700 			@ <UNDEFINED> instruction: 02710700
    10bc:	0007371a 			@ <UNDEFINED> instruction: 0007371a
    10c0:	ac015000 			@ <UNDEFINED> instruction: ac015000
    10c4:	07000005 			@ <UNDEFINED> instruction: 07000005
    10c8:	e1160272 			@ <UNDEFINED> instruction: e1160272
    10cc:	60000002 			@ <UNDEFINED> instruction: 60000002
    10d0:	0006da01 			@ <UNDEFINED> instruction: 0006da01
    10d4:	02730700 			@ <UNDEFINED> instruction: 02730700
    10d8:	0002e116 			@ <UNDEFINED> instruction: 0002e116
    10dc:	6f016800 			@ <UNDEFINED> instruction: 6f016800
    10e0:	07000003 			@ <UNDEFINED> instruction: 07000003
    10e4:	e1160274 			@ <UNDEFINED> instruction: e1160274
    10e8:	70000002 			@ <UNDEFINED> instruction: 70000002
    10ec:	0006c301 			@ <UNDEFINED> instruction: 0006c301
    10f0:	02750700 			@ <UNDEFINED> instruction: 02750700
    10f4:	0008a610 			@ <UNDEFINED> instruction: 0008a610
    10f8:	82017800 			@ <UNDEFINED> instruction: 82017800
    10fc:	07000003 			@ <UNDEFINED> instruction: 07000003
    1100:	b6100276 			@ <UNDEFINED> instruction: b6100276
    1104:	80000008 			@ <UNDEFINED> instruction: 80000008
    1108:	00069001 			@ <UNDEFINED> instruction: 00069001
    110c:	02770700 			@ <UNDEFINED> instruction: 02770700
    1110:	0000340f 			@ <UNDEFINED> instruction: 0000340f
    1114:	d1019800 			@ <UNDEFINED> instruction: d1019800
    1118:	07000003 			@ <UNDEFINED> instruction: 07000003
    111c:	e1160278 			@ <UNDEFINED> instruction: e1160278
    1120:	9c000002 			@ <UNDEFINED> instruction: 9c000002
    1124:	00052901 			@ <UNDEFINED> instruction: 00052901
    1128:	02790700 			@ <UNDEFINED> instruction: 02790700
    112c:	0002e116 			@ <UNDEFINED> instruction: 0002e116
    1130:	dc01a400 			@ <UNDEFINED> instruction: dc01a400
    1134:	07000004 			@ <UNDEFINED> instruction: 07000004
    1138:	e116027a 			@ <UNDEFINED> instruction: e116027a
    113c:	ac000002 			@ <UNDEFINED> instruction: ac000002
    1140:	00058d01 			@ <UNDEFINED> instruction: 00058d01
    1144:	027b0700 			@ <UNDEFINED> instruction: 027b0700
    1148:	0002e116 			@ <UNDEFINED> instruction: 0002e116
    114c:	0401b400 			@ <UNDEFINED> instruction: 0401b400
    1150:	07000005 			@ <UNDEFINED> instruction: 07000005
    1154:	e116027c 			@ <UNDEFINED> instruction: e116027c
    1158:	bc000002 			@ <UNDEFINED> instruction: bc000002
    115c:	0005cf01 			@ <UNDEFINED> instruction: 0005cf01
    1160:	027d0700 			@ <UNDEFINED> instruction: 027d0700
    1164:	00003408 			@ <UNDEFINED> instruction: 00003408
    1168:	ad01c400 			@ <UNDEFINED> instruction: ad01c400
    116c:	07000003 			@ <UNDEFINED> instruction: 07000003
    1170:	c609028a 			@ <UNDEFINED> instruction: c609028a
    1174:	c8000008 			@ <UNDEFINED> instruction: c8000008
    1178:	068b0500 			@ <UNDEFINED> instruction: 068b0500
    117c:	08a60000 			@ <UNDEFINED> instruction: 08a60000
    1180:	2d060000 			@ <UNDEFINED> instruction: 2d060000
    1184:	19000000 			@ <UNDEFINED> instruction: 19000000
    1188:	068b0500 			@ <UNDEFINED> instruction: 068b0500
    118c:	08b60000 			@ <UNDEFINED> instruction: 08b60000
    1190:	2d060000 			@ <UNDEFINED> instruction: 2d060000
    1194:	07000000 			@ <UNDEFINED> instruction: 07000000
    1198:	068b0500 			@ <UNDEFINED> instruction: 068b0500
    119c:	08c60000 			@ <UNDEFINED> instruction: 08c60000
    11a0:	2d060000 			@ <UNDEFINED> instruction: 2d060000
    11a4:	17000000 			@ <UNDEFINED> instruction: 17000000
    11a8:	068b0500 			@ <UNDEFINED> instruction: 068b0500
    11ac:	08d60000 			@ <UNDEFINED> instruction: 08d60000
    11b0:	2d060000 			@ <UNDEFINED> instruction: 2d060000
    11b4:	df000000 			@ <UNDEFINED> instruction: df000000
    11b8:	01a82700 			@ <UNDEFINED> instruction: 01a82700
    11bc:	03026507 	movweq	r6, #9479	@ 0x2507
    11c0:	000008ef 			@ <UNDEFINED> instruction: 000008ef
    11c4:	0006f028 			@ <UNDEFINED> instruction: 0006f028
    11c8:	028d0700 			@ <UNDEFINED> instruction: 028d0700
    11cc:	0007800b 			@ <UNDEFINED> instruction: 0007800b
    11d0:	8b050000 			@ <UNDEFINED> instruction: 8b050000
    11d4:	ff000006 			@ <UNDEFINED> instruction: ff000006
    11d8:	06000008 			@ <UNDEFINED> instruction: 06000008
    11dc:	0000002d 			@ <UNDEFINED> instruction: 0000002d
    11e0:	2e180018 			@ <UNDEFINED> instruction: 2e180018
    11e4:	04000007 			@ <UNDEFINED> instruction: 04000007
    11e8:	000008ff 	strdeq	r0, [r0], -pc	@ <UNPREDICTABLE>
    11ec:	00091419 			@ <UNDEFINED> instruction: 00091419
    11f0:	058b0300 			@ <UNDEFINED> instruction: 058b0300
    11f4:	04000000 			@ <UNDEFINED> instruction: 04000000
    11f8:	00000909 			@ <UNDEFINED> instruction: 00000909
    11fc:	00037304 			@ <UNDEFINED> instruction: 00037304
    1200:	09291900 			@ <UNDEFINED> instruction: 09291900
    1204:	34030000 			@ <UNDEFINED> instruction: 34030000
    1208:	00000000 			@ <UNDEFINED> instruction: 00000000
    120c:	00092e04 			@ <UNDEFINED> instruction: 00092e04
    1210:	091e0400 			@ <UNDEFINED> instruction: 091e0400
    1214:	38290000 			@ <UNDEFINED> instruction: 38290000
    1218:	07000004 			@ <UNDEFINED> instruction: 07000004
    121c:	8b170325 			@ <UNDEFINED> instruction: 8b170325
    1220:	07000005 			@ <UNDEFINED> instruction: 07000005
    1224:	00000477 			@ <UNDEFINED> instruction: 00000477
    1228:	25104209 			@ <UNDEFINED> instruction: 25104209
    122c:	10000007 			@ <UNDEFINED> instruction: 10000007
    1230:	00000337 			@ <UNDEFINED> instruction: 00000337
    1234:	035a1a1c 			@ <UNDEFINED> instruction: 035a1a1c
    1238:	34c90000 			@ <UNDEFINED> instruction: 34c90000
    123c:	75000000 			@ <UNDEFINED> instruction: 75000000
    1240:	03000009 	movweq	r0, #9
    1244:	0000097a 			@ <UNDEFINED> instruction: 0000097a
    1248:	00068603 			@ <UNDEFINED> instruction: 00068603
    124c:	00340300 			@ <UNDEFINED> instruction: 00340300
    1250:	5c030000 			@ <UNDEFINED> instruction: 5c030000
    1254:	00000002 			@ <UNDEFINED> instruction: 00000002
    1258:	00094004 			@ <UNDEFINED> instruction: 00094004
    125c:	09751400 			@ <UNDEFINED> instruction: 09751400
    1260:	7c1b0000 			@ <UNDEFINED> instruction: 7c1b0000
    1264:	08000004 			@ <UNDEFINED> instruction: 08000004
    1268:	0000098f 			@ <UNDEFINED> instruction: 0000098f
    126c:	00003403 			@ <UNDEFINED> instruction: 00003403
    1270:	9a100000 			@ <UNDEFINED> instruction: 9a100000
    1274:	22000001 			@ <UNDEFINED> instruction: 22000001
    1278:	00032810 			@ <UNDEFINED> instruction: 00032810
    127c:	30101e00 			@ <UNDEFINED> instruction: 30101e00
    1280:	1d000003 			@ <UNDEFINED> instruction: 1d000003
    1284:	0005fc15 			@ <UNDEFINED> instruction: 0005fc15
    1288:	340c1500 			@ <UNDEFINED> instruction: 340c1500
    128c:	15000000 			@ <UNDEFINED> instruction: 15000000
    1290:	0000039c 			@ <UNDEFINED> instruction: 0000039c
    1294:	002d1516 			@ <UNDEFINED> instruction: 002d1516
    1298:	c1150000 			@ <UNDEFINED> instruction: c1150000
    129c:	17000004 			@ <UNDEFINED> instruction: 17000004
    12a0:	00002d15 			@ <UNDEFINED> instruction: 00002d15
    12a4:	03401000 	movteq	r1, #0
    12a8:	1b180000 			@ <UNDEFINED> instruction: 1b180000
    12ac:	00000711 			@ <UNDEFINED> instruction: 00000711
    12b0:	0009d814 			@ <UNDEFINED> instruction: 0009d814
    12b4:	002d0300 			@ <UNDEFINED> instruction: 002d0300
    12b8:	1a000000 			@ <UNDEFINED> instruction: 1a000000
    12bc:	000009f3 	strdeq	r0, [r0], -r3
    12c0:	000034ce 			@ <UNDEFINED> instruction: 000034ce
    12c4:	0009ed00 			@ <UNDEFINED> instruction: 0009ed00
    12c8:	06bf0300 			@ <UNDEFINED> instruction: 06bf0300
    12cc:	002a0000 			@ <UNDEFINED> instruction: 002a0000
    12d0:	0004702b 			@ <UNDEFINED> instruction: 0004702b
    12d4:	060d0100 			@ <UNDEFINED> instruction: 060d0100
    12d8:	08000178 			@ <UNDEFINED> instruction: 08000178
    12dc:	00000100 			@ <UNDEFINED> instruction: 00000100
    12e0:	0b6d9c01 			@ <UNDEFINED> instruction: 0b6d9c01
    12e4:	691c0000 			@ <UNDEFINED> instruction: 691c0000
    12e8:	008b0f00 			@ <UNDEFINED> instruction: 008b0f00
    12ec:	91020000 			@ <UNDEFINED> instruction: 91020000
    12f0:	006a1c68 			@ <UNDEFINED> instruction: 006a1c68
    12f4:	00008b12 			@ <UNDEFINED> instruction: 00008b12
    12f8:	6c910200 			@ <UNDEFINED> instruction: 6c910200
    12fc:	746e632c 			@ <UNDEFINED> instruction: 746e632c
    1300:	0f130100 			@ <UNDEFINED> instruction: 0f130100
    1304:	0000002d 			@ <UNDEFINED> instruction: 0000002d
    1308:	00000010 			@ <UNDEFINED> instruction: 00000010
    130c:	0000000c 			@ <UNDEFINED> instruction: 0000000c
    1310:	000b6d2d 			@ <UNDEFINED> instruction: 000b6d2d
    1314:	00017800 			@ <UNDEFINED> instruction: 00017800
    1318:	000c0208 			@ <UNDEFINED> instruction: 000c0208
    131c:	0f010000 			@ <UNDEFINED> instruction: 0f010000
    1320:	000a9502 			@ <UNDEFINED> instruction: 000a9502
    1324:	0b7a2e00 			@ <UNDEFINED> instruction: 0b7a2e00
    1328:	003b0000 			@ <UNDEFINED> instruction: 003b0000
    132c:	00390000 			@ <UNDEFINED> instruction: 00390000
    1330:	8e090000 			@ <UNDEFINED> instruction: 8e090000
    1334:	8f080001 			@ <UNDEFINED> instruction: 8f080001
    1338:	0c000009 			@ <UNDEFINED> instruction: 0c000009
    133c:	08000196 			@ <UNDEFINED> instruction: 08000196
    1340:	0000097f 			@ <UNDEFINED> instruction: 0000097f
    1344:	00000a6e 			@ <UNDEFINED> instruction: 00000a6e
    1348:	0450010b 			@ <UNDEFINED> instruction: 0450010b
    134c:	2439e108 			@ <UNDEFINED> instruction: 2439e108
    1350:	01a60c00 			@ <UNDEFINED> instruction: 01a60c00
    1354:	09520800 			@ <UNDEFINED> instruction: 09520800
    1358:	0a8b0000 			@ <UNDEFINED> instruction: 0a8b0000
    135c:	010b0000 			@ <UNDEFINED> instruction: 010b0000
    1360:	0b300151 			@ <UNDEFINED> instruction: 0b300151
    1364:	32015201 			@ <UNDEFINED> instruction: 32015201
    1368:	0153010b 			@ <UNDEFINED> instruction: 0153010b
    136c:	aa090030 			@ <UNDEFINED> instruction: aa090030
    1370:	4c080001 			@ <UNDEFINED> instruction: 4c080001
    1374:	00000009 			@ <UNDEFINED> instruction: 00000009
    1378:	0001b00c 			@ <UNDEFINED> instruction: 0001b00c
    137c:	0009d808 			@ <UNDEFINED> instruction: 0009d808
    1380:	000aac00 			@ <UNDEFINED> instruction: 000aac00
    1384:	50010b00 			@ <UNDEFINED> instruction: 50010b00
    1388:	4b280305 			@ <UNDEFINED> instruction: 4b280305
    138c:	0c000800 			@ <UNDEFINED> instruction: 0c000800
    1390:	080001c8 			@ <UNDEFINED> instruction: 080001c8
    1394:	000009c8 			@ <UNDEFINED> instruction: 000009c8
    1398:	00000ac1 			@ <UNDEFINED> instruction: 00000ac1
    139c:	0350010b 			@ <UNDEFINED> instruction: 0350010b
    13a0:	0003e80a 			@ <UNDEFINED> instruction: 0003e80a
    13a4:	0001ea09 			@ <UNDEFINED> instruction: 0001ea09
    13a8:	0009c208 			@ <UNDEFINED> instruction: 0009c208
    13ac:	01ee0900 			@ <UNDEFINED> instruction: 01ee0900
    13b0:	09b70800 			@ <UNDEFINED> instruction: 09b70800
    13b4:	f4090000 	vst4.8	{d0-d3}, [r9], r0
    13b8:	ac080001 			@ <UNDEFINED> instruction: ac080001
    13bc:	09000009 			@ <UNDEFINED> instruction: 09000009
    13c0:	080001fa 			@ <UNDEFINED> instruction: 080001fa
    13c4:	00000b87 			@ <UNDEFINED> instruction: 00000b87
    13c8:	00020209 			@ <UNDEFINED> instruction: 00020209
    13cc:	000b9008 			@ <UNDEFINED> instruction: 000b9008
    13d0:	02060900 			@ <UNDEFINED> instruction: 02060900
    13d4:	0b990800 			@ <UNDEFINED> instruction: 0b990800
    13d8:	0e0c0000 			@ <UNDEFINED> instruction: 0e0c0000
    13dc:	d8080002 			@ <UNDEFINED> instruction: d8080002
    13e0:	0e000009 			@ <UNDEFINED> instruction: 0e000009
    13e4:	0b00000b 			@ <UNDEFINED> instruction: 0b00000b
    13e8:	03055001 	movweq	r5, #20481	@ 0x5001
    13ec:	08004b44 			@ <UNDEFINED> instruction: 08004b44
    13f0:	02200c00 			@ <UNDEFINED> instruction: 02200c00
    13f4:	09d80800 			@ <UNDEFINED> instruction: 09d80800
    13f8:	0b250000 			@ <UNDEFINED> instruction: 0b250000
    13fc:	010b0000 			@ <UNDEFINED> instruction: 010b0000
    1400:	5c030550 			@ <UNDEFINED> instruction: 5c030550
    1404:	0008004b 			@ <UNDEFINED> instruction: 0008004b
    1408:	00022c0c 			@ <UNDEFINED> instruction: 00022c0c
    140c:	0009c808 			@ <UNDEFINED> instruction: 0009c808
    1410:	000b3a00 			@ <UNDEFINED> instruction: 000b3a00
    1414:	50010b00 			@ <UNDEFINED> instruction: 50010b00
    1418:	03e80a03 			@ <UNDEFINED> instruction: 03e80a03
    141c:	02300900 			@ <UNDEFINED> instruction: 02300900
    1420:	09a10800 			@ <UNDEFINED> instruction: 09a10800
    1424:	44090000 			@ <UNDEFINED> instruction: 44090000
    1428:	9b080002 			@ <UNDEFINED> instruction: 9b080002
    142c:	0c000009 			@ <UNDEFINED> instruction: 0c000009
    1430:	0800024a 			@ <UNDEFINED> instruction: 0800024a
    1434:	000009d8 	ldrdeq	r0, [r0], -r8
    1438:	00000b63 			@ <UNDEFINED> instruction: 00000b63
    143c:	0550010b 			@ <UNDEFINED> instruction: 0550010b
    1440:	004b7803 			@ <UNDEFINED> instruction: 004b7803
    1444:	50090008 			@ <UNDEFINED> instruction: 50090008
    1448:	95080002 			@ <UNDEFINED> instruction: 95080002
    144c:	00000009 			@ <UNDEFINED> instruction: 00000009
    1450:	0004b82f 			@ <UNDEFINED> instruction: 0004b82f
    1454:	0d040100 			@ <UNDEFINED> instruction: 0d040100
    1458:	000b8701 			@ <UNDEFINED> instruction: 000b8701
    145c:	04d73000 			@ <UNDEFINED> instruction: 04d73000
    1460:	04010000 			@ <UNDEFINED> instruction: 04010000
    1464:	0000341a 			@ <UNDEFINED> instruction: 0000341a
    1468:	a2160000 			@ <UNDEFINED> instruction: a2160000
    146c:	a2000006 			@ <UNDEFINED> instruction: a2000006
    1470:	16000006 			@ <UNDEFINED> instruction: 16000006
    1474:	00000362 			@ <UNDEFINED> instruction: 00000362
    1478:	00000362 			@ <UNDEFINED> instruction: 00000362
    147c:	0006af16 			@ <UNDEFINED> instruction: 0006af16
    1480:	0006af00 			@ <UNDEFINED> instruction: 0006af00
    1484:	04f10000 			@ <UNDEFINED> instruction: 04f10000
    1488:	00050000 			@ <UNDEFINED> instruction: 00050000
    148c:	05290401 			@ <UNDEFINED> instruction: 05290401
    1490:	cf0c0000 			@ <UNDEFINED> instruction: cf0c0000
    1494:	0c000001 			@ <UNDEFINED> instruction: 0c000001
    1498:	000007d7 	ldrdeq	r0, [r0], -r7
    149c:	000000f7 	strdeq	r0, [r0], -r7
    14a0:	08000278 			@ <UNDEFINED> instruction: 08000278
    14a4:	00000088 			@ <UNDEFINED> instruction: 00000088
    14a8:	0000077c 			@ <UNDEFINED> instruction: 0000077c
    14ac:	5c070803 			@ <UNDEFINED> instruction: 5c070803
    14b0:	03000001 	movweq	r0, #1
    14b4:	01660704 			@ <UNDEFINED> instruction: 01660704
    14b8:	01030000 			@ <UNDEFINED> instruction: 01030000
    14bc:	00009f06 			@ <UNDEFINED> instruction: 00009f06
    14c0:	08010300 			@ <UNDEFINED> instruction: 08010300
    14c4:	0000009d 			@ <UNDEFINED> instruction: 0000009d
    14c8:	a5050203 			@ <UNDEFINED> instruction: a5050203
    14cc:	03000001 	movweq	r0, #1
    14d0:	028e0702 			@ <UNDEFINED> instruction: 028e0702
    14d4:	04030000 			@ <UNDEFINED> instruction: 04030000
    14d8:	00000505 			@ <UNDEFINED> instruction: 00000505
    14dc:	00e40100 			@ <UNDEFINED> instruction: 00e40100
    14e0:	4f020000 			@ <UNDEFINED> instruction: 4f020000
    14e4:	00006319 			@ <UNDEFINED> instruction: 00006319
    14e8:	07040300 			@ <UNDEFINED> instruction: 07040300
    14ec:	00000161 			@ <UNDEFINED> instruction: 00000161
    14f0:	00050803 			@ <UNDEFINED> instruction: 00050803
    14f4:	01000000 			@ <UNDEFINED> instruction: 01000000
    14f8:	000007a3 			@ <UNDEFINED> instruction: 000007a3
    14fc:	6a1ec802 			@ <UNDEFINED> instruction: 6a1ec802
    1500:	0d000000 			@ <UNDEFINED> instruction: 0d000000
    1504:	6e690504 			@ <UNDEFINED> instruction: 6e690504
    1508:	97010074 	smlsdxls	r1, r4, r0, r0
    150c:	03000008 	movweq	r0, #8
    1510:	00500e1e 			@ <UNDEFINED> instruction: 00500e1e
    1514:	11010000 			@ <UNDEFINED> instruction: 11010000
    1518:	03000008 	movweq	r0, #8
    151c:	00500e22 			@ <UNDEFINED> instruction: 00500e22
    1520:	66010000 			@ <UNDEFINED> instruction: 66010000
    1524:	03000008 	movweq	r0, #8
    1528:	00500e2e 			@ <UNDEFINED> instruction: 00500e2e
    152c:	6d010000 			@ <UNDEFINED> instruction: 6d010000
    1530:	03000008 	movweq	r0, #8
    1534:	00420f38 			@ <UNDEFINED> instruction: 00420f38
    1538:	7e010000 			@ <UNDEFINED> instruction: 7e010000
    153c:	03000008 	movweq	r0, #8
    1540:	0049183c 			@ <UNDEFINED> instruction: 0049183c
    1544:	aa010000 			@ <UNDEFINED> instruction: aa010000
    1548:	03000008 	movweq	r0, #8
    154c:	0049183f 			@ <UNDEFINED> instruction: 0049183f
    1550:	3d010000 			@ <UNDEFINED> instruction: 3d010000
    1554:	03000008 	movweq	r0, #8
    1558:	0049184b 			@ <UNDEFINED> instruction: 0049184b
    155c:	71010000 			@ <UNDEFINED> instruction: 71010000
    1560:	03000007 	movweq	r0, #7
    1564:	0057145a 			@ <UNDEFINED> instruction: 0057145a
    1568:	65010000 			@ <UNDEFINED> instruction: 65010000
    156c:	03000008 	movweq	r0, #8
    1570:	009c1066 			@ <UNDEFINED> instruction: 009c1066
    1574:	cd010000 			@ <UNDEFINED> instruction: cd010000
    1578:	03000007 	movweq	r0, #7
    157c:	004918d5 	ldrdeq	r1, [r9], #-133	@ 0xffffff7b
    1580:	01080000 			@ <UNDEFINED> instruction: 01080000
    1584:	03000001 	movweq	r0, #1
    1588:	00a60801 			@ <UNDEFINED> instruction: 00a60801
    158c:	f1010000 	setend	le
    1590:	04000007 			@ <UNDEFINED> instruction: 04000007
    1594:	0071122a 			@ <UNDEFINED> instruction: 0071122a
    1598:	75090000 			@ <UNDEFINED> instruction: 75090000
    159c:	10000008 			@ <UNDEFINED> instruction: 10000008
    15a0:	013b2f05 			@ <UNDEFINED> instruction: 013b2f05
    15a4:	6a020000 			@ <UNDEFINED> instruction: 6a020000
    15a8:	05000007 			@ <UNDEFINED> instruction: 05000007
    15ac:	01080930 			@ <UNDEFINED> instruction: 01080930
    15b0:	02000000 			@ <UNDEFINED> instruction: 02000000
    15b4:	00000755 			@ <UNDEFINED> instruction: 00000755
    15b8:	50073105 			@ <UNDEFINED> instruction: 50073105
    15bc:	08000000 			@ <UNDEFINED> instruction: 08000000
    15c0:	08990100 			@ <UNDEFINED> instruction: 08990100
    15c4:	61060000 			@ <UNDEFINED> instruction: 61060000
    15c8:	00008414 			@ <UNDEFINED> instruction: 00008414
    15cc:	08130100 			@ <UNDEFINED> instruction: 08130100
    15d0:	66060000 			@ <UNDEFINED> instruction: 66060000
    15d4:	00009015 			@ <UNDEFINED> instruction: 00009015
    15d8:	083f0100 			@ <UNDEFINED> instruction: 083f0100
    15dc:	89060000 			@ <UNDEFINED> instruction: 89060000
    15e0:	0000cc12 			@ <UNDEFINED> instruction: 0000cc12
    15e4:	08670100 			@ <UNDEFINED> instruction: 08670100
    15e8:	9b060000 			@ <UNDEFINED> instruction: 9b060000
    15ec:	0000e412 			@ <UNDEFINED> instruction: 0000e412
    15f0:	086f0100 			@ <UNDEFINED> instruction: 086f0100
    15f4:	9f060000 			@ <UNDEFINED> instruction: 9f060000
    15f8:	0000a812 			@ <UNDEFINED> instruction: 0000a812
    15fc:	08800100 			@ <UNDEFINED> instruction: 08800100
    1600:	a3060000 	movwge	r0, #24576	@ 0x6000
    1604:	0000b412 			@ <UNDEFINED> instruction: 0000b412
    1608:	08ac0100 			@ <UNDEFINED> instruction: 08ac0100
    160c:	a7060000 			@ <UNDEFINED> instruction: a7060000
    1610:	0000c012 			@ <UNDEFINED> instruction: 0000c012
    1614:	07730100 			@ <UNDEFINED> instruction: 07730100
    1618:	bb060000 			@ <UNDEFINED> instruction: bb060000
    161c:	0000d812 			@ <UNDEFINED> instruction: 0000d812
    1620:	07cf0100 			@ <UNDEFINED> instruction: 07cf0100
    1624:	c0060000 			@ <UNDEFINED> instruction: c0060000
    1628:	0000f013 			@ <UNDEFINED> instruction: 0000f013
    162c:	078b0900 			@ <UNDEFINED> instruction: 078b0900
    1630:	07580000 			@ <UNDEFINED> instruction: 07580000
    1634:	00026a1b 			@ <UNDEFINED> instruction: 00026a1b
    1638:	07820200 			@ <UNDEFINED> instruction: 07820200
    163c:	1d070000 			@ <UNDEFINED> instruction: 1d070000
    1640:	00016b0a 			@ <UNDEFINED> instruction: 00016b0a
    1644:	f8020000 			@ <UNDEFINED> instruction: f8020000
    1648:	07000007 			@ <UNDEFINED> instruction: 07000007
    164c:	01530a1e 			@ <UNDEFINED> instruction: 01530a1e
    1650:	02020000 			@ <UNDEFINED> instruction: 02020000
    1654:	00000886 			@ <UNDEFINED> instruction: 00000886
    1658:	8f0a1f07 			@ <UNDEFINED> instruction: 8f0a1f07
    165c:	04000001 			@ <UNDEFINED> instruction: 04000001
    1660:	00080802 			@ <UNDEFINED> instruction: 00080802
    1664:	0b200700 			@ <UNDEFINED> instruction: 0b200700
    1668:	0000019b 			@ <UNDEFINED> instruction: 0000019b
    166c:	08450208 			@ <UNDEFINED> instruction: 08450208
    1670:	21070000 			@ <UNDEFINED> instruction: 21070000
    1674:	0001770a 			@ <UNDEFINED> instruction: 0001770a
    1678:	c6020a00 			@ <UNDEFINED> instruction: c6020a00
    167c:	07000007 			@ <UNDEFINED> instruction: 07000007
    1680:	01830a22 			@ <UNDEFINED> instruction: 01830a22
    1684:	020c0000 			@ <UNDEFINED> instruction: 020c0000
    1688:	0000074d 			@ <UNDEFINED> instruction: 0000074d
    168c:	6b0a2307 			@ <UNDEFINED> instruction: 6b0a2307
    1690:	0e000001 			@ <UNDEFINED> instruction: 0e000001
    1694:	00084c02 			@ <UNDEFINED> instruction: 00084c02
    1698:	0a240700 			@ <UNDEFINED> instruction: 0a240700
    169c:	0000015f 			@ <UNDEFINED> instruction: 0000015f
    16a0:	081d0210 			@ <UNDEFINED> instruction: 081d0210
    16a4:	34070000 			@ <UNDEFINED> instruction: 34070000
    16a8:	00011413 			@ <UNDEFINED> instruction: 00011413
    16ac:	35021800 			@ <UNDEFINED> instruction: 35021800
    16b0:	07000008 			@ <UNDEFINED> instruction: 07000008
    16b4:	01141335 			@ <UNDEFINED> instruction: 01141335
    16b8:	02280000 			@ <UNDEFINED> instruction: 02280000
    16bc:	0000077a 			@ <UNDEFINED> instruction: 0000077a
    16c0:	14133607 			@ <UNDEFINED> instruction: 14133607
    16c4:	38000001 			@ <UNDEFINED> instruction: 38000001
    16c8:	0007b302 			@ <UNDEFINED> instruction: 0007b302
    16cc:	11370700 			@ <UNDEFINED> instruction: 11370700
    16d0:	00000147 			@ <UNDEFINED> instruction: 00000147
    16d4:	082b0248 			@ <UNDEFINED> instruction: 082b0248
    16d8:	38070000 			@ <UNDEFINED> instruction: 38070000
    16dc:	00013b0c 			@ <UNDEFINED> instruction: 00013b0c
    16e0:	54024c00 			@ <UNDEFINED> instruction: 54024c00
    16e4:	07000008 			@ <UNDEFINED> instruction: 07000008
    16e8:	026a093a 			@ <UNDEFINED> instruction: 026a093a
    16ec:	00500000 			@ <UNDEFINED> instruction: 00500000
    16f0:	0000500e 			@ <UNDEFINED> instruction: 0000500e
    16f4:	00027a00 			@ <UNDEFINED> instruction: 00027a00
    16f8:	002d0f00 			@ <UNDEFINED> instruction: 002d0f00
    16fc:	00010000 			@ <UNDEFINED> instruction: 00010000
    1700:	0008a210 			@ <UNDEFINED> instruction: 0008a210
    1704:	0d130800 			@ <UNDEFINED> instruction: 0d130800
    1708:	00000286 			@ <UNDEFINED> instruction: 00000286
    170c:	00007d08 			@ <UNDEFINED> instruction: 00007d08
    1710:	07e11100 			@ <UNDEFINED> instruction: 07e11100
    1714:	09090000 			@ <UNDEFINED> instruction: 09090000
    1718:	00029d0d 			@ <UNDEFINED> instruction: 00029d0d
    171c:	01011200 			@ <UNDEFINED> instruction: 01011200
    1720:	04000000 			@ <UNDEFINED> instruction: 04000000
    1724:	00000790 			@ <UNDEFINED> instruction: 00000790
    1728:	00007d42 			@ <UNDEFINED> instruction: 00007d42
    172c:	0002f000 			@ <UNDEFINED> instruction: 0002f000
    1730:	00001008 			@ <UNDEFINED> instruction: 00001008
    1734:	e59c0100 			@ <UNDEFINED> instruction: e59c0100
    1738:	06000002 			@ <UNDEFINED> instruction: 06000002
    173c:	00646970 			@ <UNDEFINED> instruction: 00646970
    1740:	007d0f42 			@ <UNDEFINED> instruction: 007d0f42
    1744:	00580000 			@ <UNDEFINED> instruction: 00580000
    1748:	00540000 			@ <UNDEFINED> instruction: 00540000
    174c:	73060000 	movwvc	r0, #24576	@ 0x6000
    1750:	42006769 			@ <UNDEFINED> instruction: 42006769
    1754:	00007d18 			@ <UNDEFINED> instruction: 00007d18
    1758:	00007100 			@ <UNDEFINED> instruction: 00007100
    175c:	00006d00 			@ <UNDEFINED> instruction: 00006d00
    1760:	02f60a00 			@ <UNDEFINED> instruction: 02f60a00
    1764:	027a0800 			@ <UNDEFINED> instruction: 027a0800
    1768:	13000000 	movwne	r0, #0
    176c:	0000079b 			@ <UNDEFINED> instruction: 0000079b
    1770:	7d053d01 			@ <UNDEFINED> instruction: 7d053d01
    1774:	ec000000 			@ <UNDEFINED> instruction: ec000000
    1778:	04080002 			@ <UNDEFINED> instruction: 04080002
    177c:	01000000 			@ <UNDEFINED> instruction: 01000000
    1780:	07be049c 			@ <UNDEFINED> instruction: 07be049c
    1784:	7d380000 			@ <UNDEFINED> instruction: 7d380000
    1788:	e8000000 			@ <UNDEFINED> instruction: e8000000
    178c:	04080002 			@ <UNDEFINED> instruction: 04080002
    1790:	01000000 			@ <UNDEFINED> instruction: 01000000
    1794:	0003279c 			@ <UNDEFINED> instruction: 0003279c
    1798:	059d0500 			@ <UNDEFINED> instruction: 059d0500
    179c:	11380000 			@ <UNDEFINED> instruction: 11380000
    17a0:	0000007d 			@ <UNDEFINED> instruction: 0000007d
    17a4:	0000008a 			@ <UNDEFINED> instruction: 0000008a
    17a8:	00000086 			@ <UNDEFINED> instruction: 00000086
    17ac:	07890400 			@ <UNDEFINED> instruction: 07890400
    17b0:	7d320000 			@ <UNDEFINED> instruction: 7d320000
    17b4:	dc000000 			@ <UNDEFINED> instruction: dc000000
    17b8:	0a080002 			@ <UNDEFINED> instruction: 0a080002
    17bc:	01000000 			@ <UNDEFINED> instruction: 01000000
    17c0:	00035f9c 			@ <UNDEFINED> instruction: 00035f9c
    17c4:	059d0500 			@ <UNDEFINED> instruction: 059d0500
    17c8:	10320000 			@ <UNDEFINED> instruction: 10320000
    17cc:	0000007d 			@ <UNDEFINED> instruction: 0000007d
    17d0:	000000a2 			@ <UNDEFINED> instruction: 000000a2
    17d4:	0000009e 			@ <UNDEFINED> instruction: 0000009e
    17d8:	00747307 			@ <UNDEFINED> instruction: 00747307
    17dc:	035f2332 			@ <UNDEFINED> instruction: 035f2332
    17e0:	51010000 			@ <UNDEFINED> instruction: 51010000
    17e4:	01a70800 			@ <UNDEFINED> instruction: 01a70800
    17e8:	4d040000 			@ <UNDEFINED> instruction: 4d040000
    17ec:	2d000005 			@ <UNDEFINED> instruction: 2d000005
    17f0:	0000007d 			@ <UNDEFINED> instruction: 0000007d
    17f4:	080002d4 			@ <UNDEFINED> instruction: 080002d4
    17f8:	00000006 			@ <UNDEFINED> instruction: 00000006
    17fc:	03909c01 			@ <UNDEFINED> instruction: 03909c01
    1800:	9d050000 			@ <UNDEFINED> instruction: 9d050000
    1804:	2d000005 			@ <UNDEFINED> instruction: 2d000005
    1808:	00007d10 			@ <UNDEFINED> instruction: 00007d10
    180c:	0000ba00 			@ <UNDEFINED> instruction: 0000ba00
    1810:	0000b600 			@ <UNDEFINED> instruction: 0000b600
    1814:	5e040000 			@ <UNDEFINED> instruction: 5e040000
    1818:	28000008 			@ <UNDEFINED> instruction: 28000008
    181c:	0000007d 			@ <UNDEFINED> instruction: 0000007d
    1820:	080002d0 			@ <UNDEFINED> instruction: 080002d0
    1824:	00000004 			@ <UNDEFINED> instruction: 00000004
    1828:	03d69c01 			@ <UNDEFINED> instruction: 03d69c01
    182c:	9d050000 			@ <UNDEFINED> instruction: 9d050000
    1830:	28000005 			@ <UNDEFINED> instruction: 28000005
    1834:	00007d10 			@ <UNDEFINED> instruction: 00007d10
    1838:	0000d200 			@ <UNDEFINED> instruction: 0000d200
    183c:	0000ce00 			@ <UNDEFINED> instruction: 0000ce00
    1840:	74700700 			@ <UNDEFINED> instruction: 74700700
    1844:	1a280072 			@ <UNDEFINED> instruction: 1a280072
    1848:	0000007d 			@ <UNDEFINED> instruction: 0000007d
    184c:	64075101 			@ <UNDEFINED> instruction: 64075101
    1850:	28007269 			@ <UNDEFINED> instruction: 28007269
    1854:	00007d23 			@ <UNDEFINED> instruction: 00007d23
    1858:	00520100 			@ <UNDEFINED> instruction: 00520100
    185c:	0003cb04 			@ <UNDEFINED> instruction: 0003cb04
    1860:	007d2300 			@ <UNDEFINED> instruction: 007d2300
    1864:	02cc0000 			@ <UNDEFINED> instruction: 02cc0000
    1868:	00040800 			@ <UNDEFINED> instruction: 00040800
    186c:	9c010000 			@ <UNDEFINED> instruction: 9c010000
    1870:	0000041c 			@ <UNDEFINED> instruction: 0000041c
    1874:	00059d05 			@ <UNDEFINED> instruction: 00059d05
    1878:	7d0f2300 			@ <UNDEFINED> instruction: 7d0f2300
    187c:	ea000000 			@ <UNDEFINED> instruction: ea000000
    1880:	e6000000 			@ <UNDEFINED> instruction: e6000000
    1884:	07000000 			@ <UNDEFINED> instruction: 07000000
    1888:	00727470 			@ <UNDEFINED> instruction: 00727470
    188c:	00fc1b23 			@ <UNDEFINED> instruction: 00fc1b23
    1890:	51010000 			@ <UNDEFINED> instruction: 51010000
    1894:	6e656c07 			@ <UNDEFINED> instruction: 6e656c07
    1898:	7d242300 			@ <UNDEFINED> instruction: 7d242300
    189c:	01000000 			@ <UNDEFINED> instruction: 01000000
    18a0:	e9040052 			@ <UNDEFINED> instruction: e9040052
    18a4:	19000005 			@ <UNDEFINED> instruction: 19000005
    18a8:	0000007d 			@ <UNDEFINED> instruction: 0000007d
    18ac:	080002b0 			@ <UNDEFINED> instruction: 080002b0
    18b0:	0000001a 			@ <UNDEFINED> instruction: 0000001a
    18b4:	04889c01 			@ <UNDEFINED> instruction: 04889c01
    18b8:	9d050000 			@ <UNDEFINED> instruction: 9d050000
    18bc:	19000005 			@ <UNDEFINED> instruction: 19000005
    18c0:	00007d10 			@ <UNDEFINED> instruction: 00007d10
    18c4:	00010200 			@ <UNDEFINED> instruction: 00010200
    18c8:	0000fe00 			@ <UNDEFINED> instruction: 0000fe00
    18cc:	74700600 			@ <UNDEFINED> instruction: 74700600
    18d0:	1c190072 			@ <UNDEFINED> instruction: 1c190072
    18d4:	000000fc 	strdeq	r0, [r0], -ip
    18d8:	0000011e 			@ <UNDEFINED> instruction: 0000011e
    18dc:	00000116 			@ <UNDEFINED> instruction: 00000116
    18e0:	6e656c06 			@ <UNDEFINED> instruction: 6e656c06
    18e4:	7d251900 			@ <UNDEFINED> instruction: 7d251900
    18e8:	39000000 			@ <UNDEFINED> instruction: 39000000
    18ec:	35000001 			@ <UNDEFINED> instruction: 35000001
    18f0:	14000001 			@ <UNDEFINED> instruction: 14000001
    18f4:	0000002f 			@ <UNDEFINED> instruction: 0000002f
    18f8:	01006915 			@ <UNDEFINED> instruction: 01006915
    18fc:	007d0e1b 			@ <UNDEFINED> instruction: 007d0e1b
    1900:	0a000000 			@ <UNDEFINED> instruction: 0a000000
    1904:	080002c2 			@ <UNDEFINED> instruction: 080002c2
    1908:	0000028b 			@ <UNDEFINED> instruction: 0000028b
    190c:	25160000 			@ <UNDEFINED> instruction: 25160000
    1910:	01000008 			@ <UNDEFINED> instruction: 01000008
    1914:	00fc0806 			@ <UNDEFINED> instruction: 00fc0806
    1918:	02780000 			@ <UNDEFINED> instruction: 02780000
    191c:	00380800 			@ <UNDEFINED> instruction: 00380800
    1920:	9c010000 			@ <UNDEFINED> instruction: 9c010000
    1924:	636e6906 			@ <UNDEFINED> instruction: 636e6906
    1928:	7d120600 			@ <UNDEFINED> instruction: 7d120600
    192c:	4c000000 			@ <UNDEFINED> instruction: 4c000000
    1930:	44000001 			@ <UNDEFINED> instruction: 44000001
    1934:	17000001 			@ <UNDEFINED> instruction: 17000001
    1938:	0000075d 			@ <UNDEFINED> instruction: 0000075d
    193c:	3b170801 			@ <UNDEFINED> instruction: 3b170801
    1940:	18000000 			@ <UNDEFINED> instruction: 18000000
    1944:	00000796 			@ <UNDEFINED> instruction: 00000796
    1948:	fc100901 	ldc2	9, cr0, [r0], {1}	@ <UNPREDICTABLE>
    194c:	05000000 			@ <UNDEFINED> instruction: 05000000
    1950:	0001cc03 			@ <UNDEFINED> instruction: 0001cc03
    1954:	07ff0b20 			@ <UNDEFINED> instruction: 07ff0b20
    1958:	fc0b0000 	stc2	0, cr0, [fp], {-0}
    195c:	6e000000 			@ <UNDEFINED> instruction: 6e000000
    1960:	6c000001 			@ <UNDEFINED> instruction: 6c000001
    1964:	0b000001 			@ <UNDEFINED> instruction: 0b000001
    1968:	0000088e 			@ <UNDEFINED> instruction: 0000088e
    196c:	0000fc0c 			@ <UNDEFINED> instruction: 0000fc0c
    1970:	00017c00 			@ <UNDEFINED> instruction: 00017c00
    1974:	00017800 			@ <UNDEFINED> instruction: 00017800
    1978:	48000000 			@ <UNDEFINED> instruction: 48000000
    197c:	05000005 			@ <UNDEFINED> instruction: 05000005
    1980:	be040100 			@ <UNDEFINED> instruction: be040100
    1984:	0e000006 			@ <UNDEFINED> instruction: 0e000006
    1988:	000001cf 			@ <UNDEFINED> instruction: 000001cf
    198c:	00091a0c 			@ <UNDEFINED> instruction: 00091a0c
    1990:	0000f700 			@ <UNDEFINED> instruction: 0000f700
    1994:	00030000 			@ <UNDEFINED> instruction: 00030000
    1998:	00008408 			@ <UNDEFINED> instruction: 00008408
    199c:	0009f800 			@ <UNDEFINED> instruction: 0009f800
    19a0:	06010200 			@ <UNDEFINED> instruction: 06010200
    19a4:	0000009f 			@ <UNDEFINED> instruction: 0000009f
    19a8:	00063e08 			@ <UNDEFINED> instruction: 00063e08
    19ac:	182b0200 			@ <UNDEFINED> instruction: 182b0200
    19b0:	00000039 			@ <UNDEFINED> instruction: 00000039
    19b4:	9d080102 			@ <UNDEFINED> instruction: 9d080102
    19b8:	02000000 			@ <UNDEFINED> instruction: 02000000
    19bc:	01a50502 			@ <UNDEFINED> instruction: 01a50502
    19c0:	02020000 			@ <UNDEFINED> instruction: 02020000
    19c4:	00028e07 			@ <UNDEFINED> instruction: 00028e07
    19c8:	05040200 			@ <UNDEFINED> instruction: 05040200
    19cc:	00000005 			@ <UNDEFINED> instruction: 00000005
    19d0:	0000e408 			@ <UNDEFINED> instruction: 0000e408
    19d4:	194f0200 			@ <UNDEFINED> instruction: 194f0200
    19d8:	00000061 			@ <UNDEFINED> instruction: 00000061
    19dc:	61070402 			@ <UNDEFINED> instruction: 61070402
    19e0:	02000001 			@ <UNDEFINED> instruction: 02000001
    19e4:	00000508 			@ <UNDEFINED> instruction: 00000508
    19e8:	08020000 			@ <UNDEFINED> instruction: 08020000
    19ec:	00015c07 			@ <UNDEFINED> instruction: 00015c07
    19f0:	05040f00 			@ <UNDEFINED> instruction: 05040f00
    19f4:	00746e69 			@ <UNDEFINED> instruction: 00746e69
    19f8:	66070402 			@ <UNDEFINED> instruction: 66070402
    19fc:	08000001 			@ <UNDEFINED> instruction: 08000001
    1a00:	00000640 			@ <UNDEFINED> instruction: 00000640
    1a04:	2d131803 			@ <UNDEFINED> instruction: 2d131803
    1a08:	07000000 			@ <UNDEFINED> instruction: 07000000
    1a0c:	00000084 			@ <UNDEFINED> instruction: 00000084
    1a10:	00008406 			@ <UNDEFINED> instruction: 00008406
    1a14:	00e60800 			@ <UNDEFINED> instruction: 00e60800
    1a18:	30030000 			@ <UNDEFINED> instruction: 30030000
    1a1c:	00005514 			@ <UNDEFINED> instruction: 00005514
    1a20:	009a0700 			@ <UNDEFINED> instruction: 009a0700
    1a24:	a6060000 			@ <UNDEFINED> instruction: a6060000
    1a28:	0c000000 			@ <UNDEFINED> instruction: 0c000000
    1a2c:	01c9048c 			@ <UNDEFINED> instruction: 01c9048c
    1a30:	000001e0 			@ <UNDEFINED> instruction: 000001e0
    1a34:	0004a301 			@ <UNDEFINED> instruction: 0004a301
    1a38:	01cb0400 			@ <UNDEFINED> instruction: 01cb0400
    1a3c:	0000ab12 			@ <UNDEFINED> instruction: 0000ab12
    1a40:	75010000 			@ <UNDEFINED> instruction: 75010000
    1a44:	04000006 			@ <UNDEFINED> instruction: 04000006
    1a48:	a61201cc 			@ <UNDEFINED> instruction: a61201cc
    1a4c:	04000000 			@ <UNDEFINED> instruction: 04000000
    1a50:	00066b01 			@ <UNDEFINED> instruction: 00066b01
    1a54:	01cd0400 			@ <UNDEFINED> instruction: 01cd0400
    1a58:	0000a612 			@ <UNDEFINED> instruction: 0000a612
    1a5c:	38010800 			@ <UNDEFINED> instruction: 38010800
    1a60:	04000005 			@ <UNDEFINED> instruction: 04000005
    1a64:	a61201ce 			@ <UNDEFINED> instruction: a61201ce
    1a68:	0c000000 			@ <UNDEFINED> instruction: 0c000000
    1a6c:	52435303 			@ <UNDEFINED> instruction: 52435303
    1a70:	01cf0400 			@ <UNDEFINED> instruction: 01cf0400
    1a74:	0000a612 			@ <UNDEFINED> instruction: 0000a612
    1a78:	43031000 	movwmi	r1, #12288	@ 0x3000
    1a7c:	04005243 			@ <UNDEFINED> instruction: 04005243
    1a80:	a61201d0 			@ <UNDEFINED> instruction: a61201d0
    1a84:	14000000 			@ <UNDEFINED> instruction: 14000000
    1a88:	50485303 			@ <UNDEFINED> instruction: 50485303
    1a8c:	01d10400 			@ <UNDEFINED> instruction: 01d10400
    1a90:	0001f012 			@ <UNDEFINED> instruction: 0001f012
    1a94:	f6011800 			@ <UNDEFINED> instruction: f6011800
    1a98:	04000005 			@ <UNDEFINED> instruction: 04000005
    1a9c:	a61201d2 			@ <UNDEFINED> instruction: a61201d2
    1aa0:	24000000 			@ <UNDEFINED> instruction: 24000000
    1aa4:	00058801 			@ <UNDEFINED> instruction: 00058801
    1aa8:	01d30400 			@ <UNDEFINED> instruction: 01d30400
    1aac:	0000a612 			@ <UNDEFINED> instruction: 0000a612
    1ab0:	ff012800 			@ <UNDEFINED> instruction: ff012800
    1ab4:	04000004 			@ <UNDEFINED> instruction: 04000004
    1ab8:	a61201d4 			@ <UNDEFINED> instruction: a61201d4
    1abc:	2c000000 			@ <UNDEFINED> instruction: 2c000000
    1ac0:	00039701 			@ <UNDEFINED> instruction: 00039701
    1ac4:	01d50400 			@ <UNDEFINED> instruction: 01d50400
    1ac8:	0000a612 			@ <UNDEFINED> instruction: 0000a612
    1acc:	f0013000 			@ <UNDEFINED> instruction: f0013000
    1ad0:	04000005 			@ <UNDEFINED> instruction: 04000005
    1ad4:	a61201d6 			@ <UNDEFINED> instruction: a61201d6
    1ad8:	34000000 			@ <UNDEFINED> instruction: 34000000
    1adc:	00066601 			@ <UNDEFINED> instruction: 00066601
    1ae0:	01d70400 			@ <UNDEFINED> instruction: 01d70400
    1ae4:	0000a612 			@ <UNDEFINED> instruction: 0000a612
    1ae8:	ed013800 			@ <UNDEFINED> instruction: ed013800
    1aec:	04000004 			@ <UNDEFINED> instruction: 04000004
    1af0:	a61201d8 			@ <UNDEFINED> instruction: a61201d8
    1af4:	3c000000 			@ <UNDEFINED> instruction: 3c000000
    1af8:	52465003 			@ <UNDEFINED> instruction: 52465003
    1afc:	01d90400 			@ <UNDEFINED> instruction: 01d90400
    1b00:	00020a12 			@ <UNDEFINED> instruction: 00020a12
    1b04:	44034000 			@ <UNDEFINED> instruction: 44034000
    1b08:	04005246 			@ <UNDEFINED> instruction: 04005246
    1b0c:	ab1201da 			@ <UNDEFINED> instruction: ab1201da
    1b10:	48000000 			@ <UNDEFINED> instruction: 48000000
    1b14:	52444103 			@ <UNDEFINED> instruction: 52444103
    1b18:	01db0400 			@ <UNDEFINED> instruction: 01db0400
    1b1c:	0000ab12 			@ <UNDEFINED> instruction: 0000ab12
    1b20:	22014c00 			@ <UNDEFINED> instruction: 22014c00
    1b24:	04000004 			@ <UNDEFINED> instruction: 04000004
    1b28:	241201dc 			@ <UNDEFINED> instruction: 241201dc
    1b2c:	50000002 			@ <UNDEFINED> instruction: 50000002
    1b30:	0006fe01 			@ <UNDEFINED> instruction: 0006fe01
    1b34:	01dd0400 			@ <UNDEFINED> instruction: 01dd0400
    1b38:	00023e12 			@ <UNDEFINED> instruction: 00023e12
    1b3c:	42016000 			@ <UNDEFINED> instruction: 42016000
    1b40:	04000000 			@ <UNDEFINED> instruction: 04000000
    1b44:	431201de 			@ <UNDEFINED> instruction: 431201de
    1b48:	74000002 			@ <UNDEFINED> instruction: 74000002
    1b4c:	00034d01 			@ <UNDEFINED> instruction: 00034d01
    1b50:	01df0400 			@ <UNDEFINED> instruction: 01df0400
    1b54:	0000a612 			@ <UNDEFINED> instruction: 0000a612
    1b58:	04008800 			@ <UNDEFINED> instruction: 04008800
    1b5c:	00000090 			@ <UNDEFINED> instruction: 00000090
    1b60:	000001f0 	strdeq	r0, [r0], -r0	@ <UNPREDICTABLE>
    1b64:	00007d05 			@ <UNDEFINED> instruction: 00007d05
    1b68:	07000b00 			@ <UNDEFINED> instruction: 07000b00
    1b6c:	000001e0 			@ <UNDEFINED> instruction: 000001e0
    1b70:	0000ab04 			@ <UNDEFINED> instruction: 0000ab04
    1b74:	00020500 			@ <UNDEFINED> instruction: 00020500
    1b78:	007d0500 			@ <UNDEFINED> instruction: 007d0500
    1b7c:	00010000 			@ <UNDEFINED> instruction: 00010000
    1b80:	0001f506 			@ <UNDEFINED> instruction: 0001f506
    1b84:	02050700 			@ <UNDEFINED> instruction: 02050700
    1b88:	ab040000 			@ <UNDEFINED> instruction: ab040000
    1b8c:	1f000000 			@ <UNDEFINED> instruction: 1f000000
    1b90:	05000002 			@ <UNDEFINED> instruction: 05000002
    1b94:	0000007d 			@ <UNDEFINED> instruction: 0000007d
    1b98:	0f060003 			@ <UNDEFINED> instruction: 0f060003
    1b9c:	07000002 			@ <UNDEFINED> instruction: 07000002
    1ba0:	0000021f 			@ <UNDEFINED> instruction: 0000021f
    1ba4:	0000ab04 			@ <UNDEFINED> instruction: 0000ab04
    1ba8:	00023900 			@ <UNDEFINED> instruction: 00023900
    1bac:	007d0500 			@ <UNDEFINED> instruction: 007d0500
    1bb0:	00040000 			@ <UNDEFINED> instruction: 00040000
    1bb4:	00022906 			@ <UNDEFINED> instruction: 00022906
    1bb8:	02390700 			@ <UNDEFINED> instruction: 02390700
    1bbc:	9a040000 			@ <UNDEFINED> instruction: 9a040000
    1bc0:	53000000 	movwpl	r0, #0
    1bc4:	05000002 			@ <UNDEFINED> instruction: 05000002
    1bc8:	0000007d 			@ <UNDEFINED> instruction: 0000007d
    1bcc:	4d0d0004 			@ <UNDEFINED> instruction: 4d0d0004
    1bd0:	04000006 			@ <UNDEFINED> instruction: 04000006
    1bd4:	00b001e0 			@ <UNDEFINED> instruction: 00b001e0
    1bd8:	9a040000 			@ <UNDEFINED> instruction: 9a040000
    1bdc:	6f000000 			@ <UNDEFINED> instruction: 6f000000
    1be0:	05000002 			@ <UNDEFINED> instruction: 05000002
    1be4:	0000007d 			@ <UNDEFINED> instruction: 0000007d
    1be8:	9a040000 			@ <UNDEFINED> instruction: 9a040000
    1bec:	7f000000 			@ <UNDEFINED> instruction: 7f000000
    1bf0:	05000002 			@ <UNDEFINED> instruction: 05000002
    1bf4:	0000007d 			@ <UNDEFINED> instruction: 0000007d
    1bf8:	fc0a0001 	stc2	0, cr0, [sl], {1}
    1bfc:	39000008 			@ <UNDEFINED> instruction: 39000008
    1c00:	00009a11 			@ <UNDEFINED> instruction: 00009a11
    1c04:	00950400 			@ <UNDEFINED> instruction: 00950400
    1c08:	029a0000 			@ <UNDEFINED> instruction: 029a0000
    1c0c:	7d050000 			@ <UNDEFINED> instruction: 7d050000
    1c10:	0f000000 			@ <UNDEFINED> instruction: 0f000000
    1c14:	028a0600 			@ <UNDEFINED> instruction: 028a0600
    1c18:	0c0a0000 			@ <UNDEFINED> instruction: 0c0a0000
    1c1c:	3b000009 			@ <UNDEFINED> instruction: 3b000009
    1c20:	00029a17 			@ <UNDEFINED> instruction: 00029a17
    1c24:	00950400 			@ <UNDEFINED> instruction: 00950400
    1c28:	02ba0000 			@ <UNDEFINED> instruction: 02ba0000
    1c2c:	7d050000 			@ <UNDEFINED> instruction: 7d050000
    1c30:	07000000 			@ <UNDEFINED> instruction: 07000000
    1c34:	02aa0600 			@ <UNDEFINED> instruction: 02aa0600
    1c38:	d10a0000 			@ <UNDEFINED> instruction: d10a0000
    1c3c:	3c000008 			@ <UNDEFINED> instruction: 3c000008
    1c40:	0002ba17 			@ <UNDEFINED> instruction: 0002ba17
    1c44:	06900c00 			@ <UNDEFINED> instruction: 06900c00
    1c48:	04930150 			@ <UNDEFINED> instruction: 04930150
    1c4c:	43030000 	movwmi	r0, #12288	@ 0x3000
    1c50:	52060052 			@ <UNDEFINED> instruction: 52060052
    1c54:	00a61101 			@ <UNDEFINED> instruction: 00a61101
    1c58:	01000000 			@ <UNDEFINED> instruction: 01000000
    1c5c:	000000c4 			@ <UNDEFINED> instruction: 000000c4
    1c60:	11015306 			@ <UNDEFINED> instruction: 11015306
    1c64:	000000a6 			@ <UNDEFINED> instruction: 000000a6
    1c68:	00bf0104 			@ <UNDEFINED> instruction: 00bf0104
    1c6c:	54060000 			@ <UNDEFINED> instruction: 54060000
    1c70:	00a61101 			@ <UNDEFINED> instruction: 00a61101
    1c74:	03080000 	movweq	r0, #32768	@ 0x8000
    1c78:	00524943 			@ <UNDEFINED> instruction: 00524943
    1c7c:	11015506 			@ <UNDEFINED> instruction: 11015506
    1c80:	000000a6 			@ <UNDEFINED> instruction: 000000a6
    1c84:	0187010c 			@ <UNDEFINED> instruction: 0187010c
    1c88:	56060000 			@ <UNDEFINED> instruction: 56060000
    1c8c:	00a61101 			@ <UNDEFINED> instruction: 00a61101
    1c90:	01100000 			@ <UNDEFINED> instruction: 01100000
    1c94:	00000285 			@ <UNDEFINED> instruction: 00000285
    1c98:	11015706 			@ <UNDEFINED> instruction: 11015706
    1c9c:	000000a6 			@ <UNDEFINED> instruction: 000000a6
    1ca0:	00390114 			@ <UNDEFINED> instruction: 00390114
    1ca4:	58060000 			@ <UNDEFINED> instruction: 58060000
    1ca8:	00a61101 			@ <UNDEFINED> instruction: 00a61101
    1cac:	01180000 			@ <UNDEFINED> instruction: 01180000
    1cb0:	00000042 			@ <UNDEFINED> instruction: 00000042
    1cb4:	11015906 			@ <UNDEFINED> instruction: 11015906
    1cb8:	0000009a 			@ <UNDEFINED> instruction: 0000009a
    1cbc:	0094011c 			@ <UNDEFINED> instruction: 0094011c
    1cc0:	5a060000 			@ <UNDEFINED> instruction: 5a060000
    1cc4:	00a61101 			@ <UNDEFINED> instruction: 00a61101
    1cc8:	01200000 			@ <UNDEFINED> instruction: 01200000
    1ccc:	00000148 			@ <UNDEFINED> instruction: 00000148
    1cd0:	11015b06 			@ <UNDEFINED> instruction: 11015b06
    1cd4:	000000a6 			@ <UNDEFINED> instruction: 000000a6
    1cd8:	004c0124 			@ <UNDEFINED> instruction: 004c0124
    1cdc:	5c060000 			@ <UNDEFINED> instruction: 5c060000
    1ce0:	026f1101 			@ <UNDEFINED> instruction: 026f1101
    1ce4:	01280000 			@ <UNDEFINED> instruction: 01280000
    1ce8:	00000013 			@ <UNDEFINED> instruction: 00000013
    1cec:	11015d06 			@ <UNDEFINED> instruction: 11015d06
    1cf0:	000000a6 			@ <UNDEFINED> instruction: 000000a6
    1cf4:	00840130 			@ <UNDEFINED> instruction: 00840130
    1cf8:	5e060000 			@ <UNDEFINED> instruction: 5e060000
    1cfc:	00a61101 			@ <UNDEFINED> instruction: 00a61101
    1d00:	01340000 			@ <UNDEFINED> instruction: 01340000
    1d04:	000000d4 	ldrdeq	r0, [r0], -r4
    1d08:	11015f06 			@ <UNDEFINED> instruction: 11015f06
    1d0c:	000000a6 			@ <UNDEFINED> instruction: 000000a6
    1d10:	00560138 			@ <UNDEFINED> instruction: 00560138
    1d14:	60060000 			@ <UNDEFINED> instruction: 60060000
    1d18:	009a1101 			@ <UNDEFINED> instruction: 009a1101
    1d1c:	013c0000 			@ <UNDEFINED> instruction: 013c0000
    1d20:	000000ef 			@ <UNDEFINED> instruction: 000000ef
    1d24:	11016106 			@ <UNDEFINED> instruction: 11016106
    1d28:	000000a6 			@ <UNDEFINED> instruction: 000000a6
    1d2c:	00dc0140 			@ <UNDEFINED> instruction: 00dc0140
    1d30:	62060000 			@ <UNDEFINED> instruction: 62060000
    1d34:	00a61101 			@ <UNDEFINED> instruction: 00a61101
    1d38:	01440000 			@ <UNDEFINED> instruction: 01440000
    1d3c:	00000060 			@ <UNDEFINED> instruction: 00000060
    1d40:	11016306 			@ <UNDEFINED> instruction: 11016306
    1d44:	0000026f 			@ <UNDEFINED> instruction: 0000026f
    1d48:	002f0148 			@ <UNDEFINED> instruction: 002f0148
    1d4c:	64060000 			@ <UNDEFINED> instruction: 64060000
    1d50:	00a61101 			@ <UNDEFINED> instruction: 00a61101
    1d54:	01500000 			@ <UNDEFINED> instruction: 01500000
    1d58:	000000b2 			@ <UNDEFINED> instruction: 000000b2
    1d5c:	11016506 			@ <UNDEFINED> instruction: 11016506
    1d60:	000000a6 			@ <UNDEFINED> instruction: 000000a6
    1d64:	01900154 			@ <UNDEFINED> instruction: 01900154
    1d68:	66060000 			@ <UNDEFINED> instruction: 66060000
    1d6c:	00a61101 			@ <UNDEFINED> instruction: 00a61101
    1d70:	01580000 			@ <UNDEFINED> instruction: 01580000
    1d74:	0000006a 			@ <UNDEFINED> instruction: 0000006a
    1d78:	11016706 			@ <UNDEFINED> instruction: 11016706
    1d7c:	0000009a 			@ <UNDEFINED> instruction: 0000009a
    1d80:	0173015c 			@ <UNDEFINED> instruction: 0173015c
    1d84:	68060000 			@ <UNDEFINED> instruction: 68060000
    1d88:	00a61101 			@ <UNDEFINED> instruction: 00a61101
    1d8c:	01600000 			@ <UNDEFINED> instruction: 01600000
    1d90:	000001b9 			@ <UNDEFINED> instruction: 000001b9
    1d94:	11016906 			@ <UNDEFINED> instruction: 11016906
    1d98:	000000a6 			@ <UNDEFINED> instruction: 000000a6
    1d9c:	00740164 			@ <UNDEFINED> instruction: 00740164
    1da0:	6a060000 			@ <UNDEFINED> instruction: 6a060000
    1da4:	026f1101 			@ <UNDEFINED> instruction: 026f1101
    1da8:	01680000 			@ <UNDEFINED> instruction: 01680000
    1dac:	0000000e 			@ <UNDEFINED> instruction: 0000000e
    1db0:	11016b06 			@ <UNDEFINED> instruction: 11016b06
    1db4:	000000a6 			@ <UNDEFINED> instruction: 000000a6
    1db8:	53430370 	movtpl	r0, #13168	@ 0x3370
    1dbc:	6c060052 			@ <UNDEFINED> instruction: 6c060052
    1dc0:	00a61101 			@ <UNDEFINED> instruction: 00a61101
    1dc4:	01740000 			@ <UNDEFINED> instruction: 01740000
    1dc8:	000001af 			@ <UNDEFINED> instruction: 000001af
    1dcc:	11016d06 			@ <UNDEFINED> instruction: 11016d06
    1dd0:	0000026f 			@ <UNDEFINED> instruction: 0000026f
    1dd4:	001b0178 			@ <UNDEFINED> instruction: 001b0178
    1dd8:	6e060000 			@ <UNDEFINED> instruction: 6e060000
    1ddc:	00a61101 			@ <UNDEFINED> instruction: 00a61101
    1de0:	01800000 			@ <UNDEFINED> instruction: 01800000
    1de4:	00000151 			@ <UNDEFINED> instruction: 00000151
    1de8:	11016f06 			@ <UNDEFINED> instruction: 11016f06
    1dec:	000000a6 			@ <UNDEFINED> instruction: 000000a6
    1df0:	017d0184 			@ <UNDEFINED> instruction: 017d0184
    1df4:	70060000 			@ <UNDEFINED> instruction: 70060000
    1df8:	025f1101 			@ <UNDEFINED> instruction: 025f1101
    1dfc:	01880000 			@ <UNDEFINED> instruction: 01880000
    1e00:	000000bc 			@ <UNDEFINED> instruction: 000000bc
    1e04:	11017106 			@ <UNDEFINED> instruction: 11017106
    1e08:	000000a6 			@ <UNDEFINED> instruction: 000000a6
    1e0c:	c30d008c 	movwgt	r0, #53388	@ 0xd08c
    1e10:	06000001 			@ <UNDEFINED> instruction: 06000001
    1e14:	02ca0172 			@ <UNDEFINED> instruction: 02ca0172
    1e18:	7f0b0000 			@ <UNDEFINED> instruction: 7f0b0000
    1e1c:	89000002 			@ <UNDEFINED> instruction: 89000002
    1e20:	0003050a 			@ <UNDEFINED> instruction: 0003050a
    1e24:	0b200000 			@ <UNDEFINED> instruction: 0b200000
    1e28:	0000029f 			@ <UNDEFINED> instruction: 0000029f
    1e2c:	03050f8a 	movweq	r0, #24458	@ 0x5f8a
    1e30:	08004b10 			@ <UNDEFINED> instruction: 08004b10
    1e34:	0002bf0b 			@ <UNDEFINED> instruction: 0002bf0b
    1e38:	050f8b00 			@ <UNDEFINED> instruction: 050f8b00
    1e3c:	004b2003 			@ <UNDEFINED> instruction: 004b2003
    1e40:	08e61008 			@ <UNDEFINED> instruction: 08e61008
    1e44:	dc010000 			@ <UNDEFINED> instruction: dc010000
    1e48:	00031406 			@ <UNDEFINED> instruction: 00031406
    1e4c:	00007008 			@ <UNDEFINED> instruction: 00007008
    1e50:	399c0100 			@ <UNDEFINED> instruction: 399c0100
    1e54:	11000005 			@ <UNDEFINED> instruction: 11000005
    1e58:	00706d74 			@ <UNDEFINED> instruction: 00706d74
    1e5c:	9a0cde01 			@ <UNDEFINED> instruction: 9a0cde01
    1e60:	ac000000 			@ <UNDEFINED> instruction: ac000000
    1e64:	a4000001 			@ <UNDEFINED> instruction: a4000001
    1e68:	09000001 			@ <UNDEFINED> instruction: 09000001
    1e6c:	000008df 	ldrdeq	r0, [r0], -pc	@ <UNPREDICTABLE>
    1e70:	00009a11 			@ <UNDEFINED> instruction: 00009a11
    1e74:	0001d400 			@ <UNDEFINED> instruction: 0001d400
    1e78:	0001d200 			@ <UNDEFINED> instruction: 0001d200
    1e7c:	08cc0900 			@ <UNDEFINED> instruction: 08cc0900
    1e80:	9a190000 			@ <UNDEFINED> instruction: 9a190000
    1e84:	dc000000 			@ <UNDEFINED> instruction: dc000000
    1e88:	da000001 			@ <UNDEFINED> instruction: da000001
    1e8c:	09000001 			@ <UNDEFINED> instruction: 09000001
    1e90:	000008bd 			@ <UNDEFINED> instruction: 000008bd
    1e94:	00009a1f 			@ <UNDEFINED> instruction: 00009a1f
    1e98:	0001ee00 			@ <UNDEFINED> instruction: 0001ee00
    1e9c:	0001ec00 			@ <UNDEFINED> instruction: 0001ec00
    1ea0:	08c70900 			@ <UNDEFINED> instruction: 08c70900
    1ea4:	9a2a0000 			@ <UNDEFINED> instruction: 9a2a0000
    1ea8:	fc000000 	stc2	0, cr0, [r0], {-0}
    1eac:	fa000001 	blx	1eb8 <__RW_SIZE__+0x1cec>
    1eb0:	00000001 			@ <UNDEFINED> instruction: 00000001
    1eb4:	0008b212 			@ <UNDEFINED> instruction: 0008b212
    1eb8:	06a70100 			@ <UNDEFINED> instruction: 06a70100
    1ebc:	08000300 			@ <UNDEFINED> instruction: 08000300
    1ec0:	00000014 			@ <UNDEFINED> instruction: 00000014
    1ec4:	54009c01 			@ <UNDEFINED> instruction: 54009c01
    1ec8:	05000001 			@ <UNDEFINED> instruction: 05000001
    1ecc:	dc040100 			@ <UNDEFINED> instruction: dc040100
    1ed0:	05000007 			@ <UNDEFINED> instruction: 05000007
    1ed4:	000001cf 			@ <UNDEFINED> instruction: 000001cf
    1ed8:	00092d0c 			@ <UNDEFINED> instruction: 00092d0c
    1edc:	0000f700 			@ <UNDEFINED> instruction: 0000f700
    1ee0:	00038400 			@ <UNDEFINED> instruction: 00038400
    1ee4:	00005208 			@ <UNDEFINED> instruction: 00005208
    1ee8:	000bdd00 			@ <UNDEFINED> instruction: 000bdd00
    1eec:	07080100 			@ <UNDEFINED> instruction: 07080100
    1ef0:	0000015c 			@ <UNDEFINED> instruction: 0000015c
    1ef4:	66070401 			@ <UNDEFINED> instruction: 66070401
    1ef8:	01000001 			@ <UNDEFINED> instruction: 01000001
    1efc:	009f0601 			@ <UNDEFINED> instruction: 009f0601
    1f00:	01010000 			@ <UNDEFINED> instruction: 01010000
    1f04:	00009d08 			@ <UNDEFINED> instruction: 00009d08
    1f08:	05020100 			@ <UNDEFINED> instruction: 05020100
    1f0c:	000001a5 			@ <UNDEFINED> instruction: 000001a5
    1f10:	8e070201 			@ <UNDEFINED> instruction: 8e070201
    1f14:	01000002 			@ <UNDEFINED> instruction: 01000002
    1f18:	00050504 			@ <UNDEFINED> instruction: 00050504
    1f1c:	e4040000 			@ <UNDEFINED> instruction: e4040000
    1f20:	02000000 			@ <UNDEFINED> instruction: 02000000
    1f24:	0063194f 			@ <UNDEFINED> instruction: 0063194f
    1f28:	04010000 			@ <UNDEFINED> instruction: 04010000
    1f2c:	00016107 			@ <UNDEFINED> instruction: 00016107
    1f30:	05080100 			@ <UNDEFINED> instruction: 05080100
    1f34:	00000000 			@ <UNDEFINED> instruction: 00000000
    1f38:	69050406 			@ <UNDEFINED> instruction: 69050406
    1f3c:	0400746e 			@ <UNDEFINED> instruction: 0400746e
    1f40:	000000e6 			@ <UNDEFINED> instruction: 000000e6
    1f44:	57143003 			@ <UNDEFINED> instruction: 57143003
    1f48:	07000000 			@ <UNDEFINED> instruction: 07000000
    1f4c:	00000078 			@ <UNDEFINED> instruction: 00000078
    1f50:	00008408 			@ <UNDEFINED> instruction: 00008408
    1f54:	04100900 			@ <UNDEFINED> instruction: 04100900
    1f58:	cb090308 			@ <UNDEFINED> instruction: cb090308
    1f5c:	02000000 			@ <UNDEFINED> instruction: 02000000
    1f60:	0000093d 			@ <UNDEFINED> instruction: 0000093d
    1f64:	0084030a 			@ <UNDEFINED> instruction: 0084030a
    1f68:	02000000 			@ <UNDEFINED> instruction: 02000000
    1f6c:	00000942 			@ <UNDEFINED> instruction: 00000942
    1f70:	0084030b 			@ <UNDEFINED> instruction: 0084030b
    1f74:	0a040000 			@ <UNDEFINED> instruction: 0a040000
    1f78:	004c4156 			@ <UNDEFINED> instruction: 004c4156
    1f7c:	12030c04 			@ <UNDEFINED> instruction: 12030c04
    1f80:	00000084 			@ <UNDEFINED> instruction: 00000084
    1f84:	09370208 			@ <UNDEFINED> instruction: 09370208
    1f88:	030d0000 	movweq	r0, #53248	@ 0xd000
    1f8c:	00000089 			@ <UNDEFINED> instruction: 00000089
    1f90:	470b000c 			@ <UNDEFINED> instruction: 470b000c
    1f94:	04000009 			@ <UNDEFINED> instruction: 04000009
    1f98:	8e03030e 			@ <UNDEFINED> instruction: 8e03030e
    1f9c:	01000000 			@ <UNDEFINED> instruction: 01000000
    1fa0:	00a60801 			@ <UNDEFINED> instruction: 00a60801
    1fa4:	400c0000 			@ <UNDEFINED> instruction: 400c0000
    1fa8:	01000003 			@ <UNDEFINED> instruction: 01000003
    1fac:	03c80624 			@ <UNDEFINED> instruction: 03c80624
    1fb0:	000e0800 			@ <UNDEFINED> instruction: 000e0800
    1fb4:	9c010000 			@ <UNDEFINED> instruction: 9c010000
    1fb8:	0004c103 			@ <UNDEFINED> instruction: 0004c103
    1fbc:	2d0e1d00 			@ <UNDEFINED> instruction: 2d0e1d00
    1fc0:	c0000000 			@ <UNDEFINED> instruction: c0000000
    1fc4:	08080003 			@ <UNDEFINED> instruction: 08080003
    1fc8:	01000000 			@ <UNDEFINED> instruction: 01000000
    1fcc:	039c039c 			@ <UNDEFINED> instruction: 039c039c
    1fd0:	0e160000 			@ <UNDEFINED> instruction: 0e160000
    1fd4:	0000002d 			@ <UNDEFINED> instruction: 0000002d
    1fd8:	080003b8 			@ <UNDEFINED> instruction: 080003b8
    1fdc:	00000008 			@ <UNDEFINED> instruction: 00000008
    1fe0:	fc039c01 	stc2	12, cr9, [r3], {1}
    1fe4:	0f000005 			@ <UNDEFINED> instruction: 0f000005
    1fe8:	00007105 			@ <UNDEFINED> instruction: 00007105
    1fec:	0003ac00 			@ <UNDEFINED> instruction: 0003ac00
    1ff0:	00000c08 			@ <UNDEFINED> instruction: 00000c08
    1ff4:	0d9c0100 			@ <UNDEFINED> instruction: 0d9c0100
    1ff8:	00000711 			@ <UNDEFINED> instruction: 00000711
    1ffc:	84060301 			@ <UNDEFINED> instruction: 84060301
    2000:	28080003 			@ <UNDEFINED> instruction: 28080003
    2004:	01000000 			@ <UNDEFINED> instruction: 01000000
    2008:	09540e9c 			@ <UNDEFINED> instruction: 09540e9c
    200c:	03010000 	movweq	r0, #4096	@ 0x1000
    2010:	00002d1f 			@ <UNDEFINED> instruction: 00002d1f
    2014:	00021200 			@ <UNDEFINED> instruction: 00021200
    2018:	00020e00 			@ <UNDEFINED> instruction: 00020e00
    201c:	eb000000 			@ <UNDEFINED> instruction: eb000000
    2020:	05000006 			@ <UNDEFINED> instruction: 05000006
    2024:	c7040100 			@ <UNDEFINED> instruction: c7040100
    2028:	1a000008 			@ <UNDEFINED> instruction: 1a000008
    202c:	000001cf 			@ <UNDEFINED> instruction: 000001cf
    2030:	000a160c 			@ <UNDEFINED> instruction: 000a160c
    2034:	0000f700 			@ <UNDEFINED> instruction: 0000f700
    2038:	0003d800 			@ <UNDEFINED> instruction: 0003d800
    203c:	0002bc08 			@ <UNDEFINED> instruction: 0002bc08
    2040:	000d5100 			@ <UNDEFINED> instruction: 000d5100
    2044:	07080400 			@ <UNDEFINED> instruction: 07080400
    2048:	0000015c 			@ <UNDEFINED> instruction: 0000015c
    204c:	66070404 			@ <UNDEFINED> instruction: 66070404
    2050:	04000001 			@ <UNDEFINED> instruction: 04000001
    2054:	009f0601 			@ <UNDEFINED> instruction: 009f0601
    2058:	01040000 			@ <UNDEFINED> instruction: 01040000
    205c:	00009d08 			@ <UNDEFINED> instruction: 00009d08
    2060:	05020400 			@ <UNDEFINED> instruction: 05020400
    2064:	000001a5 			@ <UNDEFINED> instruction: 000001a5
    2068:	8e070204 			@ <UNDEFINED> instruction: 8e070204
    206c:	04000002 			@ <UNDEFINED> instruction: 04000002
    2070:	00050504 			@ <UNDEFINED> instruction: 00050504
    2074:	e4060000 			@ <UNDEFINED> instruction: e4060000
    2078:	02000000 			@ <UNDEFINED> instruction: 02000000
    207c:	0063194f 			@ <UNDEFINED> instruction: 0063194f
    2080:	04040000 			@ <UNDEFINED> instruction: 04040000
    2084:	00016107 			@ <UNDEFINED> instruction: 00016107
    2088:	05080400 			@ <UNDEFINED> instruction: 05080400
    208c:	00000000 			@ <UNDEFINED> instruction: 00000000
    2090:	6905041b 			@ <UNDEFINED> instruction: 6905041b
    2094:	0c00746e 			@ <UNDEFINED> instruction: 0c00746e
    2098:	0000002d 			@ <UNDEFINED> instruction: 0000002d
    209c:	0000e606 			@ <UNDEFINED> instruction: 0000e606
    20a0:	14300300 			@ <UNDEFINED> instruction: 14300300
    20a4:	00000057 			@ <UNDEFINED> instruction: 00000057
    20a8:	00007d0c 			@ <UNDEFINED> instruction: 00007d0c
    20ac:	007d0700 			@ <UNDEFINED> instruction: 007d0700
    20b0:	009e0000 			@ <UNDEFINED> instruction: 009e0000
    20b4:	2d080000 			@ <UNDEFINED> instruction: 2d080000
    20b8:	00000000 			@ <UNDEFINED> instruction: 00000000
    20bc:	007d0700 			@ <UNDEFINED> instruction: 007d0700
    20c0:	00ae0000 			@ <UNDEFINED> instruction: 00ae0000
    20c4:	2d080000 			@ <UNDEFINED> instruction: 2d080000
    20c8:	01000000 			@ <UNDEFINED> instruction: 01000000
    20cc:	09280d00 			@ <UNDEFINED> instruction: 09280d00
    20d0:	00012301 			@ <UNDEFINED> instruction: 00012301
    20d4:	02a90100 			@ <UNDEFINED> instruction: 02a90100
    20d8:	010b0000 			@ <UNDEFINED> instruction: 010b0000
    20dc:	00000089 			@ <UNDEFINED> instruction: 00000089
    20e0:	02da0100 			@ <UNDEFINED> instruction: 02da0100
    20e4:	010c0000 			@ <UNDEFINED> instruction: 010c0000
    20e8:	00000089 			@ <UNDEFINED> instruction: 00000089
    20ec:	02a10104 			@ <UNDEFINED> instruction: 02a10104
    20f0:	010d0000 			@ <UNDEFINED> instruction: 010d0000
    20f4:	00000089 			@ <UNDEFINED> instruction: 00000089
    20f8:	030a0108 	movweq	r0, #41224	@ 0xa108
    20fc:	010e0000 			@ <UNDEFINED> instruction: 010e0000
    2100:	00000089 			@ <UNDEFINED> instruction: 00000089
    2104:	4449030c 			@ <UNDEFINED> instruction: 4449030c
    2108:	010f0052 	qaddeq	r0, r2, pc	@ <UNPREDICTABLE>
    210c:	00000089 			@ <UNDEFINED> instruction: 00000089
    2110:	444f0310 			@ <UNDEFINED> instruction: 444f0310
    2114:	01100052 			@ <UNDEFINED> instruction: 01100052
    2118:	00000089 			@ <UNDEFINED> instruction: 00000089
    211c:	02c50114 			@ <UNDEFINED> instruction: 02c50114
    2120:	01110000 			@ <UNDEFINED> instruction: 01110000
    2124:	00000089 			@ <UNDEFINED> instruction: 00000089
    2128:	031d0118 			@ <UNDEFINED> instruction: 031d0118
    212c:	01120000 			@ <UNDEFINED> instruction: 01120000
    2130:	00000089 			@ <UNDEFINED> instruction: 00000089
    2134:	4641031c 			@ <UNDEFINED> instruction: 4641031c
    2138:	01130052 			@ <UNDEFINED> instruction: 01130052
    213c:	00000133 			@ <UNDEFINED> instruction: 00000133
    2140:	89070020 			@ <UNDEFINED> instruction: 89070020
    2144:	33000000 	movwcc	r0, #0
    2148:	08000001 			@ <UNDEFINED> instruction: 08000001
    214c:	0000002d 			@ <UNDEFINED> instruction: 0000002d
    2150:	230c0001 	movwcs	r0, #49153	@ 0xc001
    2154:	0e000001 			@ <UNDEFINED> instruction: 0e000001
    2158:	00000310 			@ <UNDEFINED> instruction: 00000310
    215c:	00ae0114 			@ <UNDEFINED> instruction: 00ae0114
    2160:	900d0000 			@ <UNDEFINED> instruction: 900d0000
    2164:	02cb0150 			@ <UNDEFINED> instruction: 02cb0150
    2168:	43030000 	movwmi	r0, #12288	@ 0x3000
    216c:	01520052 			@ <UNDEFINED> instruction: 01520052
    2170:	00000089 			@ <UNDEFINED> instruction: 00000089
    2174:	00c40100 			@ <UNDEFINED> instruction: 00c40100
    2178:	01530000 			@ <UNDEFINED> instruction: 01530000
    217c:	00000089 			@ <UNDEFINED> instruction: 00000089
    2180:	00bf0104 			@ <UNDEFINED> instruction: 00bf0104
    2184:	01540000 			@ <UNDEFINED> instruction: 01540000
    2188:	00000089 			@ <UNDEFINED> instruction: 00000089
    218c:	49430308 			@ <UNDEFINED> instruction: 49430308
    2190:	01550052 			@ <UNDEFINED> instruction: 01550052
    2194:	00000089 			@ <UNDEFINED> instruction: 00000089
    2198:	0187010c 			@ <UNDEFINED> instruction: 0187010c
    219c:	01560000 			@ <UNDEFINED> instruction: 01560000
    21a0:	00000089 			@ <UNDEFINED> instruction: 00000089
    21a4:	02850110 			@ <UNDEFINED> instruction: 02850110
    21a8:	01570000 			@ <UNDEFINED> instruction: 01570000
    21ac:	00000089 			@ <UNDEFINED> instruction: 00000089
    21b0:	00390114 			@ <UNDEFINED> instruction: 00390114
    21b4:	01580000 			@ <UNDEFINED> instruction: 01580000
    21b8:	00000089 			@ <UNDEFINED> instruction: 00000089
    21bc:	00420118 			@ <UNDEFINED> instruction: 00420118
    21c0:	01590000 			@ <UNDEFINED> instruction: 01590000
    21c4:	0000007d 			@ <UNDEFINED> instruction: 0000007d
    21c8:	0094011c 			@ <UNDEFINED> instruction: 0094011c
    21cc:	015a0000 			@ <UNDEFINED> instruction: 015a0000
    21d0:	00000089 			@ <UNDEFINED> instruction: 00000089
    21d4:	01480120 			@ <UNDEFINED> instruction: 01480120
    21d8:	015b0000 			@ <UNDEFINED> instruction: 015b0000
    21dc:	00000089 			@ <UNDEFINED> instruction: 00000089
    21e0:	004c0124 			@ <UNDEFINED> instruction: 004c0124
    21e4:	015c0000 			@ <UNDEFINED> instruction: 015c0000
    21e8:	0000009e 			@ <UNDEFINED> instruction: 0000009e
    21ec:	00130128 			@ <UNDEFINED> instruction: 00130128
    21f0:	015d0000 			@ <UNDEFINED> instruction: 015d0000
    21f4:	00000089 			@ <UNDEFINED> instruction: 00000089
    21f8:	00840130 			@ <UNDEFINED> instruction: 00840130
    21fc:	015e0000 			@ <UNDEFINED> instruction: 015e0000
    2200:	00000089 			@ <UNDEFINED> instruction: 00000089
    2204:	00d40134 			@ <UNDEFINED> instruction: 00d40134
    2208:	015f0000 			@ <UNDEFINED> instruction: 015f0000
    220c:	00000089 			@ <UNDEFINED> instruction: 00000089
    2210:	00560138 			@ <UNDEFINED> instruction: 00560138
    2214:	01600000 			@ <UNDEFINED> instruction: 01600000
    2218:	0000007d 			@ <UNDEFINED> instruction: 0000007d
    221c:	00ef013c 			@ <UNDEFINED> instruction: 00ef013c
    2220:	01610000 			@ <UNDEFINED> instruction: 01610000
    2224:	00000089 			@ <UNDEFINED> instruction: 00000089
    2228:	00dc0140 			@ <UNDEFINED> instruction: 00dc0140
    222c:	01620000 			@ <UNDEFINED> instruction: 01620000
    2230:	00000089 			@ <UNDEFINED> instruction: 00000089
    2234:	00600144 			@ <UNDEFINED> instruction: 00600144
    2238:	01630000 			@ <UNDEFINED> instruction: 01630000
    223c:	0000009e 			@ <UNDEFINED> instruction: 0000009e
    2240:	002f0148 			@ <UNDEFINED> instruction: 002f0148
    2244:	01640000 			@ <UNDEFINED> instruction: 01640000
    2248:	00000089 			@ <UNDEFINED> instruction: 00000089
    224c:	00b20150 			@ <UNDEFINED> instruction: 00b20150
    2250:	01650000 			@ <UNDEFINED> instruction: 01650000
    2254:	00000089 			@ <UNDEFINED> instruction: 00000089
    2258:	01900154 			@ <UNDEFINED> instruction: 01900154
    225c:	01660000 			@ <UNDEFINED> instruction: 01660000
    2260:	00000089 			@ <UNDEFINED> instruction: 00000089
    2264:	006a0158 			@ <UNDEFINED> instruction: 006a0158
    2268:	01670000 			@ <UNDEFINED> instruction: 01670000
    226c:	0000007d 			@ <UNDEFINED> instruction: 0000007d
    2270:	0173015c 			@ <UNDEFINED> instruction: 0173015c
    2274:	01680000 			@ <UNDEFINED> instruction: 01680000
    2278:	00000089 			@ <UNDEFINED> instruction: 00000089
    227c:	01b90160 			@ <UNDEFINED> instruction: 01b90160
    2280:	01690000 			@ <UNDEFINED> instruction: 01690000
    2284:	00000089 			@ <UNDEFINED> instruction: 00000089
    2288:	00740164 			@ <UNDEFINED> instruction: 00740164
    228c:	016a0000 			@ <UNDEFINED> instruction: 016a0000
    2290:	0000009e 			@ <UNDEFINED> instruction: 0000009e
    2294:	000e0168 			@ <UNDEFINED> instruction: 000e0168
    2298:	016b0000 			@ <UNDEFINED> instruction: 016b0000
    229c:	00000089 			@ <UNDEFINED> instruction: 00000089
    22a0:	53430370 	movtpl	r0, #13168	@ 0x3370
    22a4:	016c0052 	qdsubeq	r0, r2, ip
    22a8:	00000089 			@ <UNDEFINED> instruction: 00000089
    22ac:	01af0174 			@ <UNDEFINED> instruction: 01af0174
    22b0:	016d0000 			@ <UNDEFINED> instruction: 016d0000
    22b4:	0000009e 			@ <UNDEFINED> instruction: 0000009e
    22b8:	001b0178 			@ <UNDEFINED> instruction: 001b0178
    22bc:	016e0000 			@ <UNDEFINED> instruction: 016e0000
    22c0:	00000089 			@ <UNDEFINED> instruction: 00000089
    22c4:	01510180 			@ <UNDEFINED> instruction: 01510180
    22c8:	016f0000 			@ <UNDEFINED> instruction: 016f0000
    22cc:	00000089 			@ <UNDEFINED> instruction: 00000089
    22d0:	017d0184 			@ <UNDEFINED> instruction: 017d0184
    22d4:	01700000 			@ <UNDEFINED> instruction: 01700000
    22d8:	0000008e 			@ <UNDEFINED> instruction: 0000008e
    22dc:	00bc0188 			@ <UNDEFINED> instruction: 00bc0188
    22e0:	01710000 			@ <UNDEFINED> instruction: 01710000
    22e4:	00000089 			@ <UNDEFINED> instruction: 00000089
    22e8:	c30e008c 	movwgt	r0, #57484	@ 0xe08c
    22ec:	72000001 			@ <UNDEFINED> instruction: 72000001
    22f0:	00014301 			@ <UNDEFINED> instruction: 00014301
    22f4:	f31c0d00 	vpadd.f16	d0, d12, d0
    22f8:	00033101 			@ <UNDEFINED> instruction: 00033101
    22fc:	52530300 			@ <UNDEFINED> instruction: 52530300
    2300:	8901f500 			@ <UNDEFINED> instruction: 8901f500
    2304:	00000000 			@ <UNDEFINED> instruction: 00000000
    2308:	00524403 			@ <UNDEFINED> instruction: 00524403
    230c:	008901f6 	strdeq	r0, [r9], r6
    2310:	03040000 	movweq	r0, #16384	@ 0x4000
    2314:	00525242 			@ <UNDEFINED> instruction: 00525242
    2318:	008901f7 	strdeq	r0, [r9], r7
    231c:	03080000 	movweq	r0, #32768	@ 0x8000
    2320:	00315243 			@ <UNDEFINED> instruction: 00315243
    2324:	008901f8 	strdeq	r0, [r9], r8
    2328:	030c0000 	movweq	r0, #49152	@ 0xc000
    232c:	00325243 			@ <UNDEFINED> instruction: 00325243
    2330:	008901f9 	strdeq	r0, [r9], r9
    2334:	03100000 			@ <UNDEFINED> instruction: 03100000
    2338:	00335243 			@ <UNDEFINED> instruction: 00335243
    233c:	008901fa 	strdeq	r0, [r9], sl
    2340:	01140000 			@ <UNDEFINED> instruction: 01140000
    2344:	00000959 			@ <UNDEFINED> instruction: 00000959
    2348:	008901fb 	strdeq	r0, [r9], fp
    234c:	00180000 			@ <UNDEFINED> instruction: 00180000
    2350:	0009920e 			@ <UNDEFINED> instruction: 0009920e
    2354:	d601fc00 			@ <UNDEFINED> instruction: d601fc00
    2358:	1c000002 			@ <UNDEFINED> instruction: 1c000002
    235c:	09cb1d04 			@ <UNDEFINED> instruction: 09cb1d04
    2360:	07040000 			@ <UNDEFINED> instruction: 07040000
    2364:	00035500 			@ <UNDEFINED> instruction: 00035500
    2368:	09ec1e00 			@ <UNDEFINED> instruction: 09ec1e00
    236c:	033c0000 			@ <UNDEFINED> instruction: 033c0000
    2370:	00000000 			@ <UNDEFINED> instruction: 00000000
    2374:	00035f12 			@ <UNDEFINED> instruction: 00035f12
    2378:	03551300 			@ <UNDEFINED> instruction: 03551300
    237c:	01040000 			@ <UNDEFINED> instruction: 01040000
    2380:	0000a608 			@ <UNDEFINED> instruction: 0000a608
    2384:	035f1f00 			@ <UNDEFINED> instruction: 035f1f00
    2388:	66120000 			@ <UNDEFINED> instruction: 66120000
    238c:	13000003 	movwne	r0, #3
    2390:	0000036b 			@ <UNDEFINED> instruction: 0000036b
    2394:	000a1d06 			@ <UNDEFINED> instruction: 000a1d06
    2398:	1b280500 			@ <UNDEFINED> instruction: 1b280500
    239c:	0000033e 			@ <UNDEFINED> instruction: 0000033e
    23a0:	0009cd06 			@ <UNDEFINED> instruction: 0009cd06
    23a4:	182e0600 			@ <UNDEFINED> instruction: 182e0600
    23a8:	00000375 			@ <UNDEFINED> instruction: 00000375
    23ac:	0009f120 			@ <UNDEFINED> instruction: 0009f120
    23b0:	05d80600 			@ <UNDEFINED> instruction: 05d80600
    23b4:	00000071 			@ <UNDEFINED> instruction: 00000071
    23b8:	000003ad 			@ <UNDEFINED> instruction: 000003ad
    23bc:	00035a0f 			@ <UNDEFINED> instruction: 00035a0f
    23c0:	03700f00 			@ <UNDEFINED> instruction: 03700f00
    23c4:	750f0000 			@ <UNDEFINED> instruction: 750f0000
    23c8:	00000003 			@ <UNDEFINED> instruction: 00000003
    23cc:	0009fa14 			@ <UNDEFINED> instruction: 0009fa14
    23d0:	035f7c00 			@ <UNDEFINED> instruction: 035f7c00
    23d4:	06800000 			@ <UNDEFINED> instruction: 06800000
    23d8:	00140800 			@ <UNDEFINED> instruction: 00140800
    23dc:	9c010000 			@ <UNDEFINED> instruction: 9c010000
    23e0:	0009d514 			@ <UNDEFINED> instruction: 0009d514
    23e4:	035f6f00 			@ <UNDEFINED> instruction: 035f6f00
    23e8:	066c0000 			@ <UNDEFINED> instruction: 066c0000
    23ec:	00140800 			@ <UNDEFINED> instruction: 00140800
    23f0:	9c010000 			@ <UNDEFINED> instruction: 9c010000
    23f4:	000a2c09 			@ <UNDEFINED> instruction: 000a2c09
    23f8:	06206400 			@ <UNDEFINED> instruction: 06206400
    23fc:	004c0800 			@ <UNDEFINED> instruction: 004c0800
    2400:	9c010000 			@ <UNDEFINED> instruction: 9c010000
    2404:	0000047b 			@ <UNDEFINED> instruction: 0000047b
    2408:	746d6621 			@ <UNDEFINED> instruction: 746d6621
    240c:	19640100 			@ <UNDEFINED> instruction: 19640100
    2410:	00000355 			@ <UNDEFINED> instruction: 00000355
    2414:	00000234 			@ <UNDEFINED> instruction: 00000234
    2418:	00000232 			@ <UNDEFINED> instruction: 00000232
    241c:	70611022 			@ <UNDEFINED> instruction: 70611022
    2420:	810a6600 			@ <UNDEFINED> instruction: 810a6600
    2424:	03000003 	movweq	r0, #3
    2428:	237de491 			@ <UNDEFINED> instruction: 237de491
    242c:	00000986 			@ <UNDEFINED> instruction: 00000986
    2430:	7b076701 			@ <UNDEFINED> instruction: 7b076701
    2434:	03000004 	movweq	r0, #4
    2438:	247de891 			@ <UNDEFINED> instruction: 247de891
    243c:	0000048b 			@ <UNDEFINED> instruction: 0000048b
    2440:	08000634 			@ <UNDEFINED> instruction: 08000634
    2444:	00005201 			@ <UNDEFINED> instruction: 00005201
    2448:	026b0100 			@ <UNDEFINED> instruction: 026b0100
    244c:	0000045c 			@ <UNDEFINED> instruction: 0000045c
    2450:	0004950a 			@ <UNDEFINED> instruction: 0004950a
    2454:	00024700 			@ <UNDEFINED> instruction: 00024700
    2458:	00023d00 			@ <UNDEFINED> instruction: 00023d00
    245c:	04a11500 			@ <UNDEFINED> instruction: 04a11500
    2460:	06400000 			@ <UNDEFINED> instruction: 06400000
    2464:	5d020800 			@ <UNDEFINED> instruction: 5d020800
    2468:	60000000 			@ <UNDEFINED> instruction: 60000000
    246c:	0004ab0a 			@ <UNDEFINED> instruction: 0004ab0a
    2470:	00027600 			@ <UNDEFINED> instruction: 00027600
    2474:	00027200 			@ <UNDEFINED> instruction: 00027200
    2478:	25000000 			@ <UNDEFINED> instruction: 25000000
    247c:	08000634 			@ <UNDEFINED> instruction: 08000634
    2480:	0000038d 			@ <UNDEFINED> instruction: 0000038d
    2484:	03500111 			@ <UNDEFINED> instruction: 03500111
    2488:	117dc891 			@ <UNDEFINED> instruction: 117dc891
    248c:	91035101 			@ <UNDEFINED> instruction: 91035101
    2490:	01110650 			@ <UNDEFINED> instruction: 01110650
    2494:	54910252 			@ <UNDEFINED> instruction: 54910252
    2498:	5f070000 			@ <UNDEFINED> instruction: 5f070000
    249c:	8b000003 			@ <UNDEFINED> instruction: 8b000003
    24a0:	08000004 			@ <UNDEFINED> instruction: 08000004
    24a4:	0000002d 			@ <UNDEFINED> instruction: 0000002d
    24a8:	a01600ff 			@ <UNDEFINED> instruction: a01600ff
    24ac:	5c000009 			@ <UNDEFINED> instruction: 5c000009
    24b0:	000004a1 			@ <UNDEFINED> instruction: 000004a1
    24b4:	00747026 			@ <UNDEFINED> instruction: 00747026
    24b8:	551e5c01 			@ <UNDEFINED> instruction: 551e5c01
    24bc:	00000003 			@ <UNDEFINED> instruction: 00000003
    24c0:	00095e16 			@ <UNDEFINED> instruction: 00095e16
    24c4:	04b85000 			@ <UNDEFINED> instruction: 04b85000
    24c8:	19270000 			@ <UNDEFINED> instruction: 19270000
    24cc:	01000006 			@ <UNDEFINED> instruction: 01000006
    24d0:	035f1b50 			@ <UNDEFINED> instruction: 035f1b50
    24d4:	09000000 			@ <UNDEFINED> instruction: 09000000
    24d8:	0000097b 			@ <UNDEFINED> instruction: 0000097b
    24dc:	0004e832 			@ <UNDEFINED> instruction: 0004e832
    24e0:	0000e408 			@ <UNDEFINED> instruction: 0000e408
    24e4:	729c0100 			@ <UNDEFINED> instruction: 729c0100
    24e8:	17000005 			@ <UNDEFINED> instruction: 17000005
    24ec:	000004d7 	ldrdeq	r0, [r0], -r7
    24f0:	00007132 			@ <UNDEFINED> instruction: 00007132
    24f4:	00028900 			@ <UNDEFINED> instruction: 00028900
    24f8:	00028500 			@ <UNDEFINED> instruction: 00028500
    24fc:	69641800 			@ <UNDEFINED> instruction: 69641800
    2500:	72340076 			@ <UNDEFINED> instruction: 72340076
    2504:	a3000005 	movwge	r0, #5
    2508:	a1000002 			@ <UNDEFINED> instruction: a1000002
    250c:	0b000002 			@ <UNDEFINED> instruction: 0b000002
    2510:	000009e7 			@ <UNDEFINED> instruction: 000009e7
    2514:	00002d35 			@ <UNDEFINED> instruction: 00002d35
    2518:	0002b800 			@ <UNDEFINED> instruction: 0002b800
    251c:	0002b000 			@ <UNDEFINED> instruction: 0002b000
    2520:	098d0b00 			@ <UNDEFINED> instruction: 098d0b00
    2524:	2d360000 			@ <UNDEFINED> instruction: 2d360000
    2528:	e2000000 			@ <UNDEFINED> instruction: e2000000
    252c:	dc000002 			@ <UNDEFINED> instruction: dc000002
    2530:	10000002 			@ <UNDEFINED> instruction: 10000002
    2534:	193e0074 			@ <UNDEFINED> instruction: 193e0074
    2538:	00000078 			@ <UNDEFINED> instruction: 00000078
    253c:	026c9102 			@ <UNDEFINED> instruction: 026c9102
    2540:	0800054c 			@ <UNDEFINED> instruction: 0800054c
    2544:	000006af 			@ <UNDEFINED> instruction: 000006af
    2548:	00055402 			@ <UNDEFINED> instruction: 00055402
    254c:	0006b808 			@ <UNDEFINED> instruction: 0006b808
    2550:	05620200 			@ <UNDEFINED> instruction: 05620200
    2554:	06c10800 			@ <UNDEFINED> instruction: 06c10800
    2558:	6a020000 			@ <UNDEFINED> instruction: 6a020000
    255c:	ca080005 			@ <UNDEFINED> instruction: ca080005
    2560:	02000006 			@ <UNDEFINED> instruction: 02000006
    2564:	08000570 			@ <UNDEFINED> instruction: 08000570
    2568:	000006d3 	ldrdeq	r0, [r0], -r3
    256c:	00057c02 			@ <UNDEFINED> instruction: 00057c02
    2570:	0006dc08 			@ <UNDEFINED> instruction: 0006dc08
    2574:	05840200 			@ <UNDEFINED> instruction: 05840200
    2578:	06b80800 			@ <UNDEFINED> instruction: 06b80800
    257c:	8c020000 			@ <UNDEFINED> instruction: 8c020000
    2580:	e5080005 			@ <UNDEFINED> instruction: e5080005
    2584:	02000006 			@ <UNDEFINED> instruction: 02000006
    2588:	08000590 			@ <UNDEFINED> instruction: 08000590
    258c:	000006ca 			@ <UNDEFINED> instruction: 000006ca
    2590:	04080400 			@ <UNDEFINED> instruction: 04080400
    2594:	000006f7 	strdeq	r0, [r0], -r7
    2598:	0007e109 			@ <UNDEFINED> instruction: 0007e109
    259c:	04c42600 			@ <UNDEFINED> instruction: 04c42600
    25a0:	00240800 			@ <UNDEFINED> instruction: 00240800
    25a4:	9c010000 			@ <UNDEFINED> instruction: 9c010000
    25a8:	0000059c 			@ <UNDEFINED> instruction: 0000059c
    25ac:	00061928 			@ <UNDEFINED> instruction: 00061928
    25b0:	1b260100 			@ <UNDEFINED> instruction: 1b260100
    25b4:	0000035f 			@ <UNDEFINED> instruction: 0000035f
    25b8:	09005001 			@ <UNDEFINED> instruction: 09005001
    25bc:	0000047c 			@ <UNDEFINED> instruction: 0000047c
    25c0:	0003d808 			@ <UNDEFINED> instruction: 0003d808
    25c4:	0000ec08 			@ <UNDEFINED> instruction: 0000ec08
    25c8:	569c0100 			@ <UNDEFINED> instruction: 569c0100
    25cc:	17000006 			@ <UNDEFINED> instruction: 17000006
    25d0:	000004d7 	ldrdeq	r0, [r0], -r7
    25d4:	00007108 			@ <UNDEFINED> instruction: 00007108
    25d8:	00030000 			@ <UNDEFINED> instruction: 00030000
    25dc:	0002fc00 			@ <UNDEFINED> instruction: 0002fc00
    25e0:	69641800 			@ <UNDEFINED> instruction: 69641800
    25e4:	720a0076 			@ <UNDEFINED> instruction: 720a0076
    25e8:	17000005 			@ <UNDEFINED> instruction: 17000005
    25ec:	15000003 			@ <UNDEFINED> instruction: 15000003
    25f0:	0b000003 			@ <UNDEFINED> instruction: 0b000003
    25f4:	000009e7 			@ <UNDEFINED> instruction: 000009e7
    25f8:	00002d0b 			@ <UNDEFINED> instruction: 00002d0b
    25fc:	00032c00 			@ <UNDEFINED> instruction: 00032c00
    2600:	00032400 			@ <UNDEFINED> instruction: 00032400
    2604:	098d0b00 			@ <UNDEFINED> instruction: 098d0b00
    2608:	2d0c0000 			@ <UNDEFINED> instruction: 2d0c0000
    260c:	56000000 			@ <UNDEFINED> instruction: 56000000
    2610:	50000003 			@ <UNDEFINED> instruction: 50000003
    2614:	10000003 			@ <UNDEFINED> instruction: 10000003
    2618:	19140074 			@ <UNDEFINED> instruction: 19140074
    261c:	00000078 			@ <UNDEFINED> instruction: 00000078
    2620:	026c9102 			@ <UNDEFINED> instruction: 026c9102
    2624:	08000444 			@ <UNDEFINED> instruction: 08000444
    2628:	000006af 			@ <UNDEFINED> instruction: 000006af
    262c:	00044c02 			@ <UNDEFINED> instruction: 00044c02
    2630:	0006b808 			@ <UNDEFINED> instruction: 0006b808
    2634:	045a0200 			@ <UNDEFINED> instruction: 045a0200
    2638:	06c10800 			@ <UNDEFINED> instruction: 06c10800
    263c:	62020000 			@ <UNDEFINED> instruction: 62020000
    2640:	ca080004 			@ <UNDEFINED> instruction: ca080004
    2644:	02000006 			@ <UNDEFINED> instruction: 02000006
    2648:	08000468 			@ <UNDEFINED> instruction: 08000468
    264c:	000006d3 	ldrdeq	r0, [r0], -r3
    2650:	00047402 			@ <UNDEFINED> instruction: 00047402
    2654:	0006dc08 			@ <UNDEFINED> instruction: 0006dc08
    2658:	047c0200 			@ <UNDEFINED> instruction: 047c0200
    265c:	06b80800 			@ <UNDEFINED> instruction: 06b80800
    2660:	84020000 			@ <UNDEFINED> instruction: 84020000
    2664:	e5080004 			@ <UNDEFINED> instruction: e5080004
    2668:	02000006 			@ <UNDEFINED> instruction: 02000006
    266c:	08000488 			@ <UNDEFINED> instruction: 08000488
    2670:	000006ca 			@ <UNDEFINED> instruction: 000006ca
    2674:	04a11900 			@ <UNDEFINED> instruction: 04a11900
    2678:	05cc0000 			@ <UNDEFINED> instruction: 05cc0000
    267c:	00240800 			@ <UNDEFINED> instruction: 00240800
    2680:	9c010000 			@ <UNDEFINED> instruction: 9c010000
    2684:	00000671 			@ <UNDEFINED> instruction: 00000671
    2688:	0004ab29 			@ <UNDEFINED> instruction: 0004ab29
    268c:	00500100 			@ <UNDEFINED> instruction: 00500100
    2690:	00048b19 			@ <UNDEFINED> instruction: 00048b19
    2694:	0005f000 			@ <UNDEFINED> instruction: 0005f000
    2698:	00003008 			@ <UNDEFINED> instruction: 00003008
    269c:	af9c0100 			@ <UNDEFINED> instruction: af9c0100
    26a0:	0a000006 			@ <UNDEFINED> instruction: 0a000006
    26a4:	00000495 			@ <UNDEFINED> instruction: 00000495
    26a8:	00000378 			@ <UNDEFINED> instruction: 00000378
    26ac:	00000370 			@ <UNDEFINED> instruction: 00000370
    26b0:	0004a115 			@ <UNDEFINED> instruction: 0004a115
    26b4:	0005fa00 			@ <UNDEFINED> instruction: 0005fa00
    26b8:	00420208 			@ <UNDEFINED> instruction: 00420208
    26bc:	0a600000 			@ <UNDEFINED> instruction: 0a600000
    26c0:	000004ab 			@ <UNDEFINED> instruction: 000004ab
    26c4:	0000039d 			@ <UNDEFINED> instruction: 0000039d
    26c8:	00000399 			@ <UNDEFINED> instruction: 00000399
    26cc:	b2050000 			@ <UNDEFINED> instruction: b2050000
    26d0:	b2000009 			@ <UNDEFINED> instruction: b2000009
    26d4:	05000009 			@ <UNDEFINED> instruction: 05000009
    26d8:	00000362 			@ <UNDEFINED> instruction: 00000362
    26dc:	00000362 			@ <UNDEFINED> instruction: 00000362
    26e0:	00096e05 			@ <UNDEFINED> instruction: 00096e05
    26e4:	00096e00 			@ <UNDEFINED> instruction: 00096e00
    26e8:	06af0500 			@ <UNDEFINED> instruction: 06af0500
    26ec:	06af0000 			@ <UNDEFINED> instruction: 06af0000
    26f0:	a2050000 			@ <UNDEFINED> instruction: a2050000
    26f4:	a2000006 			@ <UNDEFINED> instruction: a2000006
    26f8:	05000006 			@ <UNDEFINED> instruction: 05000006
    26fc:	00000a09 			@ <UNDEFINED> instruction: 00000a09
    2700:	00000a09 			@ <UNDEFINED> instruction: 00000a09
    2704:	0009be05 			@ <UNDEFINED> instruction: 0009be05
    2708:	0009be00 			@ <UNDEFINED> instruction: 0009be00
    270c:	00200000 			@ <UNDEFINED> instruction: 00200000
    2710:	00050000 			@ <UNDEFINED> instruction: 00050000
    2714:	0b330401 			@ <UNDEFINED> instruction: 0b330401
    2718:	e3010000 	movw	r0, #4096	@ 0x1000
    271c:	00000012 			@ <UNDEFINED> instruction: 00000012
    2720:	70080000 			@ <UNDEFINED> instruction: 70080000
    2724:	00000a39 			@ <UNDEFINED> instruction: 00000a39
    2728:	00000a40 			@ <UNDEFINED> instruction: 00000a40
    272c:	00000a89 			@ <UNDEFINED> instruction: 00000a89
    2730:	Address 0x2730 is out of bounds.


Disassembly of section .debug_abbrev:

00000000 <.debug_abbrev>:
   0:	03000d01 	movweq	r0, #3329	@ 0xd01
   4:	04213a0e 			@ <UNDEFINED> instruction: 04213a0e
   8:	2139053b 			@ <UNDEFINED> instruction: 2139053b
   c:	38134911 			@ <UNDEFINED> instruction: 38134911
  10:	0200000b 			@ <UNDEFINED> instruction: 0200000b
  14:	0b0b0024 			@ <UNDEFINED> instruction: 0b0b0024
  18:	0e030b3e 	vmoveq.16	d3[0], r0
  1c:	0d030000 			@ <UNDEFINED> instruction: 0d030000
  20:	3a080300 			@ <UNDEFINED> instruction: 3a080300
  24:	053b0421 			@ <UNDEFINED> instruction: 053b0421
  28:	49112139 			@ <UNDEFINED> instruction: 49112139
  2c:	000b3813 			@ <UNDEFINED> instruction: 000b3813
  30:	00160400 			@ <UNDEFINED> instruction: 00160400
  34:	0b3a0e03 			@ <UNDEFINED> instruction: 0b3a0e03
  38:	0b390b3b 			@ <UNDEFINED> instruction: 0b390b3b
  3c:	00001349 			@ <UNDEFINED> instruction: 00001349
  40:	49010105 			@ <UNDEFINED> instruction: 49010105
  44:	00130113 			@ <UNDEFINED> instruction: 00130113
  48:	00210600 			@ <UNDEFINED> instruction: 00210600
  4c:	0b2f1349 			@ <UNDEFINED> instruction: 0b2f1349
  50:	0d070000 			@ <UNDEFINED> instruction: 0d070000
  54:	3a080300 			@ <UNDEFINED> instruction: 3a080300
  58:	0b3b0421 			@ <UNDEFINED> instruction: 0b3b0421
  5c:	49112139 			@ <UNDEFINED> instruction: 49112139
  60:	000b3813 			@ <UNDEFINED> instruction: 000b3813
  64:	000d0800 			@ <UNDEFINED> instruction: 000d0800
  68:	213a0e03 			@ <UNDEFINED> instruction: 213a0e03
  6c:	390b3b04 			@ <UNDEFINED> instruction: 390b3b04
  70:	13491121 	movtne	r1, #37153	@ 0x9121
  74:	00000b38 			@ <UNDEFINED> instruction: 00000b38
  78:	03001609 	movweq	r1, #1545	@ 0x609
  7c:	04213a0e 			@ <UNDEFINED> instruction: 04213a0e
  80:	2139053b 			@ <UNDEFINED> instruction: 2139053b
  84:	00134903 			@ <UNDEFINED> instruction: 00134903
  88:	01110a00 			@ <UNDEFINED> instruction: 01110a00
  8c:	0b130e25 			@ <UNDEFINED> instruction: 0b130e25
  90:	0e1b0e03 			@ <UNDEFINED> instruction: 0e1b0e03
  94:	06120111 			@ <UNDEFINED> instruction: 06120111
  98:	00001710 			@ <UNDEFINED> instruction: 00001710
  9c:	0b00240b 			@ <UNDEFINED> instruction: 0b00240b
  a0:	030b3e0b 	movweq	r3, #48651	@ 0xbe0b
  a4:	0c000008 			@ <UNDEFINED> instruction: 0c000008
  a8:	13490035 	movtne	r0, #36917	@ 0x9035
  ac:	130d0000 	movwne	r0, #53248	@ 0xd000
  b0:	3a0b0b01 			@ <UNDEFINED> instruction: 3a0b0b01
  b4:	390b3b0b 			@ <UNDEFINED> instruction: 390b3b0b
  b8:	0013010b 			@ <UNDEFINED> instruction: 0013010b
  bc:	01130e00 			@ <UNDEFINED> instruction: 01130e00
  c0:	0b3a0b0b 			@ <UNDEFINED> instruction: 0b3a0b0b
  c4:	0b39053b 			@ <UNDEFINED> instruction: 0b39053b
  c8:	00001301 			@ <UNDEFINED> instruction: 00001301
  cc:	3f002e0f 			@ <UNDEFINED> instruction: 3f002e0f
  d0:	3a0e0319 			@ <UNDEFINED> instruction: 3a0e0319
  d4:	390b3b0b 			@ <UNDEFINED> instruction: 390b3b0b
  d8:	1119270b 			@ <UNDEFINED> instruction: 1119270b
  dc:	40061201 			@ <UNDEFINED> instruction: 40061201
  e0:	00197a18 			@ <UNDEFINED> instruction: 00197a18
  e4:	0d010000 			@ <UNDEFINED> instruction: 0d010000
  e8:	3a0e0300 			@ <UNDEFINED> instruction: 3a0e0300
  ec:	053b0421 			@ <UNDEFINED> instruction: 053b0421
  f0:	49112139 			@ <UNDEFINED> instruction: 49112139
  f4:	000b3813 			@ <UNDEFINED> instruction: 000b3813
  f8:	00240200 			@ <UNDEFINED> instruction: 00240200
  fc:	0b3e0b0b 			@ <UNDEFINED> instruction: 0b3e0b0b
 100:	00000e03 			@ <UNDEFINED> instruction: 00000e03
 104:	03000d03 	movweq	r0, #3331	@ 0xd03
 108:	04213a08 			@ <UNDEFINED> instruction: 04213a08
 10c:	2139053b 			@ <UNDEFINED> instruction: 2139053b
 110:	38134911 			@ <UNDEFINED> instruction: 38134911
 114:	0400000b 			@ <UNDEFINED> instruction: 0400000b
 118:	13490101 	movtne	r0, #37121	@ 0x9101
 11c:	00001301 			@ <UNDEFINED> instruction: 00001301
 120:	49002105 			@ <UNDEFINED> instruction: 49002105
 124:	000b2f13 			@ <UNDEFINED> instruction: 000b2f13
 128:	002e0600 			@ <UNDEFINED> instruction: 002e0600
 12c:	0e03193f 			@ <UNDEFINED> instruction: 0e03193f
 130:	3b01213a 			@ <UNDEFINED> instruction: 3b01213a
 134:	0621390b 			@ <UNDEFINED> instruction: 0621390b
 138:	01111927 			@ <UNDEFINED> instruction: 01111927
 13c:	18400612 			@ <UNDEFINED> instruction: 18400612
 140:	0000197a 			@ <UNDEFINED> instruction: 0000197a
 144:	03001607 	movweq	r1, #1543	@ 0x607
 148:	3b0b3a0e 			@ <UNDEFINED> instruction: 3b0b3a0e
 14c:	490b390b 			@ <UNDEFINED> instruction: 490b390b
 150:	08000013 			@ <UNDEFINED> instruction: 08000013
 154:	13490035 	movtne	r0, #36917	@ 0x9035
 158:	13090000 	movwne	r0, #36864	@ 0x9000
 15c:	3a0b0b01 			@ <UNDEFINED> instruction: 3a0b0b01
 160:	053b0421 			@ <UNDEFINED> instruction: 053b0421
 164:	01092139 			@ <UNDEFINED> instruction: 01092139
 168:	0a000013 			@ <UNDEFINED> instruction: 0a000013
 16c:	0e030016 			@ <UNDEFINED> instruction: 0e030016
 170:	3b04213a 			@ <UNDEFINED> instruction: 3b04213a
 174:	03213905 			@ <UNDEFINED> instruction: 03213905
 178:	00001349 			@ <UNDEFINED> instruction: 00001349
 17c:	2501110b 			@ <UNDEFINED> instruction: 2501110b
 180:	030b130e 	movweq	r1, #45838	@ 0xb30e
 184:	110e1b0e 			@ <UNDEFINED> instruction: 110e1b0e
 188:	10061201 			@ <UNDEFINED> instruction: 10061201
 18c:	0c000017 			@ <UNDEFINED> instruction: 0c000017
 190:	0b0b0024 			@ <UNDEFINED> instruction: 0b0b0024
 194:	08030b3e 			@ <UNDEFINED> instruction: 08030b3e
 198:	2e0d0000 			@ <UNDEFINED> instruction: 2e0d0000
 19c:	03193f00 			@ <UNDEFINED> instruction: 03193f00
 1a0:	3b0b3a0e 			@ <UNDEFINED> instruction: 3b0b3a0e
 1a4:	270b390b 			@ <UNDEFINED> instruction: 270b390b
 1a8:	11134919 			@ <UNDEFINED> instruction: 11134919
 1ac:	40061201 			@ <UNDEFINED> instruction: 40061201
 1b0:	00197a18 			@ <UNDEFINED> instruction: 00197a18
 1b4:	0d010000 			@ <UNDEFINED> instruction: 0d010000
 1b8:	3a0e0300 			@ <UNDEFINED> instruction: 3a0e0300
 1bc:	053b0421 			@ <UNDEFINED> instruction: 053b0421
 1c0:	49112139 			@ <UNDEFINED> instruction: 49112139
 1c4:	000b3813 			@ <UNDEFINED> instruction: 000b3813
 1c8:	00240200 			@ <UNDEFINED> instruction: 00240200
 1cc:	0b3e0b0b 			@ <UNDEFINED> instruction: 0b3e0b0b
 1d0:	00000e03 			@ <UNDEFINED> instruction: 00000e03
 1d4:	03000d03 	movweq	r0, #3331	@ 0xd03
 1d8:	04213a08 			@ <UNDEFINED> instruction: 04213a08
 1dc:	2139053b 			@ <UNDEFINED> instruction: 2139053b
 1e0:	38134911 			@ <UNDEFINED> instruction: 38134911
 1e4:	0400000b 			@ <UNDEFINED> instruction: 0400000b
 1e8:	13490101 	movtne	r0, #37121	@ 0x9101
 1ec:	00001301 			@ <UNDEFINED> instruction: 00001301
 1f0:	49002105 			@ <UNDEFINED> instruction: 49002105
 1f4:	000b2f13 			@ <UNDEFINED> instruction: 000b2f13
 1f8:	002e0600 			@ <UNDEFINED> instruction: 002e0600
 1fc:	0e03193f 			@ <UNDEFINED> instruction: 0e03193f
 200:	3b01213a 			@ <UNDEFINED> instruction: 3b01213a
 204:	0621390b 			@ <UNDEFINED> instruction: 0621390b
 208:	01111927 			@ <UNDEFINED> instruction: 01111927
 20c:	18400612 			@ <UNDEFINED> instruction: 18400612
 210:	0000197a 			@ <UNDEFINED> instruction: 0000197a
 214:	03001607 	movweq	r1, #1543	@ 0x607
 218:	3b0b3a0e 			@ <UNDEFINED> instruction: 3b0b3a0e
 21c:	490b390b 			@ <UNDEFINED> instruction: 490b390b
 220:	08000013 			@ <UNDEFINED> instruction: 08000013
 224:	13490035 	movtne	r0, #36917	@ 0x9035
 228:	13090000 	movwne	r0, #36864	@ 0x9000
 22c:	3a0b0b01 			@ <UNDEFINED> instruction: 3a0b0b01
 230:	053b0421 			@ <UNDEFINED> instruction: 053b0421
 234:	01092139 			@ <UNDEFINED> instruction: 01092139
 238:	0a000013 			@ <UNDEFINED> instruction: 0a000013
 23c:	0e030016 			@ <UNDEFINED> instruction: 0e030016
 240:	3b04213a 			@ <UNDEFINED> instruction: 3b04213a
 244:	03213905 			@ <UNDEFINED> instruction: 03213905
 248:	00001349 			@ <UNDEFINED> instruction: 00001349
 24c:	2501110b 			@ <UNDEFINED> instruction: 2501110b
 250:	030b130e 	movweq	r1, #45838	@ 0xb30e
 254:	110e1b0e 			@ <UNDEFINED> instruction: 110e1b0e
 258:	10061201 			@ <UNDEFINED> instruction: 10061201
 25c:	0c000017 			@ <UNDEFINED> instruction: 0c000017
 260:	0b0b0024 			@ <UNDEFINED> instruction: 0b0b0024
 264:	08030b3e 			@ <UNDEFINED> instruction: 08030b3e
 268:	01000000 			@ <UNDEFINED> instruction: 01000000
 26c:	0e03000d 			@ <UNDEFINED> instruction: 0e03000d
 270:	053b0b3a 			@ <UNDEFINED> instruction: 053b0b3a
 274:	13490b39 	movtne	r0, #39737	@ 0x9b39
 278:	00000b38 			@ <UNDEFINED> instruction: 00000b38
 27c:	03000d02 	movweq	r0, #3330	@ 0xd02
 280:	3b0b3a0e 			@ <UNDEFINED> instruction: 3b0b3a0e
 284:	490b390b 			@ <UNDEFINED> instruction: 490b390b
 288:	000b3813 			@ <UNDEFINED> instruction: 000b3813
 28c:	00050300 			@ <UNDEFINED> instruction: 00050300
 290:	00001349 			@ <UNDEFINED> instruction: 00001349
 294:	0b000f04 			@ <UNDEFINED> instruction: 0b000f04
 298:	13490421 	movtne	r0, #37921	@ 0x9421
 29c:	01050000 			@ <UNDEFINED> instruction: 01050000
 2a0:	01134901 			@ <UNDEFINED> instruction: 01134901
 2a4:	06000013 			@ <UNDEFINED> instruction: 06000013
 2a8:	13490021 	movtne	r0, #36897	@ 0x9021
 2ac:	00000b2f 			@ <UNDEFINED> instruction: 00000b2f
 2b0:	03001607 	movweq	r1, #1543	@ 0x607
 2b4:	3b0b3a0e 			@ <UNDEFINED> instruction: 3b0b3a0e
 2b8:	490b390b 			@ <UNDEFINED> instruction: 490b390b
 2bc:	08000013 			@ <UNDEFINED> instruction: 08000013
 2c0:	0b0b0024 			@ <UNDEFINED> instruction: 0b0b0024
 2c4:	0e030b3e 	vmoveq.16	d3[0], r0
 2c8:	48090000 			@ <UNDEFINED> instruction: 48090000
 2cc:	7f017d00 			@ <UNDEFINED> instruction: 7f017d00
 2d0:	0a000013 			@ <UNDEFINED> instruction: 0a000013
 2d4:	0803000d 			@ <UNDEFINED> instruction: 0803000d
 2d8:	3b07213a 			@ <UNDEFINED> instruction: 3b07213a
 2dc:	490b390b 			@ <UNDEFINED> instruction: 490b390b
 2e0:	000b3813 			@ <UNDEFINED> instruction: 000b3813
 2e4:	00490b00 			@ <UNDEFINED> instruction: 00490b00
 2e8:	187e1802 			@ <UNDEFINED> instruction: 187e1802
 2ec:	480c0000 			@ <UNDEFINED> instruction: 480c0000
 2f0:	7f017d01 			@ <UNDEFINED> instruction: 7f017d01
 2f4:	00130113 			@ <UNDEFINED> instruction: 00130113
 2f8:	00350d00 			@ <UNDEFINED> instruction: 00350d00
 2fc:	00001349 			@ <UNDEFINED> instruction: 00001349
 300:	03000d0e 	movweq	r0, #3342	@ 0xd0e
 304:	04213a08 			@ <UNDEFINED> instruction: 04213a08
 308:	2139053b 			@ <UNDEFINED> instruction: 2139053b
 30c:	38134912 			@ <UNDEFINED> instruction: 38134912
 310:	0f00000b 			@ <UNDEFINED> instruction: 0f00000b
 314:	13490026 	movtne	r0, #36902	@ 0x9026
 318:	2e100000 			@ <UNDEFINED> instruction: 2e100000
 31c:	03193f00 			@ <UNDEFINED> instruction: 03193f00
 320:	0a213a0e 			@ <UNDEFINED> instruction: 0a213a0e
 324:	21390b3b 			@ <UNDEFINED> instruction: 21390b3b
 328:	3c19270d 			@ <UNDEFINED> instruction: 3c19270d
 32c:	11000019 			@ <UNDEFINED> instruction: 11000019
 330:	0e030113 			@ <UNDEFINED> instruction: 0e030113
 334:	213a0b0b 			@ <UNDEFINED> instruction: 213a0b0b
 338:	390b3b07 			@ <UNDEFINED> instruction: 390b3b07
 33c:	13010821 	movwne	r0, #6177	@ 0x1821
 340:	15120000 			@ <UNDEFINED> instruction: 15120000
 344:	49192701 			@ <UNDEFINED> instruction: 49192701
 348:	00130113 			@ <UNDEFINED> instruction: 00130113
 34c:	00161300 			@ <UNDEFINED> instruction: 00161300
 350:	0b3a0e03 			@ <UNDEFINED> instruction: 0b3a0e03
 354:	0b39053b 			@ <UNDEFINED> instruction: 0b39053b
 358:	00001349 			@ <UNDEFINED> instruction: 00001349
 35c:	49003714 			@ <UNDEFINED> instruction: 49003714
 360:	15000013 			@ <UNDEFINED> instruction: 15000013
 364:	193f002e 			@ <UNDEFINED> instruction: 193f002e
 368:	213a0e03 			@ <UNDEFINED> instruction: 213a0e03
 36c:	390b3b0a 			@ <UNDEFINED> instruction: 390b3b0a
 370:	4919270b 			@ <UNDEFINED> instruction: 4919270b
 374:	00193c13 			@ <UNDEFINED> instruction: 00193c13
 378:	002e1600 			@ <UNDEFINED> instruction: 002e1600
 37c:	193c193f 			@ <UNDEFINED> instruction: 193c193f
 380:	0e030e6e 			@ <UNDEFINED> instruction: 0e030e6e
 384:	0d170000 			@ <UNDEFINED> instruction: 0d170000
 388:	3a0e0300 			@ <UNDEFINED> instruction: 3a0e0300
 38c:	0b3b0621 			@ <UNDEFINED> instruction: 0b3b0621
 390:	13490b39 	movtne	r0, #39737	@ 0x9b39
 394:	13180000 			@ <UNDEFINED> instruction: 13180000
 398:	3c0e0300 			@ <UNDEFINED> instruction: 3c0e0300
 39c:	19000019 			@ <UNDEFINED> instruction: 19000019
 3a0:	19270115 			@ <UNDEFINED> instruction: 19270115
 3a4:	00001301 			@ <UNDEFINED> instruction: 00001301
 3a8:	3f012e1a 			@ <UNDEFINED> instruction: 3f012e1a
 3ac:	3a0e0319 			@ <UNDEFINED> instruction: 3a0e0319
 3b0:	0b3b0921 			@ <UNDEFINED> instruction: 0b3b0921
 3b4:	27052139 	smladxcs	r5, r9, r1, r2
 3b8:	3c134919 			@ <UNDEFINED> instruction: 3c134919
 3bc:	00130119 			@ <UNDEFINED> instruction: 00130119
 3c0:	012e1b00 			@ <UNDEFINED> instruction: 012e1b00
 3c4:	0e03193f 			@ <UNDEFINED> instruction: 0e03193f
 3c8:	3b0a213a 			@ <UNDEFINED> instruction: 3b0a213a
 3cc:	0d21390b 			@ <UNDEFINED> instruction: 0d21390b
 3d0:	193c1927 			@ <UNDEFINED> instruction: 193c1927
 3d4:	00001301 			@ <UNDEFINED> instruction: 00001301
 3d8:	0300341c 	movweq	r3, #1052	@ 0x41c
 3dc:	01213a08 			@ <UNDEFINED> instruction: 01213a08
 3e0:	3912213b 			@ <UNDEFINED> instruction: 3912213b
 3e4:	0213490b 			@ <UNDEFINED> instruction: 0213490b
 3e8:	1d000018 			@ <UNDEFINED> instruction: 1d000018
 3ec:	0e250111 			@ <UNDEFINED> instruction: 0e250111
 3f0:	0e030b13 	vmoveq.32	d3[0], r0
 3f4:	17550e1b 	smmlane	r5, fp, lr, r0
 3f8:	17100111 			@ <UNDEFINED> instruction: 17100111
 3fc:	241e0000 			@ <UNDEFINED> instruction: 241e0000
 400:	3e0b0b00 	vmlacc.f64	d0, d11, d0
 404:	0008030b 			@ <UNDEFINED> instruction: 0008030b
 408:	01131f00 			@ <UNDEFINED> instruction: 01131f00
 40c:	0b3a0b0b 			@ <UNDEFINED> instruction: 0b3a0b0b
 410:	0b39053b 			@ <UNDEFINED> instruction: 0b39053b
 414:	00001301 			@ <UNDEFINED> instruction: 00001301
 418:	0b011720 			@ <UNDEFINED> instruction: 0b011720
 41c:	3b0b3a0b 			@ <UNDEFINED> instruction: 3b0b3a0b
 420:	010b390b 			@ <UNDEFINED> instruction: 010b390b
 424:	21000013 			@ <UNDEFINED> instruction: 21000013
 428:	0b0b0113 			@ <UNDEFINED> instruction: 0b0b0113
 42c:	0b3b0b3a 			@ <UNDEFINED> instruction: 0b3b0b3a
 430:	13010b39 	movwne	r0, #6969	@ 0x1b39
 434:	0f220000 			@ <UNDEFINED> instruction: 0f220000
 438:	000b0b00 			@ <UNDEFINED> instruction: 000b0b00
 43c:	01132300 			@ <UNDEFINED> instruction: 01132300
 440:	050b0e03 			@ <UNDEFINED> instruction: 050b0e03
 444:	053b0b3a 			@ <UNDEFINED> instruction: 053b0b3a
 448:	13010b39 	movwne	r0, #6969	@ 0x1b39
 44c:	0d240000 			@ <UNDEFINED> instruction: 0d240000
 450:	3a0e0300 			@ <UNDEFINED> instruction: 3a0e0300
 454:	39053b0b 			@ <UNDEFINED> instruction: 39053b0b
 458:	3813490b 			@ <UNDEFINED> instruction: 3813490b
 45c:	25000005 			@ <UNDEFINED> instruction: 25000005
 460:	0e030113 			@ <UNDEFINED> instruction: 0e030113
 464:	0b3a0b0b 			@ <UNDEFINED> instruction: 0b3a0b0b
 468:	0b39053b 			@ <UNDEFINED> instruction: 0b39053b
 46c:	00001301 			@ <UNDEFINED> instruction: 00001301
 470:	0b011326 			@ <UNDEFINED> instruction: 0b011326
 474:	3b0b3a05 			@ <UNDEFINED> instruction: 3b0b3a05
 478:	010b3905 			@ <UNDEFINED> instruction: 010b3905
 47c:	27000013 	smladcs	r0, r3, r0, r0
 480:	050b0117 			@ <UNDEFINED> instruction: 050b0117
 484:	053b0b3a 			@ <UNDEFINED> instruction: 053b0b3a
 488:	13010b39 	movwne	r0, #6969	@ 0x1b39
 48c:	0d280000 			@ <UNDEFINED> instruction: 0d280000
 490:	3a0e0300 			@ <UNDEFINED> instruction: 3a0e0300
 494:	39053b0b 			@ <UNDEFINED> instruction: 39053b0b
 498:	0013490b 			@ <UNDEFINED> instruction: 0013490b
 49c:	00342900 			@ <UNDEFINED> instruction: 00342900
 4a0:	0b3a0e03 			@ <UNDEFINED> instruction: 0b3a0e03
 4a4:	0b39053b 			@ <UNDEFINED> instruction: 0b39053b
 4a8:	193f1349 			@ <UNDEFINED> instruction: 193f1349
 4ac:	0000193c 			@ <UNDEFINED> instruction: 0000193c
 4b0:	0000182a 			@ <UNDEFINED> instruction: 0000182a
 4b4:	012e2b00 			@ <UNDEFINED> instruction: 012e2b00
 4b8:	0e03193f 			@ <UNDEFINED> instruction: 0e03193f
 4bc:	0b3b0b3a 			@ <UNDEFINED> instruction: 0b3b0b3a
 4c0:	19270b39 			@ <UNDEFINED> instruction: 19270b39
 4c4:	06120111 			@ <UNDEFINED> instruction: 06120111
 4c8:	197a1840 			@ <UNDEFINED> instruction: 197a1840
 4cc:	00001301 			@ <UNDEFINED> instruction: 00001301
 4d0:	0300342c 	movweq	r3, #1068	@ 0x42c
 4d4:	3b0b3a08 			@ <UNDEFINED> instruction: 3b0b3a08
 4d8:	490b390b 			@ <UNDEFINED> instruction: 490b390b
 4dc:	b7170213 			@ <UNDEFINED> instruction: b7170213
 4e0:	00001742 			@ <UNDEFINED> instruction: 00001742
 4e4:	31011d2d 			@ <UNDEFINED> instruction: 31011d2d
 4e8:	b8015213 			@ <UNDEFINED> instruction: b8015213
 4ec:	17550b42 			@ <UNDEFINED> instruction: 17550b42
 4f0:	0b590b58 			@ <UNDEFINED> instruction: 0b590b58
 4f4:	13010b57 	movwne	r0, #6999	@ 0x1b57
 4f8:	052e0000 			@ <UNDEFINED> instruction: 052e0000
 4fc:	02133100 			@ <UNDEFINED> instruction: 02133100
 500:	1742b717 	smlaldne	fp, r2, r7, r7
 504:	2e2f0000 			@ <UNDEFINED> instruction: 2e2f0000
 508:	3a0e0301 			@ <UNDEFINED> instruction: 3a0e0301
 50c:	390b3b0b 			@ <UNDEFINED> instruction: 390b3b0b
 510:	2019270b 			@ <UNDEFINED> instruction: 2019270b
 514:	0013010b 			@ <UNDEFINED> instruction: 0013010b
 518:	00053000 			@ <UNDEFINED> instruction: 00053000
 51c:	0b3a0e03 			@ <UNDEFINED> instruction: 0b3a0e03
 520:	0b390b3b 			@ <UNDEFINED> instruction: 0b390b3b
 524:	00001349 			@ <UNDEFINED> instruction: 00001349
 528:	00160100 			@ <UNDEFINED> instruction: 00160100
 52c:	0b3a0e03 			@ <UNDEFINED> instruction: 0b3a0e03
 530:	0b390b3b 			@ <UNDEFINED> instruction: 0b390b3b
 534:	00001349 			@ <UNDEFINED> instruction: 00001349
 538:	03000d02 	movweq	r0, #3330	@ 0xd02
 53c:	3b0b3a0e 			@ <UNDEFINED> instruction: 3b0b3a0e
 540:	490b390b 			@ <UNDEFINED> instruction: 490b390b
 544:	000b3813 			@ <UNDEFINED> instruction: 000b3813
 548:	00240300 			@ <UNDEFINED> instruction: 00240300
 54c:	0b3e0b0b 			@ <UNDEFINED> instruction: 0b3e0b0b
 550:	00000e03 			@ <UNDEFINED> instruction: 00000e03
 554:	3f012e04 			@ <UNDEFINED> instruction: 3f012e04
 558:	3a0e0319 			@ <UNDEFINED> instruction: 3a0e0319
 55c:	0b3b0121 			@ <UNDEFINED> instruction: 0b3b0121
 560:	27052139 	smladxcs	r5, r9, r1, r2
 564:	11134919 			@ <UNDEFINED> instruction: 11134919
 568:	40061201 			@ <UNDEFINED> instruction: 40061201
 56c:	01197a18 			@ <UNDEFINED> instruction: 01197a18
 570:	05000013 			@ <UNDEFINED> instruction: 05000013
 574:	0e030005 			@ <UNDEFINED> instruction: 0e030005
 578:	3b01213a 			@ <UNDEFINED> instruction: 3b01213a
 57c:	490b390b 			@ <UNDEFINED> instruction: 490b390b
 580:	b7170213 			@ <UNDEFINED> instruction: b7170213
 584:	00001742 			@ <UNDEFINED> instruction: 00001742
 588:	03000506 	movweq	r0, #1286	@ 0x506
 58c:	01213a08 			@ <UNDEFINED> instruction: 01213a08
 590:	0b390b3b 			@ <UNDEFINED> instruction: 0b390b3b
 594:	17021349 			@ <UNDEFINED> instruction: 17021349
 598:	001742b7 			@ <UNDEFINED> instruction: 001742b7
 59c:	00050700 			@ <UNDEFINED> instruction: 00050700
 5a0:	213a0803 			@ <UNDEFINED> instruction: 213a0803
 5a4:	390b3b01 			@ <UNDEFINED> instruction: 390b3b01
 5a8:	0213490b 			@ <UNDEFINED> instruction: 0213490b
 5ac:	08000018 			@ <UNDEFINED> instruction: 08000018
 5b0:	210b000f 			@ <UNDEFINED> instruction: 210b000f
 5b4:	00134904 			@ <UNDEFINED> instruction: 00134904
 5b8:	01130900 			@ <UNDEFINED> instruction: 01130900
 5bc:	0b0b0e03 			@ <UNDEFINED> instruction: 0b0b0e03
 5c0:	0b3b0b3a 			@ <UNDEFINED> instruction: 0b3b0b3a
 5c4:	01082139 			@ <UNDEFINED> instruction: 01082139
 5c8:	0a000013 			@ <UNDEFINED> instruction: 0a000013
 5cc:	017d0048 			@ <UNDEFINED> instruction: 017d0048
 5d0:	0000137f 			@ <UNDEFINED> instruction: 0000137f
 5d4:	0300340b 	movweq	r3, #1035	@ 0x40b
 5d8:	01213a0e 			@ <UNDEFINED> instruction: 01213a0e
 5dc:	21390b3b 			@ <UNDEFINED> instruction: 21390b3b
 5e0:	02134909 			@ <UNDEFINED> instruction: 02134909
 5e4:	1742b717 	smlaldne	fp, r2, r7, r7
 5e8:	110c0000 			@ <UNDEFINED> instruction: 110c0000
 5ec:	130e2501 	movwne	r2, #58625	@ 0xe501
 5f0:	1b0e030b 			@ <UNDEFINED> instruction: 1b0e030b
 5f4:	1201110e 			@ <UNDEFINED> instruction: 1201110e
 5f8:	00171006 			@ <UNDEFINED> instruction: 00171006
 5fc:	00240d00 			@ <UNDEFINED> instruction: 00240d00
 600:	0b3e0b0b 			@ <UNDEFINED> instruction: 0b3e0b0b
 604:	00000803 			@ <UNDEFINED> instruction: 00000803
 608:	4901010e 			@ <UNDEFINED> instruction: 4901010e
 60c:	00130113 			@ <UNDEFINED> instruction: 00130113
 610:	00210f00 			@ <UNDEFINED> instruction: 00210f00
 614:	0b2f1349 			@ <UNDEFINED> instruction: 0b2f1349
 618:	2e100000 			@ <UNDEFINED> instruction: 2e100000
 61c:	03193f00 			@ <UNDEFINED> instruction: 03193f00
 620:	3b0b3a0e 			@ <UNDEFINED> instruction: 3b0b3a0e
 624:	270b390b 			@ <UNDEFINED> instruction: 270b390b
 628:	3c134919 			@ <UNDEFINED> instruction: 3c134919
 62c:	11000019 			@ <UNDEFINED> instruction: 11000019
 630:	193f012e 			@ <UNDEFINED> instruction: 193f012e
 634:	0b3a0e03 			@ <UNDEFINED> instruction: 0b3a0e03
 638:	0b390b3b 			@ <UNDEFINED> instruction: 0b390b3b
 63c:	193c1927 			@ <UNDEFINED> instruction: 193c1927
 640:	00001301 			@ <UNDEFINED> instruction: 00001301
 644:	49000512 			@ <UNDEFINED> instruction: 49000512
 648:	13000013 	movwne	r0, #19
 64c:	193f002e 			@ <UNDEFINED> instruction: 193f002e
 650:	0b3a0e03 			@ <UNDEFINED> instruction: 0b3a0e03
 654:	0b390b3b 			@ <UNDEFINED> instruction: 0b390b3b
 658:	13491927 	movtne	r1, #39207	@ 0x9927
 65c:	06120111 			@ <UNDEFINED> instruction: 06120111
 660:	197a1840 			@ <UNDEFINED> instruction: 197a1840
 664:	0b140000 			@ <UNDEFINED> instruction: 0b140000
 668:	00175501 			@ <UNDEFINED> instruction: 00175501
 66c:	00341500 			@ <UNDEFINED> instruction: 00341500
 670:	0b3a0803 			@ <UNDEFINED> instruction: 0b3a0803
 674:	0b390b3b 			@ <UNDEFINED> instruction: 0b390b3b
 678:	0b1c1349 			@ <UNDEFINED> instruction: 0b1c1349
 67c:	2e160000 			@ <UNDEFINED> instruction: 2e160000
 680:	03193f01 			@ <UNDEFINED> instruction: 03193f01
 684:	3b0b3a0e 			@ <UNDEFINED> instruction: 3b0b3a0e
 688:	270b390b 			@ <UNDEFINED> instruction: 270b390b
 68c:	11134919 			@ <UNDEFINED> instruction: 11134919
 690:	40061201 			@ <UNDEFINED> instruction: 40061201
 694:	00197a18 			@ <UNDEFINED> instruction: 00197a18
 698:	00341700 			@ <UNDEFINED> instruction: 00341700
 69c:	0b3a0e03 			@ <UNDEFINED> instruction: 0b3a0e03
 6a0:	0b390b3b 			@ <UNDEFINED> instruction: 0b390b3b
 6a4:	193f1349 			@ <UNDEFINED> instruction: 193f1349
 6a8:	0000193c 			@ <UNDEFINED> instruction: 0000193c
 6ac:	03003418 	movweq	r3, #1048	@ 0x418
 6b0:	3b0b3a0e 			@ <UNDEFINED> instruction: 3b0b3a0e
 6b4:	490b390b 			@ <UNDEFINED> instruction: 490b390b
 6b8:	00180213 			@ <UNDEFINED> instruction: 00180213
 6bc:	0d010000 			@ <UNDEFINED> instruction: 0d010000
 6c0:	3a0e0300 			@ <UNDEFINED> instruction: 3a0e0300
 6c4:	39053b0b 			@ <UNDEFINED> instruction: 39053b0b
 6c8:	3813490b 			@ <UNDEFINED> instruction: 3813490b
 6cc:	0200000b 			@ <UNDEFINED> instruction: 0200000b
 6d0:	0b0b0024 			@ <UNDEFINED> instruction: 0b0b0024
 6d4:	0e030b3e 	vmoveq.16	d3[0], r0
 6d8:	0d030000 			@ <UNDEFINED> instruction: 0d030000
 6dc:	3a080300 			@ <UNDEFINED> instruction: 3a080300
 6e0:	39053b0b 			@ <UNDEFINED> instruction: 39053b0b
 6e4:	3813490b 			@ <UNDEFINED> instruction: 3813490b
 6e8:	0400000b 			@ <UNDEFINED> instruction: 0400000b
 6ec:	13490101 	movtne	r0, #37121	@ 0x9101
 6f0:	00001301 			@ <UNDEFINED> instruction: 00001301
 6f4:	49002105 			@ <UNDEFINED> instruction: 49002105
 6f8:	000b2f13 			@ <UNDEFINED> instruction: 000b2f13
 6fc:	00260600 			@ <UNDEFINED> instruction: 00260600
 700:	00001349 			@ <UNDEFINED> instruction: 00001349
 704:	49003507 			@ <UNDEFINED> instruction: 49003507
 708:	08000013 			@ <UNDEFINED> instruction: 08000013
 70c:	0e030016 			@ <UNDEFINED> instruction: 0e030016
 710:	0b3b0b3a 			@ <UNDEFINED> instruction: 0b3b0b3a
 714:	13490b39 	movtne	r0, #39737	@ 0x9b39
 718:	34090000 			@ <UNDEFINED> instruction: 34090000
 71c:	3a0e0300 			@ <UNDEFINED> instruction: 3a0e0300
 720:	213b0121 			@ <UNDEFINED> instruction: 213b0121
 724:	0b3901de 			@ <UNDEFINED> instruction: 0b3901de
 728:	17021349 			@ <UNDEFINED> instruction: 17021349
 72c:	001742b7 			@ <UNDEFINED> instruction: 001742b7
 730:	00340a00 			@ <UNDEFINED> instruction: 00340a00
 734:	213a0e03 			@ <UNDEFINED> instruction: 213a0e03
 738:	390b3b05 			@ <UNDEFINED> instruction: 390b3b05
 73c:	3f13490b 			@ <UNDEFINED> instruction: 3f13490b
 740:	00193c19 			@ <UNDEFINED> instruction: 00193c19
 744:	00340b00 			@ <UNDEFINED> instruction: 00340b00
 748:	213a1347 			@ <UNDEFINED> instruction: 213a1347
 74c:	390b3b01 			@ <UNDEFINED> instruction: 390b3b01
 750:	0018020b 			@ <UNDEFINED> instruction: 0018020b
 754:	01130c00 			@ <UNDEFINED> instruction: 01130c00
 758:	0b3a0b0b 			@ <UNDEFINED> instruction: 0b3a0b0b
 75c:	2139053b 			@ <UNDEFINED> instruction: 2139053b
 760:	00130109 			@ <UNDEFINED> instruction: 00130109
 764:	00160d00 			@ <UNDEFINED> instruction: 00160d00
 768:	0b3a0e03 			@ <UNDEFINED> instruction: 0b3a0e03
 76c:	2139053b 			@ <UNDEFINED> instruction: 2139053b
 770:	00134903 			@ <UNDEFINED> instruction: 00134903
 774:	01110e00 			@ <UNDEFINED> instruction: 01110e00
 778:	0b130e25 			@ <UNDEFINED> instruction: 0b130e25
 77c:	0e1b0e03 			@ <UNDEFINED> instruction: 0e1b0e03
 780:	06120111 			@ <UNDEFINED> instruction: 06120111
 784:	00001710 			@ <UNDEFINED> instruction: 00001710
 788:	0b00240f 			@ <UNDEFINED> instruction: 0b00240f
 78c:	030b3e0b 	movweq	r3, #48651	@ 0xbe0b
 790:	10000008 			@ <UNDEFINED> instruction: 10000008
 794:	193f012e 			@ <UNDEFINED> instruction: 193f012e
 798:	0b3a0e03 			@ <UNDEFINED> instruction: 0b3a0e03
 79c:	0b390b3b 			@ <UNDEFINED> instruction: 0b390b3b
 7a0:	01111927 			@ <UNDEFINED> instruction: 01111927
 7a4:	18400612 			@ <UNDEFINED> instruction: 18400612
 7a8:	1301197a 	movwne	r1, #6522	@ 0x197a
 7ac:	34110000 			@ <UNDEFINED> instruction: 34110000
 7b0:	3a080300 			@ <UNDEFINED> instruction: 3a080300
 7b4:	390b3b0b 			@ <UNDEFINED> instruction: 390b3b0b
 7b8:	0213490b 			@ <UNDEFINED> instruction: 0213490b
 7bc:	1742b717 	smlaldne	fp, r2, r7, r7
 7c0:	2e120000 			@ <UNDEFINED> instruction: 2e120000
 7c4:	03193f00 			@ <UNDEFINED> instruction: 03193f00
 7c8:	3b0b3a0e 			@ <UNDEFINED> instruction: 3b0b3a0e
 7cc:	270b390b 			@ <UNDEFINED> instruction: 270b390b
 7d0:	12011119 			@ <UNDEFINED> instruction: 12011119
 7d4:	7a184006 			@ <UNDEFINED> instruction: 7a184006
 7d8:	00000019 			@ <UNDEFINED> instruction: 00000019
 7dc:	0b002401 			@ <UNDEFINED> instruction: 0b002401
 7e0:	030b3e0b 	movweq	r3, #48651	@ 0xbe0b
 7e4:	0200000e 			@ <UNDEFINED> instruction: 0200000e
 7e8:	0e03000d 			@ <UNDEFINED> instruction: 0e03000d
 7ec:	3b04213a 			@ <UNDEFINED> instruction: 3b04213a
 7f0:	12213905 			@ <UNDEFINED> instruction: 12213905
 7f4:	0b381349 			@ <UNDEFINED> instruction: 0b381349
 7f8:	2e030000 			@ <UNDEFINED> instruction: 2e030000
 7fc:	03193f00 			@ <UNDEFINED> instruction: 03193f00
 800:	01213a0e 			@ <UNDEFINED> instruction: 01213a0e
 804:	0b390b3b 			@ <UNDEFINED> instruction: 0b390b3b
 808:	13491927 	movtne	r1, #39207	@ 0x9927
 80c:	06120111 			@ <UNDEFINED> instruction: 06120111
 810:	197a1840 			@ <UNDEFINED> instruction: 197a1840
 814:	16040000 			@ <UNDEFINED> instruction: 16040000
 818:	3a0e0300 			@ <UNDEFINED> instruction: 3a0e0300
 81c:	390b3b0b 			@ <UNDEFINED> instruction: 390b3b0b
 820:	0013490b 			@ <UNDEFINED> instruction: 0013490b
 824:	01110500 			@ <UNDEFINED> instruction: 01110500
 828:	0b130e25 			@ <UNDEFINED> instruction: 0b130e25
 82c:	0e1b0e03 			@ <UNDEFINED> instruction: 0e1b0e03
 830:	06120111 			@ <UNDEFINED> instruction: 06120111
 834:	00001710 			@ <UNDEFINED> instruction: 00001710
 838:	0b002406 			@ <UNDEFINED> instruction: 0b002406
 83c:	030b3e0b 	movweq	r3, #48651	@ 0xbe0b
 840:	07000008 			@ <UNDEFINED> instruction: 07000008
 844:	13490035 	movtne	r0, #36917	@ 0x9035
 848:	26080000 			@ <UNDEFINED> instruction: 26080000
 84c:	00134900 			@ <UNDEFINED> instruction: 00134900
 850:	01130900 			@ <UNDEFINED> instruction: 01130900
 854:	0b3a0b0b 			@ <UNDEFINED> instruction: 0b3a0b0b
 858:	0b39053b 			@ <UNDEFINED> instruction: 0b39053b
 85c:	00001301 			@ <UNDEFINED> instruction: 00001301
 860:	03000d0a 	movweq	r0, #3338	@ 0xd0a
 864:	3b0b3a08 			@ <UNDEFINED> instruction: 3b0b3a08
 868:	490b3905 			@ <UNDEFINED> instruction: 490b3905
 86c:	000b3813 			@ <UNDEFINED> instruction: 000b3813
 870:	00160b00 			@ <UNDEFINED> instruction: 00160b00
 874:	0b3a0e03 			@ <UNDEFINED> instruction: 0b3a0e03
 878:	0b39053b 			@ <UNDEFINED> instruction: 0b39053b
 87c:	00001349 			@ <UNDEFINED> instruction: 00001349
 880:	3f002e0c 			@ <UNDEFINED> instruction: 3f002e0c
 884:	3a0e0319 			@ <UNDEFINED> instruction: 3a0e0319
 888:	390b3b0b 			@ <UNDEFINED> instruction: 390b3b0b
 88c:	1119270b 			@ <UNDEFINED> instruction: 1119270b
 890:	40061201 			@ <UNDEFINED> instruction: 40061201
 894:	00197a18 			@ <UNDEFINED> instruction: 00197a18
 898:	012e0d00 			@ <UNDEFINED> instruction: 012e0d00
 89c:	0e03193f 			@ <UNDEFINED> instruction: 0e03193f
 8a0:	0b3b0b3a 			@ <UNDEFINED> instruction: 0b3b0b3a
 8a4:	19270b39 			@ <UNDEFINED> instruction: 19270b39
 8a8:	06120111 			@ <UNDEFINED> instruction: 06120111
 8ac:	197a1840 			@ <UNDEFINED> instruction: 197a1840
 8b0:	050e0000 			@ <UNDEFINED> instruction: 050e0000
 8b4:	3a0e0300 			@ <UNDEFINED> instruction: 3a0e0300
 8b8:	390b3b0b 			@ <UNDEFINED> instruction: 390b3b0b
 8bc:	0213490b 			@ <UNDEFINED> instruction: 0213490b
 8c0:	1742b717 	smlaldne	fp, r2, r7, r7
 8c4:	01000000 			@ <UNDEFINED> instruction: 01000000
 8c8:	0e03000d 			@ <UNDEFINED> instruction: 0e03000d
 8cc:	3b04213a 			@ <UNDEFINED> instruction: 3b04213a
 8d0:	11213905 			@ <UNDEFINED> instruction: 11213905
 8d4:	0b381349 			@ <UNDEFINED> instruction: 0b381349
 8d8:	48020000 			@ <UNDEFINED> instruction: 48020000
 8dc:	7f017d00 			@ <UNDEFINED> instruction: 7f017d00
 8e0:	03000013 	movweq	r0, #19
 8e4:	0803000d 			@ <UNDEFINED> instruction: 0803000d
 8e8:	3b04213a 			@ <UNDEFINED> instruction: 3b04213a
 8ec:	11213905 			@ <UNDEFINED> instruction: 11213905
 8f0:	0b381349 			@ <UNDEFINED> instruction: 0b381349
 8f4:	24040000 			@ <UNDEFINED> instruction: 24040000
 8f8:	3e0b0b00 	vmlacc.f64	d0, d11, d0
 8fc:	000e030b 			@ <UNDEFINED> instruction: 000e030b
 900:	002e0500 			@ <UNDEFINED> instruction: 002e0500
 904:	193c193f 			@ <UNDEFINED> instruction: 193c193f
 908:	0e030e6e 			@ <UNDEFINED> instruction: 0e030e6e
 90c:	16060000 			@ <UNDEFINED> instruction: 16060000
 910:	3a0e0300 			@ <UNDEFINED> instruction: 3a0e0300
 914:	390b3b0b 			@ <UNDEFINED> instruction: 390b3b0b
 918:	0013490b 			@ <UNDEFINED> instruction: 0013490b
 91c:	01010700 			@ <UNDEFINED> instruction: 01010700
 920:	13011349 	movwne	r1, #4937	@ 0x1349
 924:	21080000 			@ <UNDEFINED> instruction: 21080000
 928:	2f134900 			@ <UNDEFINED> instruction: 2f134900
 92c:	0900000b 			@ <UNDEFINED> instruction: 0900000b
 930:	193f012e 			@ <UNDEFINED> instruction: 193f012e
 934:	213a0e03 			@ <UNDEFINED> instruction: 213a0e03
 938:	390b3b01 			@ <UNDEFINED> instruction: 390b3b01
 93c:	19270621 			@ <UNDEFINED> instruction: 19270621
 940:	06120111 			@ <UNDEFINED> instruction: 06120111
 944:	197a1840 			@ <UNDEFINED> instruction: 197a1840
 948:	00001301 			@ <UNDEFINED> instruction: 00001301
 94c:	3100050a 			@ <UNDEFINED> instruction: 3100050a
 950:	b7170213 			@ <UNDEFINED> instruction: b7170213
 954:	00001742 			@ <UNDEFINED> instruction: 00001742
 958:	0300340b 	movweq	r3, #1035	@ 0x40b
 95c:	01213a0e 			@ <UNDEFINED> instruction: 01213a0e
 960:	21390b3b 			@ <UNDEFINED> instruction: 21390b3b
 964:	02134910 			@ <UNDEFINED> instruction: 02134910
 968:	1742b717 	smlaldne	fp, r2, r7, r7
 96c:	350c0000 			@ <UNDEFINED> instruction: 350c0000
 970:	00134900 			@ <UNDEFINED> instruction: 00134900
 974:	01130d00 			@ <UNDEFINED> instruction: 01130d00
 978:	213a0b0b 			@ <UNDEFINED> instruction: 213a0b0b
 97c:	39053b04 			@ <UNDEFINED> instruction: 39053b04
 980:	13010921 	movwne	r0, #6433	@ 0x1921
 984:	160e0000 			@ <UNDEFINED> instruction: 160e0000
 988:	3a0e0300 			@ <UNDEFINED> instruction: 3a0e0300
 98c:	053b0421 			@ <UNDEFINED> instruction: 053b0421
 990:	49032139 			@ <UNDEFINED> instruction: 49032139
 994:	0f000013 			@ <UNDEFINED> instruction: 0f000013
 998:	13490005 	movtne	r0, #36869	@ 0x9005
 99c:	34100000 			@ <UNDEFINED> instruction: 34100000
 9a0:	3a080300 			@ <UNDEFINED> instruction: 3a080300
 9a4:	0b3b0121 			@ <UNDEFINED> instruction: 0b3b0121
 9a8:	13490b39 	movtne	r0, #39737	@ 0x9b39
 9ac:	00001802 			@ <UNDEFINED> instruction: 00001802
 9b0:	02004911 			@ <UNDEFINED> instruction: 02004911
 9b4:	00187e18 			@ <UNDEFINED> instruction: 00187e18
 9b8:	000f1200 			@ <UNDEFINED> instruction: 000f1200
 9bc:	4904210b 			@ <UNDEFINED> instruction: 4904210b
 9c0:	13000013 	movwne	r0, #19
 9c4:	13490037 	movtne	r0, #36919	@ 0x9037
 9c8:	2e140000 			@ <UNDEFINED> instruction: 2e140000
 9cc:	03193f00 			@ <UNDEFINED> instruction: 03193f00
 9d0:	01213a0e 			@ <UNDEFINED> instruction: 01213a0e
 9d4:	21390b3b 			@ <UNDEFINED> instruction: 21390b3b
 9d8:	49192706 			@ <UNDEFINED> instruction: 49192706
 9dc:	12011113 			@ <UNDEFINED> instruction: 12011113
 9e0:	7a184006 			@ <UNDEFINED> instruction: 7a184006
 9e4:	15000019 			@ <UNDEFINED> instruction: 15000019
 9e8:	1331011d 			@ <UNDEFINED> instruction: 1331011d
 9ec:	42b80152 			@ <UNDEFINED> instruction: 42b80152
 9f0:	5817550b 			@ <UNDEFINED> instruction: 5817550b
 9f4:	0b590121 			@ <UNDEFINED> instruction: 0b590121
 9f8:	00052157 			@ <UNDEFINED> instruction: 00052157
 9fc:	012e1600 			@ <UNDEFINED> instruction: 012e1600
 a00:	0e03193f 			@ <UNDEFINED> instruction: 0e03193f
 a04:	3b01213a 			@ <UNDEFINED> instruction: 3b01213a
 a08:	0621390b 			@ <UNDEFINED> instruction: 0621390b
 a0c:	21201927 			@ <UNDEFINED> instruction: 21201927
 a10:	00130101 			@ <UNDEFINED> instruction: 00130101
 a14:	00051700 			@ <UNDEFINED> instruction: 00051700
 a18:	213a0e03 			@ <UNDEFINED> instruction: 213a0e03
 a1c:	390b3b01 			@ <UNDEFINED> instruction: 390b3b01
 a20:	13491521 	movtne	r1, #38177	@ 0x9521
 a24:	42b71702 			@ <UNDEFINED> instruction: 42b71702
 a28:	18000017 			@ <UNDEFINED> instruction: 18000017
 a2c:	08030034 			@ <UNDEFINED> instruction: 08030034
 a30:	3b01213a 			@ <UNDEFINED> instruction: 3b01213a
 a34:	0a21390b 			@ <UNDEFINED> instruction: 0a21390b
 a38:	17021349 			@ <UNDEFINED> instruction: 17021349
 a3c:	001742b7 			@ <UNDEFINED> instruction: 001742b7
 a40:	012e1900 			@ <UNDEFINED> instruction: 012e1900
 a44:	01111331 			@ <UNDEFINED> instruction: 01111331
 a48:	18400612 			@ <UNDEFINED> instruction: 18400612
 a4c:	1301197a 	movwne	r1, #6522	@ 0x197a
 a50:	111a0000 			@ <UNDEFINED> instruction: 111a0000
 a54:	130e2501 	movwne	r2, #58625	@ 0xe501
 a58:	1b0e030b 			@ <UNDEFINED> instruction: 1b0e030b
 a5c:	1201110e 			@ <UNDEFINED> instruction: 1201110e
 a60:	00171006 			@ <UNDEFINED> instruction: 00171006
 a64:	00241b00 			@ <UNDEFINED> instruction: 00241b00
 a68:	0b3e0b0b 			@ <UNDEFINED> instruction: 0b3e0b0b
 a6c:	00000803 			@ <UNDEFINED> instruction: 00000803
 a70:	0b000f1c 			@ <UNDEFINED> instruction: 0b000f1c
 a74:	1d00000b 			@ <UNDEFINED> instruction: 1d00000b
 a78:	0e030113 			@ <UNDEFINED> instruction: 0e030113
 a7c:	0b3a0b0b 			@ <UNDEFINED> instruction: 0b3a0b0b
 a80:	13010b3b 	movwne	r0, #6971	@ 0x1b3b
 a84:	0d1e0000 			@ <UNDEFINED> instruction: 0d1e0000
 a88:	490e0300 			@ <UNDEFINED> instruction: 490e0300
 a8c:	340b3813 			@ <UNDEFINED> instruction: 340b3813
 a90:	1f000019 			@ <UNDEFINED> instruction: 1f000019
 a94:	13490026 	movtne	r0, #36902	@ 0x9026
 a98:	2e200000 			@ <UNDEFINED> instruction: 2e200000
 a9c:	03193f01 			@ <UNDEFINED> instruction: 03193f01
 aa0:	3b0b3a0e 			@ <UNDEFINED> instruction: 3b0b3a0e
 aa4:	270b390b 			@ <UNDEFINED> instruction: 270b390b
 aa8:	3c134919 			@ <UNDEFINED> instruction: 3c134919
 aac:	00130119 			@ <UNDEFINED> instruction: 00130119
 ab0:	00052100 			@ <UNDEFINED> instruction: 00052100
 ab4:	0b3a0803 			@ <UNDEFINED> instruction: 0b3a0803
 ab8:	0b390b3b 			@ <UNDEFINED> instruction: 0b390b3b
 abc:	17021349 			@ <UNDEFINED> instruction: 17021349
 ac0:	001742b7 			@ <UNDEFINED> instruction: 001742b7
 ac4:	00182200 			@ <UNDEFINED> instruction: 00182200
 ac8:	34230000 			@ <UNDEFINED> instruction: 34230000
 acc:	3a0e0300 			@ <UNDEFINED> instruction: 3a0e0300
 ad0:	390b3b0b 			@ <UNDEFINED> instruction: 390b3b0b
 ad4:	0213490b 			@ <UNDEFINED> instruction: 0213490b
 ad8:	24000018 			@ <UNDEFINED> instruction: 24000018
 adc:	1331011d 			@ <UNDEFINED> instruction: 1331011d
 ae0:	42b80152 			@ <UNDEFINED> instruction: 42b80152
 ae4:	5817550b 			@ <UNDEFINED> instruction: 5817550b
 ae8:	570b590b 			@ <UNDEFINED> instruction: 570b590b
 aec:	0013010b 			@ <UNDEFINED> instruction: 0013010b
 af0:	01482500 			@ <UNDEFINED> instruction: 01482500
 af4:	137f017d 			@ <UNDEFINED> instruction: 137f017d
 af8:	05260000 			@ <UNDEFINED> instruction: 05260000
 afc:	3a080300 			@ <UNDEFINED> instruction: 3a080300
 b00:	390b3b0b 			@ <UNDEFINED> instruction: 390b3b0b
 b04:	0013490b 			@ <UNDEFINED> instruction: 0013490b
 b08:	00052700 			@ <UNDEFINED> instruction: 00052700
 b0c:	0b3a0e03 			@ <UNDEFINED> instruction: 0b3a0e03
 b10:	0b390b3b 			@ <UNDEFINED> instruction: 0b390b3b
 b14:	00001349 			@ <UNDEFINED> instruction: 00001349
 b18:	03000528 	movweq	r0, #1320	@ 0x528
 b1c:	3b0b3a0e 			@ <UNDEFINED> instruction: 3b0b3a0e
 b20:	490b390b 			@ <UNDEFINED> instruction: 490b390b
 b24:	00180213 			@ <UNDEFINED> instruction: 00180213
 b28:	00052900 			@ <UNDEFINED> instruction: 00052900
 b2c:	18021331 			@ <UNDEFINED> instruction: 18021331
 b30:	01000000 			@ <UNDEFINED> instruction: 01000000
 b34:	17100011 			@ <UNDEFINED> instruction: 17100011
 b38:	0f120111 			@ <UNDEFINED> instruction: 0f120111
 b3c:	0e1b0e03 			@ <UNDEFINED> instruction: 0e1b0e03
 b40:	05130e25 			@ <UNDEFINED> instruction: 05130e25
 b44:	Address 0xb44 is out of bounds.


Disassembly of section .debug_aranges:

00000000 <.debug_aranges>:
   0:	0000001c 			@ <UNDEFINED> instruction: 0000001c
   4:	00000002 			@ <UNDEFINED> instruction: 00000002
   8:	00040000 			@ <UNDEFINED> instruction: 00040000
   c:	00000000 			@ <UNDEFINED> instruction: 00000000
  10:	08000070 			@ <UNDEFINED> instruction: 08000070
  14:	00000060 			@ <UNDEFINED> instruction: 00000060
	...
  20:	0000001c 			@ <UNDEFINED> instruction: 0000001c
  24:	02bb0002 			@ <UNDEFINED> instruction: 02bb0002
  28:	00040000 			@ <UNDEFINED> instruction: 00040000
  2c:	00000000 			@ <UNDEFINED> instruction: 00000000
  30:	080000d0 			@ <UNDEFINED> instruction: 080000d0
  34:	00000054 			@ <UNDEFINED> instruction: 00000054
	...
  40:	0000001c 			@ <UNDEFINED> instruction: 0000001c
  44:	05da0002 			@ <UNDEFINED> instruction: 05da0002
  48:	00040000 			@ <UNDEFINED> instruction: 00040000
  4c:	00000000 			@ <UNDEFINED> instruction: 00000000
  50:	08000124 			@ <UNDEFINED> instruction: 08000124
  54:	00000054 			@ <UNDEFINED> instruction: 00000054
	...
  60:	0000001c 			@ <UNDEFINED> instruction: 0000001c
  64:	08e30002 			@ <UNDEFINED> instruction: 08e30002
  68:	00040000 			@ <UNDEFINED> instruction: 00040000
  6c:	00000000 			@ <UNDEFINED> instruction: 00000000
  70:	08000178 			@ <UNDEFINED> instruction: 08000178
  74:	00000100 			@ <UNDEFINED> instruction: 00000100
	...
  80:	0000001c 			@ <UNDEFINED> instruction: 0000001c
  84:	14860002 			@ <UNDEFINED> instruction: 14860002
  88:	00040000 			@ <UNDEFINED> instruction: 00040000
  8c:	00000000 			@ <UNDEFINED> instruction: 00000000
  90:	08000278 			@ <UNDEFINED> instruction: 08000278
  94:	00000088 			@ <UNDEFINED> instruction: 00000088
	...
  a0:	0000001c 			@ <UNDEFINED> instruction: 0000001c
  a4:	197b0002 			@ <UNDEFINED> instruction: 197b0002
  a8:	00040000 			@ <UNDEFINED> instruction: 00040000
  ac:	00000000 			@ <UNDEFINED> instruction: 00000000
  b0:	08000300 			@ <UNDEFINED> instruction: 08000300
  b4:	00000084 			@ <UNDEFINED> instruction: 00000084
	...
  c0:	0000001c 			@ <UNDEFINED> instruction: 0000001c
  c4:	1ec70002 			@ <UNDEFINED> instruction: 1ec70002
  c8:	00040000 			@ <UNDEFINED> instruction: 00040000
  cc:	00000000 			@ <UNDEFINED> instruction: 00000000
  d0:	08000384 			@ <UNDEFINED> instruction: 08000384
  d4:	00000052 			@ <UNDEFINED> instruction: 00000052
	...
  e0:	0000001c 			@ <UNDEFINED> instruction: 0000001c
  e4:	201f0002 			@ <UNDEFINED> instruction: 201f0002
  e8:	00040000 			@ <UNDEFINED> instruction: 00040000
  ec:	00000000 			@ <UNDEFINED> instruction: 00000000
  f0:	080003d8 			@ <UNDEFINED> instruction: 080003d8
  f4:	000002bc 			@ <UNDEFINED> instruction: 000002bc
	...
 100:	0000001c 			@ <UNDEFINED> instruction: 0000001c
 104:	270e0002 			@ <UNDEFINED> instruction: 270e0002
 108:	00040000 			@ <UNDEFINED> instruction: 00040000
 10c:	00000000 			@ <UNDEFINED> instruction: 00000000
 110:	08000000 			@ <UNDEFINED> instruction: 08000000
 114:	00000070 			@ <UNDEFINED> instruction: 00000070
	...

Disassembly of section .debug_line:

00000000 <.debug_line>:
       0:	000001b2 			@ <UNDEFINED> instruction: 000001b2
       4:	01000003 			@ <UNDEFINED> instruction: 01000003
       8:	01020000 			@ <UNDEFINED> instruction: 01020000
       c:	000d0efb 	strdeq	r0, [sp], -fp
      10:	01010101 			@ <UNDEFINED> instruction: 01010101
      14:	01000000 			@ <UNDEFINED> instruction: 01000000
      18:	43010000 	movwmi	r0, #4096	@ 0x1000
      1c:	72615c3a 			@ <UNDEFINED> instruction: 72615c3a
      20:	6e672d6d 			@ <UNDEFINED> instruction: 6e672d6d
      24:	6f742d75 			@ <UNDEFINED> instruction: 6f742d75
      28:	68636c6f 			@ <UNDEFINED> instruction: 68636c6f
      2c:	2d6e6961 			@ <UNDEFINED> instruction: 2d6e6961
      30:	322e3531 			@ <UNDEFINED> instruction: 322e3531
      34:	6c65722e 			@ <UNDEFINED> instruction: 6c65722e
      38:	696d2d31 			@ <UNDEFINED> instruction: 696d2d31
      3c:	2d77676e 			@ <UNDEFINED> instruction: 2d77676e
      40:	2d343677 			@ <UNDEFINED> instruction: 2d343677
      44:	36383669 			@ <UNDEFINED> instruction: 36383669
      48:	6d72612d 			@ <UNDEFINED> instruction: 6d72612d
      4c:	6e6f6e2d 			@ <UNDEFINED> instruction: 6e6f6e2d
      50:	61652d65 			@ <UNDEFINED> instruction: 61652d65
      54:	612f6962 			@ <UNDEFINED> instruction: 612f6962
      58:	6e2d6d72 			@ <UNDEFINED> instruction: 6e2d6d72
      5c:	2d656e6f 			@ <UNDEFINED> instruction: 2d656e6f
      60:	69626165 			@ <UNDEFINED> instruction: 69626165
      64:	636e692f 			@ <UNDEFINED> instruction: 636e692f
      68:	6564756c 			@ <UNDEFINED> instruction: 6564756c
      6c:	63616d2f 			@ <UNDEFINED> instruction: 63616d2f
      70:	656e6968 			@ <UNDEFINED> instruction: 656e6968
      74:	5c3a4300 			@ <UNDEFINED> instruction: 5c3a4300
      78:	2d6d7261 			@ <UNDEFINED> instruction: 2d6d7261
      7c:	2d756e67 			@ <UNDEFINED> instruction: 2d756e67
      80:	6c6f6f74 			@ <UNDEFINED> instruction: 6c6f6f74
      84:	69616863 			@ <UNDEFINED> instruction: 69616863
      88:	35312d6e 			@ <UNDEFINED> instruction: 35312d6e
      8c:	722e322e 			@ <UNDEFINED> instruction: 722e322e
      90:	2d316c65 			@ <UNDEFINED> instruction: 2d316c65
      94:	676e696d 			@ <UNDEFINED> instruction: 676e696d
      98:	36772d77 			@ <UNDEFINED> instruction: 36772d77
      9c:	36692d34 			@ <UNDEFINED> instruction: 36692d34
      a0:	612d3638 			@ <UNDEFINED> instruction: 612d3638
      a4:	6e2d6d72 			@ <UNDEFINED> instruction: 6e2d6d72
      a8:	2d656e6f 			@ <UNDEFINED> instruction: 2d656e6f
      ac:	69626165 			@ <UNDEFINED> instruction: 69626165
      b0:	6d72612f 			@ <UNDEFINED> instruction: 6d72612f
      b4:	6e6f6e2d 			@ <UNDEFINED> instruction: 6e6f6e2d
      b8:	61652d65 			@ <UNDEFINED> instruction: 61652d65
      bc:	692f6962 			@ <UNDEFINED> instruction: 692f6962
      c0:	756c636e 			@ <UNDEFINED> instruction: 756c636e
      c4:	732f6564 			@ <UNDEFINED> instruction: 732f6564
      c8:	00007379 			@ <UNDEFINED> instruction: 00007379
      cc:	636f6c63 			@ <UNDEFINED> instruction: 636f6c63
      d0:	00632e6b 			@ <UNDEFINED> instruction: 00632e6b
      d4:	5f000000 			@ <UNDEFINED> instruction: 5f000000
      d8:	61666564 			@ <UNDEFINED> instruction: 61666564
      dc:	5f746c75 			@ <UNDEFINED> instruction: 5f746c75
      e0:	65707974 			@ <UNDEFINED> instruction: 65707974
      e4:	00682e73 			@ <UNDEFINED> instruction: 00682e73
      e8:	5f000001 			@ <UNDEFINED> instruction: 5f000001
      ec:	69647473 			@ <UNDEFINED> instruction: 69647473
      f0:	682e746e 			@ <UNDEFINED> instruction: 682e746e
      f4:	00000200 			@ <UNDEFINED> instruction: 00000200
      f8:	336d7473 			@ <UNDEFINED> instruction: 336d7473
      fc:	31346632 			@ <UNDEFINED> instruction: 31346632
     100:	2e657831 			@ <UNDEFINED> instruction: 2e657831
     104:	00000068 			@ <UNDEFINED> instruction: 00000068
     108:	01050000 			@ <UNDEFINED> instruction: 01050000
     10c:	70020500 			@ <UNDEFINED> instruction: 70020500
     110:	15080000 			@ <UNDEFINED> instruction: 15080000
     114:	05130505 			@ <UNDEFINED> instruction: 05130505
     118:	05010608 			@ <UNDEFINED> instruction: 05010608
     11c:	05052e0d 			@ <UNDEFINED> instruction: 05052e0d
     120:	0b053d06 			@ <UNDEFINED> instruction: 0b053d06
     124:	01040200 			@ <UNDEFINED> instruction: 01040200
     128:	000c0501 			@ <UNDEFINED> instruction: 000c0501
     12c:	06010402 			@ <UNDEFINED> instruction: 06010402
     130:	000b0501 			@ <UNDEFINED> instruction: 000b0501
     134:	20010402 			@ <UNDEFINED> instruction: 20010402
     138:	30060505 			@ <UNDEFINED> instruction: 30060505
     13c:	01061005 			@ <UNDEFINED> instruction: 01061005
     140:	05231205 			@ <UNDEFINED> instruction: 05231205
     144:	2d2f1d10 			@ <UNDEFINED> instruction: 2d2f1d10
     148:	2f060505 			@ <UNDEFINED> instruction: 2f060505
     14c:	01061005 			@ <UNDEFINED> instruction: 01061005
     150:	22060505 			@ <UNDEFINED> instruction: 22060505
     154:	01061205 			@ <UNDEFINED> instruction: 01061205
     158:	22060505 			@ <UNDEFINED> instruction: 22060505
     15c:	02000c05 			@ <UNDEFINED> instruction: 02000c05
     160:	21060104 			@ <UNDEFINED> instruction: 21060104
     164:	061f0505 			@ <UNDEFINED> instruction: 061f0505
     168:	000b053d 			@ <UNDEFINED> instruction: 000b053d
     16c:	01010402 			@ <UNDEFINED> instruction: 01010402
     170:	02000c05 			@ <UNDEFINED> instruction: 02000c05
     174:	01060104 			@ <UNDEFINED> instruction: 01060104
     178:	02000b05 			@ <UNDEFINED> instruction: 02000b05
     17c:	05200104 			@ <UNDEFINED> instruction: 05200104
     180:	05300605 			@ <UNDEFINED> instruction: 05300605
     184:	0501060f 			@ <UNDEFINED> instruction: 0501060f
     188:	053e0605 			@ <UNDEFINED> instruction: 053e0605
     18c:	0402000b 			@ <UNDEFINED> instruction: 0402000b
     190:	05210601 			@ <UNDEFINED> instruction: 05210601
     194:	59061f05 			@ <UNDEFINED> instruction: 59061f05
     198:	02003105 			@ <UNDEFINED> instruction: 02003105
     19c:	05010104 			@ <UNDEFINED> instruction: 05010104
     1a0:	0402000b 			@ <UNDEFINED> instruction: 0402000b
     1a4:	05010601 			@ <UNDEFINED> instruction: 05010601
     1a8:	04020031 			@ <UNDEFINED> instruction: 04020031
     1ac:	01052001 			@ <UNDEFINED> instruction: 01052001
     1b0:	0007024b 			@ <UNDEFINED> instruction: 0007024b
     1b4:	01790101 			@ <UNDEFINED> instruction: 01790101
     1b8:	00030000 			@ <UNDEFINED> instruction: 00030000
     1bc:	000000fe 	strdeq	r0, [r0], -lr
     1c0:	0efb0102 			@ <UNDEFINED> instruction: 0efb0102
     1c4:	0101000d 			@ <UNDEFINED> instruction: 0101000d
     1c8:	00000101 			@ <UNDEFINED> instruction: 00000101
     1cc:	00000100 			@ <UNDEFINED> instruction: 00000100
     1d0:	5c3a4301 			@ <UNDEFINED> instruction: 5c3a4301
     1d4:	2d6d7261 			@ <UNDEFINED> instruction: 2d6d7261
     1d8:	2d756e67 			@ <UNDEFINED> instruction: 2d756e67
     1dc:	6c6f6f74 			@ <UNDEFINED> instruction: 6c6f6f74
     1e0:	69616863 			@ <UNDEFINED> instruction: 69616863
     1e4:	35312d6e 			@ <UNDEFINED> instruction: 35312d6e
     1e8:	722e322e 			@ <UNDEFINED> instruction: 722e322e
     1ec:	2d316c65 			@ <UNDEFINED> instruction: 2d316c65
     1f0:	676e696d 			@ <UNDEFINED> instruction: 676e696d
     1f4:	36772d77 			@ <UNDEFINED> instruction: 36772d77
     1f8:	36692d34 			@ <UNDEFINED> instruction: 36692d34
     1fc:	612d3638 			@ <UNDEFINED> instruction: 612d3638
     200:	6e2d6d72 			@ <UNDEFINED> instruction: 6e2d6d72
     204:	2d656e6f 			@ <UNDEFINED> instruction: 2d656e6f
     208:	69626165 			@ <UNDEFINED> instruction: 69626165
     20c:	6d72612f 			@ <UNDEFINED> instruction: 6d72612f
     210:	6e6f6e2d 			@ <UNDEFINED> instruction: 6e6f6e2d
     214:	61652d65 			@ <UNDEFINED> instruction: 61652d65
     218:	692f6962 			@ <UNDEFINED> instruction: 692f6962
     21c:	756c636e 			@ <UNDEFINED> instruction: 756c636e
     220:	6d2f6564 			@ <UNDEFINED> instruction: 6d2f6564
     224:	69686361 			@ <UNDEFINED> instruction: 69686361
     228:	4300656e 	movwmi	r6, #1390	@ 0x56e
     22c:	72615c3a 			@ <UNDEFINED> instruction: 72615c3a
     230:	6e672d6d 			@ <UNDEFINED> instruction: 6e672d6d
     234:	6f742d75 			@ <UNDEFINED> instruction: 6f742d75
     238:	68636c6f 			@ <UNDEFINED> instruction: 68636c6f
     23c:	2d6e6961 			@ <UNDEFINED> instruction: 2d6e6961
     240:	322e3531 			@ <UNDEFINED> instruction: 322e3531
     244:	6c65722e 			@ <UNDEFINED> instruction: 6c65722e
     248:	696d2d31 			@ <UNDEFINED> instruction: 696d2d31
     24c:	2d77676e 			@ <UNDEFINED> instruction: 2d77676e
     250:	2d343677 			@ <UNDEFINED> instruction: 2d343677
     254:	36383669 			@ <UNDEFINED> instruction: 36383669
     258:	6d72612d 			@ <UNDEFINED> instruction: 6d72612d
     25c:	6e6f6e2d 			@ <UNDEFINED> instruction: 6e6f6e2d
     260:	61652d65 			@ <UNDEFINED> instruction: 61652d65
     264:	612f6962 			@ <UNDEFINED> instruction: 612f6962
     268:	6e2d6d72 			@ <UNDEFINED> instruction: 6e2d6d72
     26c:	2d656e6f 			@ <UNDEFINED> instruction: 2d656e6f
     270:	69626165 			@ <UNDEFINED> instruction: 69626165
     274:	636e692f 			@ <UNDEFINED> instruction: 636e692f
     278:	6564756c 			@ <UNDEFINED> instruction: 6564756c
     27c:	7379732f 			@ <UNDEFINED> instruction: 7379732f
     280:	656b0000 			@ <UNDEFINED> instruction: 656b0000
     284:	00632e79 			@ <UNDEFINED> instruction: 00632e79
     288:	5f000000 			@ <UNDEFINED> instruction: 5f000000
     28c:	61666564 			@ <UNDEFINED> instruction: 61666564
     290:	5f746c75 			@ <UNDEFINED> instruction: 5f746c75
     294:	65707974 			@ <UNDEFINED> instruction: 65707974
     298:	00682e73 			@ <UNDEFINED> instruction: 00682e73
     29c:	5f000001 			@ <UNDEFINED> instruction: 5f000001
     2a0:	69647473 			@ <UNDEFINED> instruction: 69647473
     2a4:	682e746e 			@ <UNDEFINED> instruction: 682e746e
     2a8:	00000200 			@ <UNDEFINED> instruction: 00000200
     2ac:	336d7473 			@ <UNDEFINED> instruction: 336d7473
     2b0:	31346632 			@ <UNDEFINED> instruction: 31346632
     2b4:	2e657831 			@ <UNDEFINED> instruction: 2e657831
     2b8:	00000068 			@ <UNDEFINED> instruction: 00000068
     2bc:	01050000 			@ <UNDEFINED> instruction: 01050000
     2c0:	d0020500 			@ <UNDEFINED> instruction: d0020500
     2c4:	15080000 			@ <UNDEFINED> instruction: 15080000
     2c8:	06130205 			@ <UNDEFINED> instruction: 06130205
     2cc:	4b061f21 			@ <UNDEFINED> instruction: 4b061f21
     2d0:	4b060105 			@ <UNDEFINED> instruction: 4b060105
     2d4:	02056906 			@ <UNDEFINED> instruction: 02056906
     2d8:	06090513 			@ <UNDEFINED> instruction: 06090513
     2dc:	4b010501 			@ <UNDEFINED> instruction: 4b010501
     2e0:	02056906 			@ <UNDEFINED> instruction: 02056906
     2e4:	00090513 			@ <UNDEFINED> instruction: 00090513
     2e8:	06010402 			@ <UNDEFINED> instruction: 06010402
     2ec:	00080501 			@ <UNDEFINED> instruction: 00080501
     2f0:	06010402 			@ <UNDEFINED> instruction: 06010402
     2f4:	00090520 			@ <UNDEFINED> instruction: 00090520
     2f8:	06010402 			@ <UNDEFINED> instruction: 06010402
     2fc:	00080501 			@ <UNDEFINED> instruction: 00080501
     300:	20010402 			@ <UNDEFINED> instruction: 20010402
     304:	062f0105 			@ <UNDEFINED> instruction: 062f0105
     308:	1302054d 	movwne	r0, #9549	@ 0x254d
     30c:	02000905 			@ <UNDEFINED> instruction: 02000905
     310:	01060104 			@ <UNDEFINED> instruction: 01060104
     314:	02000805 			@ <UNDEFINED> instruction: 02000805
     318:	20060104 			@ <UNDEFINED> instruction: 20060104
     31c:	02000905 			@ <UNDEFINED> instruction: 02000905
     320:	01060104 			@ <UNDEFINED> instruction: 01060104
     324:	02000805 			@ <UNDEFINED> instruction: 02000805
     328:	05200104 			@ <UNDEFINED> instruction: 05200104
     32c:	04022f01 			@ <UNDEFINED> instruction: 04022f01
     330:	33010100 	movwcc	r0, #4352	@ 0x1100
     334:	03000001 	movweq	r0, #1
     338:	0000fe00 			@ <UNDEFINED> instruction: 0000fe00
     33c:	fb010200 	blx	40b46 <__RW_SIZE__+0x4097a>
     340:	01000d0e 			@ <UNDEFINED> instruction: 01000d0e
     344:	00010101 			@ <UNDEFINED> instruction: 00010101
     348:	00010000 			@ <UNDEFINED> instruction: 00010000
     34c:	3a430100 			@ <UNDEFINED> instruction: 3a430100
     350:	6d72615c 			@ <UNDEFINED> instruction: 6d72615c
     354:	756e672d 			@ <UNDEFINED> instruction: 756e672d
     358:	6f6f742d 			@ <UNDEFINED> instruction: 6f6f742d
     35c:	6168636c 			@ <UNDEFINED> instruction: 6168636c
     360:	312d6e69 			@ <UNDEFINED> instruction: 312d6e69
     364:	2e322e35 			@ <UNDEFINED> instruction: 2e322e35
     368:	316c6572 			@ <UNDEFINED> instruction: 316c6572
     36c:	6e696d2d 			@ <UNDEFINED> instruction: 6e696d2d
     370:	772d7767 			@ <UNDEFINED> instruction: 772d7767
     374:	692d3436 			@ <UNDEFINED> instruction: 692d3436
     378:	2d363836 			@ <UNDEFINED> instruction: 2d363836
     37c:	2d6d7261 			@ <UNDEFINED> instruction: 2d6d7261
     380:	656e6f6e 			@ <UNDEFINED> instruction: 656e6f6e
     384:	6261652d 			@ <UNDEFINED> instruction: 6261652d
     388:	72612f69 			@ <UNDEFINED> instruction: 72612f69
     38c:	6f6e2d6d 			@ <UNDEFINED> instruction: 6f6e2d6d
     390:	652d656e 			@ <UNDEFINED> instruction: 652d656e
     394:	2f696261 			@ <UNDEFINED> instruction: 2f696261
     398:	6c636e69 			@ <UNDEFINED> instruction: 6c636e69
     39c:	2f656475 			@ <UNDEFINED> instruction: 2f656475
     3a0:	6863616d 			@ <UNDEFINED> instruction: 6863616d
     3a4:	00656e69 			@ <UNDEFINED> instruction: 00656e69
     3a8:	615c3a43 			@ <UNDEFINED> instruction: 615c3a43
     3ac:	672d6d72 			@ <UNDEFINED> instruction: 672d6d72
     3b0:	742d756e 			@ <UNDEFINED> instruction: 742d756e
     3b4:	636c6f6f 			@ <UNDEFINED> instruction: 636c6f6f
     3b8:	6e696168 			@ <UNDEFINED> instruction: 6e696168
     3bc:	2e35312d 			@ <UNDEFINED> instruction: 2e35312d
     3c0:	65722e32 			@ <UNDEFINED> instruction: 65722e32
     3c4:	6d2d316c 			@ <UNDEFINED> instruction: 6d2d316c
     3c8:	77676e69 			@ <UNDEFINED> instruction: 77676e69
     3cc:	3436772d 			@ <UNDEFINED> instruction: 3436772d
     3d0:	3836692d 			@ <UNDEFINED> instruction: 3836692d
     3d4:	72612d36 			@ <UNDEFINED> instruction: 72612d36
     3d8:	6f6e2d6d 			@ <UNDEFINED> instruction: 6f6e2d6d
     3dc:	652d656e 			@ <UNDEFINED> instruction: 652d656e
     3e0:	2f696261 			@ <UNDEFINED> instruction: 2f696261
     3e4:	2d6d7261 			@ <UNDEFINED> instruction: 2d6d7261
     3e8:	656e6f6e 			@ <UNDEFINED> instruction: 656e6f6e
     3ec:	6261652d 			@ <UNDEFINED> instruction: 6261652d
     3f0:	6e692f69 			@ <UNDEFINED> instruction: 6e692f69
     3f4:	64756c63 			@ <UNDEFINED> instruction: 64756c63
     3f8:	79732f65 			@ <UNDEFINED> instruction: 79732f65
     3fc:	6c000073 			@ <UNDEFINED> instruction: 6c000073
     400:	632e6465 			@ <UNDEFINED> instruction: 632e6465
     404:	00000000 			@ <UNDEFINED> instruction: 00000000
     408:	6665645f 			@ <UNDEFINED> instruction: 6665645f
     40c:	746c7561 			@ <UNDEFINED> instruction: 746c7561
     410:	7079745f 			@ <UNDEFINED> instruction: 7079745f
     414:	682e7365 			@ <UNDEFINED> instruction: 682e7365
     418:	00000100 			@ <UNDEFINED> instruction: 00000100
     41c:	6474735f 			@ <UNDEFINED> instruction: 6474735f
     420:	2e746e69 			@ <UNDEFINED> instruction: 2e746e69
     424:	00020068 			@ <UNDEFINED> instruction: 00020068
     428:	6d747300 			@ <UNDEFINED> instruction: 6d747300
     42c:	34663233 			@ <UNDEFINED> instruction: 34663233
     430:	65783131 			@ <UNDEFINED> instruction: 65783131
     434:	0000682e 			@ <UNDEFINED> instruction: 0000682e
     438:	05000000 			@ <UNDEFINED> instruction: 05000000
     43c:	02050001 			@ <UNDEFINED> instruction: 02050001
     440:	08000124 			@ <UNDEFINED> instruction: 08000124
     444:	14020515 			@ <UNDEFINED> instruction: 14020515
     448:	061d2306 			@ <UNDEFINED> instruction: 061d2306
     44c:	054b674d 			@ <UNDEFINED> instruction: 054b674d
     450:	064b0601 			@ <UNDEFINED> instruction: 064b0601
     454:	14020569 			@ <UNDEFINED> instruction: 14020569
     458:	59060105 			@ <UNDEFINED> instruction: 59060105
     45c:	02053f06 			@ <UNDEFINED> instruction: 02053f06
     460:	06010514 			@ <UNDEFINED> instruction: 06010514
     464:	00030259 			@ <UNDEFINED> instruction: 00030259
     468:	030e0101 	movweq	r0, #57601	@ 0xe101
     46c:	00030000 			@ <UNDEFINED> instruction: 00030000
     470:	000001fa 	strdeq	r0, [r0], -sl
     474:	0efb0102 			@ <UNDEFINED> instruction: 0efb0102
     478:	0101000d 			@ <UNDEFINED> instruction: 0101000d
     47c:	00000101 			@ <UNDEFINED> instruction: 00000101
     480:	00000100 			@ <UNDEFINED> instruction: 00000100
     484:	5c3a4301 			@ <UNDEFINED> instruction: 5c3a4301
     488:	2d6d7261 			@ <UNDEFINED> instruction: 2d6d7261
     48c:	2d756e67 			@ <UNDEFINED> instruction: 2d756e67
     490:	6c6f6f74 			@ <UNDEFINED> instruction: 6c6f6f74
     494:	69616863 			@ <UNDEFINED> instruction: 69616863
     498:	35312d6e 			@ <UNDEFINED> instruction: 35312d6e
     49c:	722e322e 			@ <UNDEFINED> instruction: 722e322e
     4a0:	2d316c65 			@ <UNDEFINED> instruction: 2d316c65
     4a4:	676e696d 			@ <UNDEFINED> instruction: 676e696d
     4a8:	36772d77 			@ <UNDEFINED> instruction: 36772d77
     4ac:	36692d34 			@ <UNDEFINED> instruction: 36692d34
     4b0:	612d3638 			@ <UNDEFINED> instruction: 612d3638
     4b4:	6e2d6d72 			@ <UNDEFINED> instruction: 6e2d6d72
     4b8:	2d656e6f 			@ <UNDEFINED> instruction: 2d656e6f
     4bc:	69626165 			@ <UNDEFINED> instruction: 69626165
     4c0:	6d72612f 			@ <UNDEFINED> instruction: 6d72612f
     4c4:	6e6f6e2d 			@ <UNDEFINED> instruction: 6e6f6e2d
     4c8:	61652d65 			@ <UNDEFINED> instruction: 61652d65
     4cc:	692f6962 			@ <UNDEFINED> instruction: 692f6962
     4d0:	756c636e 			@ <UNDEFINED> instruction: 756c636e
     4d4:	6d2f6564 			@ <UNDEFINED> instruction: 6d2f6564
     4d8:	69686361 			@ <UNDEFINED> instruction: 69686361
     4dc:	4300656e 	movwmi	r6, #1390	@ 0x56e
     4e0:	72615c3a 			@ <UNDEFINED> instruction: 72615c3a
     4e4:	6e672d6d 			@ <UNDEFINED> instruction: 6e672d6d
     4e8:	6f742d75 			@ <UNDEFINED> instruction: 6f742d75
     4ec:	68636c6f 			@ <UNDEFINED> instruction: 68636c6f
     4f0:	2d6e6961 			@ <UNDEFINED> instruction: 2d6e6961
     4f4:	322e3531 			@ <UNDEFINED> instruction: 322e3531
     4f8:	6c65722e 			@ <UNDEFINED> instruction: 6c65722e
     4fc:	696d2d31 			@ <UNDEFINED> instruction: 696d2d31
     500:	2d77676e 			@ <UNDEFINED> instruction: 2d77676e
     504:	2d343677 			@ <UNDEFINED> instruction: 2d343677
     508:	36383669 			@ <UNDEFINED> instruction: 36383669
     50c:	6d72612d 			@ <UNDEFINED> instruction: 6d72612d
     510:	6e6f6e2d 			@ <UNDEFINED> instruction: 6e6f6e2d
     514:	61652d65 			@ <UNDEFINED> instruction: 61652d65
     518:	612f6962 			@ <UNDEFINED> instruction: 612f6962
     51c:	6e2d6d72 			@ <UNDEFINED> instruction: 6e2d6d72
     520:	2d656e6f 			@ <UNDEFINED> instruction: 2d656e6f
     524:	69626165 			@ <UNDEFINED> instruction: 69626165
     528:	636e692f 			@ <UNDEFINED> instruction: 636e692f
     52c:	6564756c 			@ <UNDEFINED> instruction: 6564756c
     530:	7379732f 			@ <UNDEFINED> instruction: 7379732f
     534:	5c3a4300 			@ <UNDEFINED> instruction: 5c3a4300
     538:	2d6d7261 			@ <UNDEFINED> instruction: 2d6d7261
     53c:	2d756e67 			@ <UNDEFINED> instruction: 2d756e67
     540:	6c6f6f74 			@ <UNDEFINED> instruction: 6c6f6f74
     544:	69616863 			@ <UNDEFINED> instruction: 69616863
     548:	35312d6e 			@ <UNDEFINED> instruction: 35312d6e
     54c:	722e322e 			@ <UNDEFINED> instruction: 722e322e
     550:	2d316c65 			@ <UNDEFINED> instruction: 2d316c65
     554:	676e696d 			@ <UNDEFINED> instruction: 676e696d
     558:	36772d77 			@ <UNDEFINED> instruction: 36772d77
     55c:	36692d34 			@ <UNDEFINED> instruction: 36692d34
     560:	612d3638 			@ <UNDEFINED> instruction: 612d3638
     564:	6e2d6d72 			@ <UNDEFINED> instruction: 6e2d6d72
     568:	2d656e6f 			@ <UNDEFINED> instruction: 2d656e6f
     56c:	69626165 			@ <UNDEFINED> instruction: 69626165
     570:	62696c2f 			@ <UNDEFINED> instruction: 62696c2f
     574:	6363672f 			@ <UNDEFINED> instruction: 6363672f
     578:	6d72612f 			@ <UNDEFINED> instruction: 6d72612f
     57c:	6e6f6e2d 			@ <UNDEFINED> instruction: 6e6f6e2d
     580:	61652d65 			@ <UNDEFINED> instruction: 61652d65
     584:	312f6962 			@ <UNDEFINED> instruction: 312f6962
     588:	2e322e35 			@ <UNDEFINED> instruction: 2e322e35
     58c:	6e692f31 			@ <UNDEFINED> instruction: 6e692f31
     590:	64756c63 			@ <UNDEFINED> instruction: 64756c63
     594:	3a430065 			@ <UNDEFINED> instruction: 3a430065
     598:	6d72615c 			@ <UNDEFINED> instruction: 6d72615c
     59c:	756e672d 			@ <UNDEFINED> instruction: 756e672d
     5a0:	6f6f742d 			@ <UNDEFINED> instruction: 6f6f742d
     5a4:	6168636c 			@ <UNDEFINED> instruction: 6168636c
     5a8:	312d6e69 			@ <UNDEFINED> instruction: 312d6e69
     5ac:	2e322e35 			@ <UNDEFINED> instruction: 2e322e35
     5b0:	316c6572 			@ <UNDEFINED> instruction: 316c6572
     5b4:	6e696d2d 			@ <UNDEFINED> instruction: 6e696d2d
     5b8:	772d7767 			@ <UNDEFINED> instruction: 772d7767
     5bc:	692d3436 			@ <UNDEFINED> instruction: 692d3436
     5c0:	2d363836 			@ <UNDEFINED> instruction: 2d363836
     5c4:	2d6d7261 			@ <UNDEFINED> instruction: 2d6d7261
     5c8:	656e6f6e 			@ <UNDEFINED> instruction: 656e6f6e
     5cc:	6261652d 			@ <UNDEFINED> instruction: 6261652d
     5d0:	72612f69 			@ <UNDEFINED> instruction: 72612f69
     5d4:	6f6e2d6d 			@ <UNDEFINED> instruction: 6f6e2d6d
     5d8:	652d656e 			@ <UNDEFINED> instruction: 652d656e
     5dc:	2f696261 			@ <UNDEFINED> instruction: 2f696261
     5e0:	6c636e69 			@ <UNDEFINED> instruction: 6c636e69
     5e4:	00656475 			@ <UNDEFINED> instruction: 00656475
     5e8:	69616d00 			@ <UNDEFINED> instruction: 69616d00
     5ec:	00632e6e 			@ <UNDEFINED> instruction: 00632e6e
     5f0:	5f000000 			@ <UNDEFINED> instruction: 5f000000
     5f4:	61666564 			@ <UNDEFINED> instruction: 61666564
     5f8:	5f746c75 			@ <UNDEFINED> instruction: 5f746c75
     5fc:	65707974 			@ <UNDEFINED> instruction: 65707974
     600:	00682e73 			@ <UNDEFINED> instruction: 00682e73
     604:	5f000001 			@ <UNDEFINED> instruction: 5f000001
     608:	69647473 			@ <UNDEFINED> instruction: 69647473
     60c:	682e746e 			@ <UNDEFINED> instruction: 682e746e
     610:	00000200 			@ <UNDEFINED> instruction: 00000200
     614:	65726f63 			@ <UNDEFINED> instruction: 65726f63
     618:	346d635f 			@ <UNDEFINED> instruction: 346d635f
     61c:	0000682e 			@ <UNDEFINED> instruction: 0000682e
     620:	74730000 			@ <UNDEFINED> instruction: 74730000
     624:	66656464 			@ <UNDEFINED> instruction: 66656464
     628:	0300682e 	movweq	r6, #2094	@ 0x82e
     62c:	745f0000 			@ <UNDEFINED> instruction: 745f0000
     630:	73657079 			@ <UNDEFINED> instruction: 73657079
     634:	0200682e 			@ <UNDEFINED> instruction: 0200682e
     638:	65720000 			@ <UNDEFINED> instruction: 65720000
     63c:	2e746e65 			@ <UNDEFINED> instruction: 2e746e65
     640:	00020068 			@ <UNDEFINED> instruction: 00020068
     644:	636f6c00 			@ <UNDEFINED> instruction: 636f6c00
     648:	00682e6b 			@ <UNDEFINED> instruction: 00682e6b
     64c:	73000002 	movwvc	r0, #2
     650:	6f696474 			@ <UNDEFINED> instruction: 6f696474
     654:	0400682e 			@ <UNDEFINED> instruction: 0400682e
     658:	65640000 			@ <UNDEFINED> instruction: 65640000
     65c:	65636976 			@ <UNDEFINED> instruction: 65636976
     660:	6972645f 			@ <UNDEFINED> instruction: 6972645f
     664:	2e726576 			@ <UNDEFINED> instruction: 2e726576
     668:	00000068 			@ <UNDEFINED> instruction: 00000068
     66c:	01050000 			@ <UNDEFINED> instruction: 01050000
     670:	78020500 			@ <UNDEFINED> instruction: 78020500
     674:	03080001 	movweq	r0, #32769	@ 0x8001
     678:	0205010d 			@ <UNDEFINED> instruction: 0205010d
     67c:	030d0513 	movweq	r0, #54547	@ 0xd513
     680:	02050175 			@ <UNDEFINED> instruction: 02050175
     684:	06010514 			@ <UNDEFINED> instruction: 06010514
     688:	0305051a 	movweq	r0, #21786	@ 0x551a
     68c:	0d052078 			@ <UNDEFINED> instruction: 0d052078
     690:	3601053c 			@ <UNDEFINED> instruction: 3601053c
     694:	78030d05 			@ <UNDEFINED> instruction: 78030d05
     698:	06020520 			@ <UNDEFINED> instruction: 06020520
     69c:	054b2f2f 			@ <UNDEFINED> instruction: 054b2f2f
     6a0:	0501060a 			@ <UNDEFINED> instruction: 0501060a
     6a4:	67062e02 			@ <UNDEFINED> instruction: 67062e02
     6a8:	18062e06 			@ <UNDEFINED> instruction: 18062e06
     6ac:	0514133e 			@ <UNDEFINED> instruction: 0514133e
     6b0:	05010608 			@ <UNDEFINED> instruction: 05010608
     6b4:	0402000f 			@ <UNDEFINED> instruction: 0402000f
     6b8:	052e0601 			@ <UNDEFINED> instruction: 052e0601
     6bc:	0402003e 			@ <UNDEFINED> instruction: 0402003e
     6c0:	05420602 			@ <UNDEFINED> instruction: 05420602
     6c4:	4b380603 			@ <UNDEFINED> instruction: 4b380603
     6c8:	13060905 	movwne	r0, #26885	@ 0x6905
     6cc:	051f1105 			@ <UNDEFINED> instruction: 051f1105
     6d0:	10052109 			@ <UNDEFINED> instruction: 10052109
     6d4:	01040200 			@ <UNDEFINED> instruction: 01040200
     6d8:	3b110520 			@ <UNDEFINED> instruction: 3b110520
     6dc:	2f060305 			@ <UNDEFINED> instruction: 2f060305
     6e0:	02001005 			@ <UNDEFINED> instruction: 02001005
     6e4:	05010104 			@ <UNDEFINED> instruction: 05010104
     6e8:	04020018 			@ <UNDEFINED> instruction: 04020018
     6ec:	10052003 			@ <UNDEFINED> instruction: 10052003
     6f0:	01040200 			@ <UNDEFINED> instruction: 01040200
     6f4:	3d03053c 			@ <UNDEFINED> instruction: 3d03053c
     6f8:	0610052f 			@ <UNDEFINED> instruction: 0610052f
     6fc:	002a0501 			@ <UNDEFINED> instruction: 002a0501
     700:	3c010402 			@ <UNDEFINED> instruction: 3c010402
     704:	2f060305 			@ <UNDEFINED> instruction: 2f060305
     708:	02003e05 			@ <UNDEFINED> instruction: 02003e05
     70c:	11060204 			@ <UNDEFINED> instruction: 11060204
     710:	02040200 			@ <UNDEFINED> instruction: 02040200
     714:	00090520 			@ <UNDEFINED> instruction: 00090520
     718:	66020402 			@ <UNDEFINED> instruction: 66020402
     71c:	053d0305 			@ <UNDEFINED> instruction: 053d0305
     720:	04020016 			@ <UNDEFINED> instruction: 04020016
     724:	79030602 			@ <UNDEFINED> instruction: 79030602
     728:	000f053c 			@ <UNDEFINED> instruction: 000f053c
     72c:	3c010402 			@ <UNDEFINED> instruction: 3c010402
     730:	0a030205 			@ <UNDEFINED> instruction: 0a030205
     734:	04053e3c 			@ <UNDEFINED> instruction: 04053e3c
     738:	02050106 			@ <UNDEFINED> instruction: 02050106
     73c:	2d040521 			@ <UNDEFINED> instruction: 2d040521
     740:	21060205 			@ <UNDEFINED> instruction: 21060205
     744:	14030530 			@ <UNDEFINED> instruction: 14030530
     748:	01060605 			@ <UNDEFINED> instruction: 01060605
     74c:	02000505 			@ <UNDEFINED> instruction: 02000505
     750:	052e0104 			@ <UNDEFINED> instruction: 052e0104
     754:	05300604 			@ <UNDEFINED> instruction: 05300604
     758:	05010607 			@ <UNDEFINED> instruction: 05010607
     75c:	07053c1a 	smladeq	r5, sl, ip, r3
     760:	201a0520 			@ <UNDEFINED> instruction: 201a0520
     764:	02001105 			@ <UNDEFINED> instruction: 02001105
     768:	05200104 			@ <UNDEFINED> instruction: 05200104
     76c:	052f0604 			@ <UNDEFINED> instruction: 052f0604
     770:	0402001c 			@ <UNDEFINED> instruction: 0402001c
     774:	02490602 			@ <UNDEFINED> instruction: 02490602
     778:	01010016 			@ <UNDEFINED> instruction: 01010016
     77c:	00000278 			@ <UNDEFINED> instruction: 00000278
     780:	01400003 			@ <UNDEFINED> instruction: 01400003
     784:	01020000 			@ <UNDEFINED> instruction: 01020000
     788:	000d0efb 	strdeq	r0, [sp], -fp
     78c:	01010101 			@ <UNDEFINED> instruction: 01010101
     790:	01000000 			@ <UNDEFINED> instruction: 01000000
     794:	43010000 	movwmi	r0, #4096	@ 0x1000
     798:	72615c3a 			@ <UNDEFINED> instruction: 72615c3a
     79c:	6e672d6d 			@ <UNDEFINED> instruction: 6e672d6d
     7a0:	6f742d75 			@ <UNDEFINED> instruction: 6f742d75
     7a4:	68636c6f 			@ <UNDEFINED> instruction: 68636c6f
     7a8:	2d6e6961 			@ <UNDEFINED> instruction: 2d6e6961
     7ac:	322e3531 			@ <UNDEFINED> instruction: 322e3531
     7b0:	6c65722e 			@ <UNDEFINED> instruction: 6c65722e
     7b4:	696d2d31 			@ <UNDEFINED> instruction: 696d2d31
     7b8:	2d77676e 			@ <UNDEFINED> instruction: 2d77676e
     7bc:	2d343677 			@ <UNDEFINED> instruction: 2d343677
     7c0:	36383669 			@ <UNDEFINED> instruction: 36383669
     7c4:	6d72612d 			@ <UNDEFINED> instruction: 6d72612d
     7c8:	6e6f6e2d 			@ <UNDEFINED> instruction: 6e6f6e2d
     7cc:	61652d65 			@ <UNDEFINED> instruction: 61652d65
     7d0:	612f6962 			@ <UNDEFINED> instruction: 612f6962
     7d4:	6e2d6d72 			@ <UNDEFINED> instruction: 6e2d6d72
     7d8:	2d656e6f 			@ <UNDEFINED> instruction: 2d656e6f
     7dc:	69626165 			@ <UNDEFINED> instruction: 69626165
     7e0:	636e692f 			@ <UNDEFINED> instruction: 636e692f
     7e4:	6564756c 			@ <UNDEFINED> instruction: 6564756c
     7e8:	63616d2f 			@ <UNDEFINED> instruction: 63616d2f
     7ec:	656e6968 			@ <UNDEFINED> instruction: 656e6968
     7f0:	5c3a4300 			@ <UNDEFINED> instruction: 5c3a4300
     7f4:	2d6d7261 			@ <UNDEFINED> instruction: 2d6d7261
     7f8:	2d756e67 			@ <UNDEFINED> instruction: 2d756e67
     7fc:	6c6f6f74 			@ <UNDEFINED> instruction: 6c6f6f74
     800:	69616863 			@ <UNDEFINED> instruction: 69616863
     804:	35312d6e 			@ <UNDEFINED> instruction: 35312d6e
     808:	722e322e 			@ <UNDEFINED> instruction: 722e322e
     80c:	2d316c65 			@ <UNDEFINED> instruction: 2d316c65
     810:	676e696d 			@ <UNDEFINED> instruction: 676e696d
     814:	36772d77 			@ <UNDEFINED> instruction: 36772d77
     818:	36692d34 			@ <UNDEFINED> instruction: 36692d34
     81c:	612d3638 			@ <UNDEFINED> instruction: 612d3638
     820:	6e2d6d72 			@ <UNDEFINED> instruction: 6e2d6d72
     824:	2d656e6f 			@ <UNDEFINED> instruction: 2d656e6f
     828:	69626165 			@ <UNDEFINED> instruction: 69626165
     82c:	6d72612f 			@ <UNDEFINED> instruction: 6d72612f
     830:	6e6f6e2d 			@ <UNDEFINED> instruction: 6e6f6e2d
     834:	61652d65 			@ <UNDEFINED> instruction: 61652d65
     838:	692f6962 			@ <UNDEFINED> instruction: 692f6962
     83c:	756c636e 			@ <UNDEFINED> instruction: 756c636e
     840:	732f6564 			@ <UNDEFINED> instruction: 732f6564
     844:	00007379 			@ <UNDEFINED> instruction: 00007379
     848:	746e7572 			@ <UNDEFINED> instruction: 746e7572
     84c:	2e656d69 			@ <UNDEFINED> instruction: 2e656d69
     850:	00000063 			@ <UNDEFINED> instruction: 00000063
     854:	65645f00 			@ <UNDEFINED> instruction: 65645f00
     858:	6c756166 			@ <UNDEFINED> instruction: 6c756166
     85c:	79745f74 			@ <UNDEFINED> instruction: 79745f74
     860:	2e736570 			@ <UNDEFINED> instruction: 2e736570
     864:	00010068 			@ <UNDEFINED> instruction: 00010068
     868:	79745f00 			@ <UNDEFINED> instruction: 79745f00
     86c:	2e736570 			@ <UNDEFINED> instruction: 2e736570
     870:	00020068 			@ <UNDEFINED> instruction: 00020068
     874:	69745f00 			@ <UNDEFINED> instruction: 69745f00
     878:	6176656d 			@ <UNDEFINED> instruction: 6176656d
     87c:	00682e6c 			@ <UNDEFINED> instruction: 00682e6c
     880:	5f000002 			@ <UNDEFINED> instruction: 5f000002
     884:	656d6974 			@ <UNDEFINED> instruction: 656d6974
     888:	63657073 			@ <UNDEFINED> instruction: 63657073
     88c:	0200682e 			@ <UNDEFINED> instruction: 0200682e
     890:	79740000 			@ <UNDEFINED> instruction: 79740000
     894:	2e736570 			@ <UNDEFINED> instruction: 2e736570
     898:	00020068 			@ <UNDEFINED> instruction: 00020068
     89c:	61747300 			@ <UNDEFINED> instruction: 61747300
     8a0:	00682e74 			@ <UNDEFINED> instruction: 00682e74
     8a4:	65000002 			@ <UNDEFINED> instruction: 65000002
     8a8:	6f6e7272 			@ <UNDEFINED> instruction: 6f6e7272
     8ac:	0200682e 			@ <UNDEFINED> instruction: 0200682e
     8b0:	65640000 			@ <UNDEFINED> instruction: 65640000
     8b4:	65636976 			@ <UNDEFINED> instruction: 65636976
     8b8:	6972645f 			@ <UNDEFINED> instruction: 6972645f
     8bc:	2e726576 			@ <UNDEFINED> instruction: 2e726576
     8c0:	00000068 			@ <UNDEFINED> instruction: 00000068
     8c4:	01050000 			@ <UNDEFINED> instruction: 01050000
     8c8:	78020500 			@ <UNDEFINED> instruction: 78020500
     8cc:	18080002 			@ <UNDEFINED> instruction: 18080002
     8d0:	13130205 			@ <UNDEFINED> instruction: 13130205
     8d4:	05141314 			@ <UNDEFINED> instruction: 05141314
     8d8:	0501060a 			@ <UNDEFINED> instruction: 0501060a
     8dc:	04020027 			@ <UNDEFINED> instruction: 04020027
     8e0:	0a052001 			@ <UNDEFINED> instruction: 0a052001
     8e4:	00270520 			@ <UNDEFINED> instruction: 00270520
     8e8:	20010402 			@ <UNDEFINED> instruction: 20010402
     8ec:	052e0405 			@ <UNDEFINED> instruction: 052e0405
     8f0:	02052318 			@ <UNDEFINED> instruction: 02052318
     8f4:	05131f06 			@ <UNDEFINED> instruction: 05131f06
     8f8:	20010632 			@ <UNDEFINED> instruction: 20010632
     8fc:	05203905 			@ <UNDEFINED> instruction: 05203905
     900:	05300602 			@ <UNDEFINED> instruction: 05300602
     904:	0501061f 			@ <UNDEFINED> instruction: 0501061f
     908:	02052e04 			@ <UNDEFINED> instruction: 02052e04
     90c:	32052206 			@ <UNDEFINED> instruction: 32052206
     910:	01040200 			@ <UNDEFINED> instruction: 01040200
     914:	07051006 			@ <UNDEFINED> instruction: 07051006
     918:	06020530 			@ <UNDEFINED> instruction: 06020530
     91c:	06010521 			@ <UNDEFINED> instruction: 06010521
     920:	18052013 			@ <UNDEFINED> instruction: 18052013
     924:	01040200 			@ <UNDEFINED> instruction: 01040200
     928:	20770306 			@ <UNDEFINED> instruction: 20770306
     92c:	02001f05 			@ <UNDEFINED> instruction: 02001f05
     930:	01060104 			@ <UNDEFINED> instruction: 01060104
     934:	02001d05 			@ <UNDEFINED> instruction: 02001d05
     938:	05200104 			@ <UNDEFINED> instruction: 05200104
     93c:	05000601 			@ <UNDEFINED> instruction: 05000601
     940:	0002b002 			@ <UNDEFINED> instruction: 0002b002
     944:	010c0308 			@ <UNDEFINED> instruction: 010c0308
     948:	05130505 			@ <UNDEFINED> instruction: 05130505
     94c:	1705010a 			@ <UNDEFINED> instruction: 1705010a
     950:	01040200 			@ <UNDEFINED> instruction: 01040200
     954:	06010501 			@ <UNDEFINED> instruction: 06010501
     958:	00170511 			@ <UNDEFINED> instruction: 00170511
     95c:	21010402 			@ <UNDEFINED> instruction: 21010402
     960:	4c060905 			@ <UNDEFINED> instruction: 4c060905
     964:	052e0106 			@ <UNDEFINED> instruction: 052e0106
     968:	0402001f 			@ <UNDEFINED> instruction: 0402001f
     96c:	052c0603 			@ <UNDEFINED> instruction: 052c0603
     970:	04020017 			@ <UNDEFINED> instruction: 04020017
     974:	02000101 			@ <UNDEFINED> instruction: 02000101
     978:	2e060104 			@ <UNDEFINED> instruction: 2e060104
     97c:	17060205 			@ <UNDEFINED> instruction: 17060205
     980:	13060105 	movwne	r0, #24837	@ 0x6105
     984:	0500062e 			@ <UNDEFINED> instruction: 0500062e
     988:	0002cc02 			@ <UNDEFINED> instruction: 0002cc02
     98c:	02051508 			@ <UNDEFINED> instruction: 02051508
     990:	06010513 			@ <UNDEFINED> instruction: 06010513
     994:	23062013 	movwcs	r2, #24595	@ 0x6013
     998:	05130205 			@ <UNDEFINED> instruction: 05130205
     99c:	20130601 			@ <UNDEFINED> instruction: 20130601
     9a0:	02052306 			@ <UNDEFINED> instruction: 02052306
     9a4:	06010513 			@ <UNDEFINED> instruction: 06010513
     9a8:	31062e13 			@ <UNDEFINED> instruction: 31062e13
     9ac:	05130505 			@ <UNDEFINED> instruction: 05130505
     9b0:	05010611 			@ <UNDEFINED> instruction: 05010611
     9b4:	053d0605 			@ <UNDEFINED> instruction: 053d0605
     9b8:	20130601 			@ <UNDEFINED> instruction: 20130601
     9bc:	02053106 			@ <UNDEFINED> instruction: 02053106
     9c0:	06010513 			@ <UNDEFINED> instruction: 06010513
     9c4:	23062013 	movwcs	r2, #24595	@ 0x6013
     9c8:	05130505 			@ <UNDEFINED> instruction: 05130505
     9cc:	06130601 			@ <UNDEFINED> instruction: 06130601
     9d0:	f0020500 			@ <UNDEFINED> instruction: f0020500
     9d4:	15080002 			@ <UNDEFINED> instruction: 15080002
     9d8:	13130505 			@ <UNDEFINED> instruction: 13130505
     9dc:	06010514 			@ <UNDEFINED> instruction: 06010514
     9e0:	2405050e 			@ <UNDEFINED> instruction: 2405050e
     9e4:	02000b05 			@ <UNDEFINED> instruction: 02000b05
     9e8:	052e0104 			@ <UNDEFINED> instruction: 052e0104
     9ec:	052f0605 			@ <UNDEFINED> instruction: 052f0605
     9f0:	02130601 			@ <UNDEFINED> instruction: 02130601
     9f4:	01010003 			@ <UNDEFINED> instruction: 01010003
     9f8:	000001e1 			@ <UNDEFINED> instruction: 000001e1
     9fc:	012f0003 			@ <UNDEFINED> instruction: 012f0003
     a00:	01020000 			@ <UNDEFINED> instruction: 01020000
     a04:	000d0efb 	strdeq	r0, [sp], -fp
     a08:	01010101 			@ <UNDEFINED> instruction: 01010101
     a0c:	01000000 			@ <UNDEFINED> instruction: 01000000
     a10:	43010000 	movwmi	r0, #4096	@ 0x1000
     a14:	72615c3a 			@ <UNDEFINED> instruction: 72615c3a
     a18:	6e672d6d 			@ <UNDEFINED> instruction: 6e672d6d
     a1c:	6f742d75 			@ <UNDEFINED> instruction: 6f742d75
     a20:	68636c6f 			@ <UNDEFINED> instruction: 68636c6f
     a24:	2d6e6961 			@ <UNDEFINED> instruction: 2d6e6961
     a28:	322e3531 			@ <UNDEFINED> instruction: 322e3531
     a2c:	6c65722e 			@ <UNDEFINED> instruction: 6c65722e
     a30:	696d2d31 			@ <UNDEFINED> instruction: 696d2d31
     a34:	2d77676e 			@ <UNDEFINED> instruction: 2d77676e
     a38:	2d343677 			@ <UNDEFINED> instruction: 2d343677
     a3c:	36383669 			@ <UNDEFINED> instruction: 36383669
     a40:	6d72612d 			@ <UNDEFINED> instruction: 6d72612d
     a44:	6e6f6e2d 			@ <UNDEFINED> instruction: 6e6f6e2d
     a48:	61652d65 			@ <UNDEFINED> instruction: 61652d65
     a4c:	612f6962 			@ <UNDEFINED> instruction: 612f6962
     a50:	6e2d6d72 			@ <UNDEFINED> instruction: 6e2d6d72
     a54:	2d656e6f 			@ <UNDEFINED> instruction: 2d656e6f
     a58:	69626165 			@ <UNDEFINED> instruction: 69626165
     a5c:	636e692f 			@ <UNDEFINED> instruction: 636e692f
     a60:	6564756c 			@ <UNDEFINED> instruction: 6564756c
     a64:	63616d2f 			@ <UNDEFINED> instruction: 63616d2f
     a68:	656e6968 			@ <UNDEFINED> instruction: 656e6968
     a6c:	5c3a4300 			@ <UNDEFINED> instruction: 5c3a4300
     a70:	2d6d7261 			@ <UNDEFINED> instruction: 2d6d7261
     a74:	2d756e67 			@ <UNDEFINED> instruction: 2d756e67
     a78:	6c6f6f74 			@ <UNDEFINED> instruction: 6c6f6f74
     a7c:	69616863 			@ <UNDEFINED> instruction: 69616863
     a80:	35312d6e 			@ <UNDEFINED> instruction: 35312d6e
     a84:	722e322e 			@ <UNDEFINED> instruction: 722e322e
     a88:	2d316c65 			@ <UNDEFINED> instruction: 2d316c65
     a8c:	676e696d 			@ <UNDEFINED> instruction: 676e696d
     a90:	36772d77 			@ <UNDEFINED> instruction: 36772d77
     a94:	36692d34 			@ <UNDEFINED> instruction: 36692d34
     a98:	612d3638 			@ <UNDEFINED> instruction: 612d3638
     a9c:	6e2d6d72 			@ <UNDEFINED> instruction: 6e2d6d72
     aa0:	2d656e6f 			@ <UNDEFINED> instruction: 2d656e6f
     aa4:	69626165 			@ <UNDEFINED> instruction: 69626165
     aa8:	6d72612f 			@ <UNDEFINED> instruction: 6d72612f
     aac:	6e6f6e2d 			@ <UNDEFINED> instruction: 6e6f6e2d
     ab0:	61652d65 			@ <UNDEFINED> instruction: 61652d65
     ab4:	692f6962 			@ <UNDEFINED> instruction: 692f6962
     ab8:	756c636e 			@ <UNDEFINED> instruction: 756c636e
     abc:	732f6564 			@ <UNDEFINED> instruction: 732f6564
     ac0:	00007379 			@ <UNDEFINED> instruction: 00007379
     ac4:	74737973 			@ <UNDEFINED> instruction: 74737973
     ac8:	735f6d65 			@ <UNDEFINED> instruction: 735f6d65
     acc:	32336d74 			@ <UNDEFINED> instruction: 32336d74
     ad0:	78783466 			@ <UNDEFINED> instruction: 78783466
     ad4:	0000632e 			@ <UNDEFINED> instruction: 0000632e
     ad8:	645f0000 			@ <UNDEFINED> instruction: 645f0000
     adc:	75616665 			@ <UNDEFINED> instruction: 75616665
     ae0:	745f746c 			@ <UNDEFINED> instruction: 745f746c
     ae4:	73657079 			@ <UNDEFINED> instruction: 73657079
     ae8:	0100682e 			@ <UNDEFINED> instruction: 0100682e
     aec:	735f0000 			@ <UNDEFINED> instruction: 735f0000
     af0:	6e696474 			@ <UNDEFINED> instruction: 6e696474
     af4:	00682e74 			@ <UNDEFINED> instruction: 00682e74
     af8:	63000002 	movwvs	r0, #2
     afc:	5f65726f 			@ <UNDEFINED> instruction: 5f65726f
     b00:	2e346d63 			@ <UNDEFINED> instruction: 2e346d63
     b04:	00000068 			@ <UNDEFINED> instruction: 00000068
     b08:	73797300 			@ <UNDEFINED> instruction: 73797300
     b0c:	5f6d6574 			@ <UNDEFINED> instruction: 5f6d6574
     b10:	336d7473 			@ <UNDEFINED> instruction: 336d7473
     b14:	78346632 			@ <UNDEFINED> instruction: 78346632
     b18:	00682e78 			@ <UNDEFINED> instruction: 00682e78
     b1c:	73000000 	movwvc	r0, #0
     b20:	32336d74 			@ <UNDEFINED> instruction: 32336d74
     b24:	31313466 			@ <UNDEFINED> instruction: 31313466
     b28:	682e6578 			@ <UNDEFINED> instruction: 682e6578
     b2c:	00000000 			@ <UNDEFINED> instruction: 00000000
     b30:	00010500 			@ <UNDEFINED> instruction: 00010500
     b34:	03000205 	movweq	r0, #517	@ 0x205
     b38:	a7030800 			@ <UNDEFINED> instruction: a7030800
     b3c:	05050101 			@ <UNDEFINED> instruction: 05050101
     b40:	06080515 			@ <UNDEFINED> instruction: 06080515
     b44:	3c100501 			@ <UNDEFINED> instruction: 3c100501
     b48:	0b030105 			@ <UNDEFINED> instruction: 0b030105
     b4c:	2703064a 			@ <UNDEFINED> instruction: 2703064a
     b50:	1303053c 	movwne	r0, #13628	@ 0x353c
     b54:	060c0515 			@ <UNDEFINED> instruction: 060c0515
     b58:	2e070501 			@ <UNDEFINED> instruction: 2e070501
     b5c:	30060305 			@ <UNDEFINED> instruction: 30060305
     b60:	05582403 			@ <UNDEFINED> instruction: 05582403
     b64:	0501061c 			@ <UNDEFINED> instruction: 0501061c
     b68:	1c052016 			@ <UNDEFINED> instruction: 1c052016
     b6c:	06030520 			@ <UNDEFINED> instruction: 06030520
     b70:	06130522 			@ <UNDEFINED> instruction: 06130522
     b74:	1e340501 			@ <UNDEFINED> instruction: 1e340501
     b78:	052e0705 			@ <UNDEFINED> instruction: 052e0705
     b7c:	01052213 			@ <UNDEFINED> instruction: 01052213
     b80:	0607052f 			@ <UNDEFINED> instruction: 0607052f
     b84:	05206603 			@ <UNDEFINED> instruction: 05206603
     b88:	05010617 			@ <UNDEFINED> instruction: 05010617
     b8c:	05210607 			@ <UNDEFINED> instruction: 05210607
     b90:	05010611 			@ <UNDEFINED> instruction: 05010611
     b94:	2c05220a 			@ <UNDEFINED> instruction: 2c05220a
     b98:	201d0531 			@ <UNDEFINED> instruction: 201d0531
     b9c:	204a0533 			@ <UNDEFINED> instruction: 204a0533
     ba0:	76030c05 			@ <UNDEFINED> instruction: 76030c05
     ba4:	0607052e 			@ <UNDEFINED> instruction: 0607052e
     ba8:	15090530 			@ <UNDEFINED> instruction: 15090530
     bac:	061d0517 			@ <UNDEFINED> instruction: 061d0517
     bb0:	2e100501 			@ <UNDEFINED> instruction: 2e100501
     bb4:	31060705 			@ <UNDEFINED> instruction: 31060705
     bb8:	01061405 			@ <UNDEFINED> instruction: 01061405
     bbc:	2f060705 			@ <UNDEFINED> instruction: 2f060705
     bc0:	11063205 			@ <UNDEFINED> instruction: 11063205
     bc4:	052e3805 			@ <UNDEFINED> instruction: 052e3805
     bc8:	1f05200c 			@ <UNDEFINED> instruction: 1f05200c
     bcc:	06070521 			@ <UNDEFINED> instruction: 06070521
     bd0:	0603052f 			@ <UNDEFINED> instruction: 0603052f
     bd4:	20206303 			@ <UNDEFINED> instruction: 20206303
     bd8:	01000b02 			@ <UNDEFINED> instruction: 01000b02
     bdc:	00017001 			@ <UNDEFINED> instruction: 00017001
     be0:	ff000300 			@ <UNDEFINED> instruction: ff000300
     be4:	02000000 			@ <UNDEFINED> instruction: 02000000
     be8:	0d0efb01 	vstreq	d15, [lr, #-4]
     bec:	01010100 			@ <UNDEFINED> instruction: 01010100
     bf0:	00000001 			@ <UNDEFINED> instruction: 00000001
     bf4:	01000001 			@ <UNDEFINED> instruction: 01000001
     bf8:	615c3a43 			@ <UNDEFINED> instruction: 615c3a43
     bfc:	672d6d72 			@ <UNDEFINED> instruction: 672d6d72
     c00:	742d756e 			@ <UNDEFINED> instruction: 742d756e
     c04:	636c6f6f 			@ <UNDEFINED> instruction: 636c6f6f
     c08:	6e696168 			@ <UNDEFINED> instruction: 6e696168
     c0c:	2e35312d 			@ <UNDEFINED> instruction: 2e35312d
     c10:	65722e32 			@ <UNDEFINED> instruction: 65722e32
     c14:	6d2d316c 			@ <UNDEFINED> instruction: 6d2d316c
     c18:	77676e69 			@ <UNDEFINED> instruction: 77676e69
     c1c:	3436772d 			@ <UNDEFINED> instruction: 3436772d
     c20:	3836692d 			@ <UNDEFINED> instruction: 3836692d
     c24:	72612d36 			@ <UNDEFINED> instruction: 72612d36
     c28:	6f6e2d6d 			@ <UNDEFINED> instruction: 6f6e2d6d
     c2c:	652d656e 			@ <UNDEFINED> instruction: 652d656e
     c30:	2f696261 			@ <UNDEFINED> instruction: 2f696261
     c34:	2d6d7261 			@ <UNDEFINED> instruction: 2d6d7261
     c38:	656e6f6e 			@ <UNDEFINED> instruction: 656e6f6e
     c3c:	6261652d 			@ <UNDEFINED> instruction: 6261652d
     c40:	6e692f69 			@ <UNDEFINED> instruction: 6e692f69
     c44:	64756c63 			@ <UNDEFINED> instruction: 64756c63
     c48:	616d2f65 			@ <UNDEFINED> instruction: 616d2f65
     c4c:	6e696863 			@ <UNDEFINED> instruction: 6e696863
     c50:	3a430065 			@ <UNDEFINED> instruction: 3a430065
     c54:	6d72615c 			@ <UNDEFINED> instruction: 6d72615c
     c58:	756e672d 			@ <UNDEFINED> instruction: 756e672d
     c5c:	6f6f742d 			@ <UNDEFINED> instruction: 6f6f742d
     c60:	6168636c 			@ <UNDEFINED> instruction: 6168636c
     c64:	312d6e69 			@ <UNDEFINED> instruction: 312d6e69
     c68:	2e322e35 			@ <UNDEFINED> instruction: 2e322e35
     c6c:	316c6572 			@ <UNDEFINED> instruction: 316c6572
     c70:	6e696d2d 			@ <UNDEFINED> instruction: 6e696d2d
     c74:	772d7767 			@ <UNDEFINED> instruction: 772d7767
     c78:	692d3436 			@ <UNDEFINED> instruction: 692d3436
     c7c:	2d363836 			@ <UNDEFINED> instruction: 2d363836
     c80:	2d6d7261 			@ <UNDEFINED> instruction: 2d6d7261
     c84:	656e6f6e 			@ <UNDEFINED> instruction: 656e6f6e
     c88:	6261652d 			@ <UNDEFINED> instruction: 6261652d
     c8c:	72612f69 			@ <UNDEFINED> instruction: 72612f69
     c90:	6f6e2d6d 			@ <UNDEFINED> instruction: 6f6e2d6d
     c94:	652d656e 			@ <UNDEFINED> instruction: 652d656e
     c98:	2f696261 			@ <UNDEFINED> instruction: 2f696261
     c9c:	6c636e69 			@ <UNDEFINED> instruction: 6c636e69
     ca0:	2f656475 			@ <UNDEFINED> instruction: 2f656475
     ca4:	00737973 			@ <UNDEFINED> instruction: 00737973
     ca8:	73797300 			@ <UNDEFINED> instruction: 73797300
     cac:	6b636974 			@ <UNDEFINED> instruction: 6b636974
     cb0:	0000632e 			@ <UNDEFINED> instruction: 0000632e
     cb4:	645f0000 			@ <UNDEFINED> instruction: 645f0000
     cb8:	75616665 			@ <UNDEFINED> instruction: 75616665
     cbc:	745f746c 			@ <UNDEFINED> instruction: 745f746c
     cc0:	73657079 			@ <UNDEFINED> instruction: 73657079
     cc4:	0100682e 			@ <UNDEFINED> instruction: 0100682e
     cc8:	735f0000 			@ <UNDEFINED> instruction: 735f0000
     ccc:	6e696474 			@ <UNDEFINED> instruction: 6e696474
     cd0:	00682e74 			@ <UNDEFINED> instruction: 00682e74
     cd4:	63000002 	movwvs	r0, #2
     cd8:	5f65726f 			@ <UNDEFINED> instruction: 5f65726f
     cdc:	2e346d63 			@ <UNDEFINED> instruction: 2e346d63
     ce0:	00000068 			@ <UNDEFINED> instruction: 00000068
     ce4:	01050000 			@ <UNDEFINED> instruction: 01050000
     ce8:	84020500 			@ <UNDEFINED> instruction: 84020500
     cec:	15080003 			@ <UNDEFINED> instruction: 15080003
     cf0:	05140205 			@ <UNDEFINED> instruction: 05140205
     cf4:	05300616 			@ <UNDEFINED> instruction: 05300616
     cf8:	16052c02 			@ <UNDEFINED> instruction: 16052c02
     cfc:	300f055a 			@ <UNDEFINED> instruction: 300f055a
     d00:	061c0205 			@ <UNDEFINED> instruction: 061c0205
     d04:	06100522 			@ <UNDEFINED> instruction: 06100522
     d08:	06020501 			@ <UNDEFINED> instruction: 06020501
     d0c:	060f0522 			@ <UNDEFINED> instruction: 060f0522
     d10:	06020501 			@ <UNDEFINED> instruction: 06020501
     d14:	06010522 			@ <UNDEFINED> instruction: 06010522
     d18:	0523064b 			@ <UNDEFINED> instruction: 0523064b
     d1c:	12051402 			@ <UNDEFINED> instruction: 12051402
     d20:	01050106 			@ <UNDEFINED> instruction: 01050106
     d24:	053f063e 			@ <UNDEFINED> instruction: 053f063e
     d28:	09051402 			@ <UNDEFINED> instruction: 09051402
     d2c:	01050106 			@ <UNDEFINED> instruction: 01050106
     d30:	0523063e 			@ <UNDEFINED> instruction: 0523063e
     d34:	09051402 			@ <UNDEFINED> instruction: 09051402
     d38:	01050106 			@ <UNDEFINED> instruction: 01050106
     d3c:	0523063e 			@ <UNDEFINED> instruction: 0523063e
     d40:	09051402 			@ <UNDEFINED> instruction: 09051402
     d44:	10050106 			@ <UNDEFINED> instruction: 10050106
     d48:	3d01053c 			@ <UNDEFINED> instruction: 3d01053c
     d4c:	01000102 			@ <UNDEFINED> instruction: 01000102
     d50:	00058e01 			@ <UNDEFINED> instruction: 00058e01
     d54:	d7000300 			@ <UNDEFINED> instruction: d7000300
     d58:	02000001 			@ <UNDEFINED> instruction: 02000001
     d5c:	0d0efb01 	vstreq	d15, [lr, #-4]
     d60:	01010100 			@ <UNDEFINED> instruction: 01010100
     d64:	00000001 			@ <UNDEFINED> instruction: 00000001
     d68:	01000001 			@ <UNDEFINED> instruction: 01000001
     d6c:	615c3a43 			@ <UNDEFINED> instruction: 615c3a43
     d70:	672d6d72 			@ <UNDEFINED> instruction: 672d6d72
     d74:	742d756e 			@ <UNDEFINED> instruction: 742d756e
     d78:	636c6f6f 			@ <UNDEFINED> instruction: 636c6f6f
     d7c:	6e696168 			@ <UNDEFINED> instruction: 6e696168
     d80:	2e35312d 			@ <UNDEFINED> instruction: 2e35312d
     d84:	65722e32 			@ <UNDEFINED> instruction: 65722e32
     d88:	6d2d316c 			@ <UNDEFINED> instruction: 6d2d316c
     d8c:	77676e69 			@ <UNDEFINED> instruction: 77676e69
     d90:	3436772d 			@ <UNDEFINED> instruction: 3436772d
     d94:	3836692d 			@ <UNDEFINED> instruction: 3836692d
     d98:	72612d36 			@ <UNDEFINED> instruction: 72612d36
     d9c:	6f6e2d6d 			@ <UNDEFINED> instruction: 6f6e2d6d
     da0:	652d656e 			@ <UNDEFINED> instruction: 652d656e
     da4:	2f696261 			@ <UNDEFINED> instruction: 2f696261
     da8:	2d6d7261 			@ <UNDEFINED> instruction: 2d6d7261
     dac:	656e6f6e 			@ <UNDEFINED> instruction: 656e6f6e
     db0:	6261652d 			@ <UNDEFINED> instruction: 6261652d
     db4:	6e692f69 			@ <UNDEFINED> instruction: 6e692f69
     db8:	64756c63 			@ <UNDEFINED> instruction: 64756c63
     dbc:	616d2f65 			@ <UNDEFINED> instruction: 616d2f65
     dc0:	6e696863 			@ <UNDEFINED> instruction: 6e696863
     dc4:	3a430065 			@ <UNDEFINED> instruction: 3a430065
     dc8:	6d72615c 			@ <UNDEFINED> instruction: 6d72615c
     dcc:	756e672d 			@ <UNDEFINED> instruction: 756e672d
     dd0:	6f6f742d 			@ <UNDEFINED> instruction: 6f6f742d
     dd4:	6168636c 			@ <UNDEFINED> instruction: 6168636c
     dd8:	312d6e69 			@ <UNDEFINED> instruction: 312d6e69
     ddc:	2e322e35 			@ <UNDEFINED> instruction: 2e322e35
     de0:	316c6572 			@ <UNDEFINED> instruction: 316c6572
     de4:	6e696d2d 			@ <UNDEFINED> instruction: 6e696d2d
     de8:	772d7767 			@ <UNDEFINED> instruction: 772d7767
     dec:	692d3436 			@ <UNDEFINED> instruction: 692d3436
     df0:	2d363836 			@ <UNDEFINED> instruction: 2d363836
     df4:	2d6d7261 			@ <UNDEFINED> instruction: 2d6d7261
     df8:	656e6f6e 			@ <UNDEFINED> instruction: 656e6f6e
     dfc:	6261652d 			@ <UNDEFINED> instruction: 6261652d
     e00:	72612f69 			@ <UNDEFINED> instruction: 72612f69
     e04:	6f6e2d6d 			@ <UNDEFINED> instruction: 6f6e2d6d
     e08:	652d656e 			@ <UNDEFINED> instruction: 652d656e
     e0c:	2f696261 			@ <UNDEFINED> instruction: 2f696261
     e10:	6c636e69 			@ <UNDEFINED> instruction: 6c636e69
     e14:	2f656475 			@ <UNDEFINED> instruction: 2f656475
     e18:	00737973 			@ <UNDEFINED> instruction: 00737973
     e1c:	615c3a43 			@ <UNDEFINED> instruction: 615c3a43
     e20:	672d6d72 			@ <UNDEFINED> instruction: 672d6d72
     e24:	742d756e 			@ <UNDEFINED> instruction: 742d756e
     e28:	636c6f6f 			@ <UNDEFINED> instruction: 636c6f6f
     e2c:	6e696168 			@ <UNDEFINED> instruction: 6e696168
     e30:	2e35312d 			@ <UNDEFINED> instruction: 2e35312d
     e34:	65722e32 			@ <UNDEFINED> instruction: 65722e32
     e38:	6d2d316c 			@ <UNDEFINED> instruction: 6d2d316c
     e3c:	77676e69 			@ <UNDEFINED> instruction: 77676e69
     e40:	3436772d 			@ <UNDEFINED> instruction: 3436772d
     e44:	3836692d 			@ <UNDEFINED> instruction: 3836692d
     e48:	72612d36 			@ <UNDEFINED> instruction: 72612d36
     e4c:	6f6e2d6d 			@ <UNDEFINED> instruction: 6f6e2d6d
     e50:	652d656e 			@ <UNDEFINED> instruction: 652d656e
     e54:	2f696261 			@ <UNDEFINED> instruction: 2f696261
     e58:	2f62696c 			@ <UNDEFINED> instruction: 2f62696c
     e5c:	2f636367 			@ <UNDEFINED> instruction: 2f636367
     e60:	2d6d7261 			@ <UNDEFINED> instruction: 2d6d7261
     e64:	656e6f6e 			@ <UNDEFINED> instruction: 656e6f6e
     e68:	6261652d 			@ <UNDEFINED> instruction: 6261652d
     e6c:	35312f69 			@ <UNDEFINED> instruction: 35312f69
     e70:	312e322e 			@ <UNDEFINED> instruction: 312e322e
     e74:	636e692f 			@ <UNDEFINED> instruction: 636e692f
     e78:	6564756c 			@ <UNDEFINED> instruction: 6564756c
     e7c:	5c3a4300 			@ <UNDEFINED> instruction: 5c3a4300
     e80:	2d6d7261 			@ <UNDEFINED> instruction: 2d6d7261
     e84:	2d756e67 			@ <UNDEFINED> instruction: 2d756e67
     e88:	6c6f6f74 			@ <UNDEFINED> instruction: 6c6f6f74
     e8c:	69616863 			@ <UNDEFINED> instruction: 69616863
     e90:	35312d6e 			@ <UNDEFINED> instruction: 35312d6e
     e94:	722e322e 			@ <UNDEFINED> instruction: 722e322e
     e98:	2d316c65 			@ <UNDEFINED> instruction: 2d316c65
     e9c:	676e696d 			@ <UNDEFINED> instruction: 676e696d
     ea0:	36772d77 			@ <UNDEFINED> instruction: 36772d77
     ea4:	36692d34 			@ <UNDEFINED> instruction: 36692d34
     ea8:	612d3638 			@ <UNDEFINED> instruction: 612d3638
     eac:	6e2d6d72 			@ <UNDEFINED> instruction: 6e2d6d72
     eb0:	2d656e6f 			@ <UNDEFINED> instruction: 2d656e6f
     eb4:	69626165 			@ <UNDEFINED> instruction: 69626165
     eb8:	6d72612f 			@ <UNDEFINED> instruction: 6d72612f
     ebc:	6e6f6e2d 			@ <UNDEFINED> instruction: 6e6f6e2d
     ec0:	61652d65 			@ <UNDEFINED> instruction: 61652d65
     ec4:	692f6962 			@ <UNDEFINED> instruction: 692f6962
     ec8:	756c636e 			@ <UNDEFINED> instruction: 756c636e
     ecc:	00006564 			@ <UNDEFINED> instruction: 00006564
     ed0:	74726175 			@ <UNDEFINED> instruction: 74726175
     ed4:	0000632e 			@ <UNDEFINED> instruction: 0000632e
     ed8:	645f0000 			@ <UNDEFINED> instruction: 645f0000
     edc:	75616665 			@ <UNDEFINED> instruction: 75616665
     ee0:	745f746c 			@ <UNDEFINED> instruction: 745f746c
     ee4:	73657079 			@ <UNDEFINED> instruction: 73657079
     ee8:	0100682e 			@ <UNDEFINED> instruction: 0100682e
     eec:	735f0000 			@ <UNDEFINED> instruction: 735f0000
     ef0:	6e696474 			@ <UNDEFINED> instruction: 6e696474
     ef4:	00682e74 			@ <UNDEFINED> instruction: 00682e74
     ef8:	73000002 	movwvc	r0, #2
     efc:	32336d74 			@ <UNDEFINED> instruction: 32336d74
     f00:	31313466 			@ <UNDEFINED> instruction: 31313466
     f04:	682e6578 			@ <UNDEFINED> instruction: 682e6578
     f08:	00000000 			@ <UNDEFINED> instruction: 00000000
     f0c:	61647473 			@ <UNDEFINED> instruction: 61647473
     f10:	682e6772 			@ <UNDEFINED> instruction: 682e6772
     f14:	00000300 			@ <UNDEFINED> instruction: 00000300
     f18:	69647473 			@ <UNDEFINED> instruction: 69647473
     f1c:	00682e6f 			@ <UNDEFINED> instruction: 00682e6f
     f20:	3c000004 			@ <UNDEFINED> instruction: 3c000004
     f24:	6c697562 			@ <UNDEFINED> instruction: 6c697562
     f28:	6e692d74 			@ <UNDEFINED> instruction: 6e692d74
     f2c:	0000003e 			@ <UNDEFINED> instruction: 0000003e
     f30:	01050000 			@ <UNDEFINED> instruction: 01050000
     f34:	d8020500 			@ <UNDEFINED> instruction: d8020500
     f38:	1a080003 			@ <UNDEFINED> instruction: 1a080003
     f3c:	13130305 			@ <UNDEFINED> instruction: 13130305
     f40:	01051413 			@ <UNDEFINED> instruction: 01051413
     f44:	03050d06 	movweq	r0, #23814	@ 0x5d06
     f48:	051e2225 			@ <UNDEFINED> instruction: 051e2225
     f4c:	03053701 	movweq	r3, #22273	@ 0x5701
     f50:	4b210625 			@ <UNDEFINED> instruction: 4b210625
     f54:	05686767 			@ <UNDEFINED> instruction: 05686767
     f58:	05010622 			@ <UNDEFINED> instruction: 05010622
     f5c:	19052029 			@ <UNDEFINED> instruction: 19052029
     f60:	0603052e 			@ <UNDEFINED> instruction: 0603052e
     f64:	061c0521 			@ <UNDEFINED> instruction: 061c0521
     f68:	580f0501 			@ <UNDEFINED> instruction: 580f0501
     f6c:	21060305 			@ <UNDEFINED> instruction: 21060305
     f70:	01061a05 			@ <UNDEFINED> instruction: 01061a05
     f74:	05201c05 			@ <UNDEFINED> instruction: 05201c05
     f78:	03052e0f 	movweq	r2, #24079	@ 0x5e0f
     f7c:	1c052106 			@ <UNDEFINED> instruction: 1c052106
     f80:	0f050106 			@ <UNDEFINED> instruction: 0f050106
     f84:	06030558 			@ <UNDEFINED> instruction: 06030558
     f88:	060c0521 			@ <UNDEFINED> instruction: 060c0521
     f8c:	20050501 			@ <UNDEFINED> instruction: 20050501
     f90:	22060305 			@ <UNDEFINED> instruction: 22060305
     f94:	01061405 			@ <UNDEFINED> instruction: 01061405
     f98:	6607052e 			@ <UNDEFINED> instruction: 6607052e
     f9c:	75060305 			@ <UNDEFINED> instruction: 75060305
     fa0:	01060a05 			@ <UNDEFINED> instruction: 01060a05
     fa4:	3d060305 			@ <UNDEFINED> instruction: 3d060305
     fa8:	01061505 			@ <UNDEFINED> instruction: 01061505
     fac:	661d052e 			@ <UNDEFINED> instruction: 661d052e
     fb0:	054a2305 			@ <UNDEFINED> instruction: 054a2305
     fb4:	03054a0a 	movweq	r4, #23050	@ 0x5a0a
     fb8:	14132f06 			@ <UNDEFINED> instruction: 14132f06
     fbc:	01060f05 			@ <UNDEFINED> instruction: 01060f05
     fc0:	2f1d0805 			@ <UNDEFINED> instruction: 2f1d0805
     fc4:	05320f05 			@ <UNDEFINED> instruction: 05320f05
     fc8:	0f051e1a 			@ <UNDEFINED> instruction: 0f051e1a
     fcc:	03052d2f 	movweq	r2, #23855	@ 0x5d2f
     fd0:	0f052106 			@ <UNDEFINED> instruction: 0f052106
     fd4:	03050106 	movweq	r0, #20742	@ 0x5106
     fd8:	0f052106 			@ <UNDEFINED> instruction: 0f052106
     fdc:	03050106 	movweq	r0, #20742	@ 0x5106
     fe0:	0f052106 			@ <UNDEFINED> instruction: 0f052106
     fe4:	01050106 			@ <UNDEFINED> instruction: 01050106
     fe8:	00062e21 			@ <UNDEFINED> instruction: 00062e21
     fec:	04c40205 			@ <UNDEFINED> instruction: 04c40205
     ff0:	05150800 			@ <UNDEFINED> instruction: 05150800
     ff4:	05051303 			@ <UNDEFINED> instruction: 05051303
     ff8:	0a050106 			@ <UNDEFINED> instruction: 0a050106
     ffc:	01040200 			@ <UNDEFINED> instruction: 01040200
    1000:	00090534 			@ <UNDEFINED> instruction: 00090534
    1004:	06010402 			@ <UNDEFINED> instruction: 06010402
    1008:	000a0520 			@ <UNDEFINED> instruction: 000a0520
    100c:	06010402 			@ <UNDEFINED> instruction: 06010402
    1010:	00090501 			@ <UNDEFINED> instruction: 00090501
    1014:	20010402 			@ <UNDEFINED> instruction: 20010402
    1018:	2f060305 			@ <UNDEFINED> instruction: 2f060305
    101c:	01060e05 			@ <UNDEFINED> instruction: 01060e05
    1020:	05210105 			@ <UNDEFINED> instruction: 05210105
    1024:	0402000c 			@ <UNDEFINED> instruction: 0402000c
    1028:	207a0301 			@ <UNDEFINED> instruction: 207a0301
    102c:	02000b05 			@ <UNDEFINED> instruction: 02000b05
    1030:	20060104 			@ <UNDEFINED> instruction: 20060104
    1034:	02000c05 			@ <UNDEFINED> instruction: 02000c05
    1038:	01060104 			@ <UNDEFINED> instruction: 01060104
    103c:	02000b05 			@ <UNDEFINED> instruction: 02000b05
    1040:	05200104 			@ <UNDEFINED> instruction: 05200104
    1044:	052f0605 			@ <UNDEFINED> instruction: 052f0605
    1048:	05010610 			@ <UNDEFINED> instruction: 05010610
    104c:	05000601 			@ <UNDEFINED> instruction: 05000601
    1050:	0004e802 			@ <UNDEFINED> instruction: 0004e802
    1054:	03051a08 	movweq	r1, #23048	@ 0x5a08
    1058:	14131313 			@ <UNDEFINED> instruction: 14131313
    105c:	0d060105 			@ <UNDEFINED> instruction: 0d060105
    1060:	22250305 			@ <UNDEFINED> instruction: 22250305
    1064:	3701051e 	smladcc	r1, lr, r5, r0
    1068:	06250305 			@ <UNDEFINED> instruction: 06250305
    106c:	67674b21 			@ <UNDEFINED> instruction: 67674b21
    1070:	06220568 			@ <UNDEFINED> instruction: 06220568
    1074:	20290501 			@ <UNDEFINED> instruction: 20290501
    1078:	052e1905 			@ <UNDEFINED> instruction: 052e1905
    107c:	05210603 			@ <UNDEFINED> instruction: 05210603
    1080:	0501061c 			@ <UNDEFINED> instruction: 0501061c
    1084:	03053c0f 	movweq	r3, #23567	@ 0x5c0f
    1088:	1a052106 			@ <UNDEFINED> instruction: 1a052106
    108c:	1c050106 			@ <UNDEFINED> instruction: 1c050106
    1090:	2e0f0520 			@ <UNDEFINED> instruction: 2e0f0520
    1094:	21060305 			@ <UNDEFINED> instruction: 21060305
    1098:	01061c05 			@ <UNDEFINED> instruction: 01061c05
    109c:	053c0f05 			@ <UNDEFINED> instruction: 053c0f05
    10a0:	05210603 			@ <UNDEFINED> instruction: 05210603
    10a4:	0501060c 			@ <UNDEFINED> instruction: 0501060c
    10a8:	03052005 	movweq	r2, #20485	@ 0x5005
    10ac:	16052206 			@ <UNDEFINED> instruction: 16052206
    10b0:	052e0106 			@ <UNDEFINED> instruction: 052e0106
    10b4:	03056607 	movweq	r6, #22023	@ 0x5607
    10b8:	0a057506 			@ <UNDEFINED> instruction: 0a057506
    10bc:	03050106 	movweq	r0, #20742	@ 0x5106
    10c0:	15053d06 			@ <UNDEFINED> instruction: 15053d06
    10c4:	052e0106 			@ <UNDEFINED> instruction: 052e0106
    10c8:	2205661d 			@ <UNDEFINED> instruction: 2205661d
    10cc:	4a0a054a 			@ <UNDEFINED> instruction: 4a0a054a
    10d0:	2f060305 			@ <UNDEFINED> instruction: 2f060305
    10d4:	0f051313 			@ <UNDEFINED> instruction: 0f051313
    10d8:	08050106 			@ <UNDEFINED> instruction: 08050106
    10dc:	0f052f1e 			@ <UNDEFINED> instruction: 0f052f1e
    10e0:	1d1a0532 			@ <UNDEFINED> instruction: 1d1a0532
    10e4:	2c300f05 			@ <UNDEFINED> instruction: 2c300f05
    10e8:	22060305 			@ <UNDEFINED> instruction: 22060305
    10ec:	01060f05 			@ <UNDEFINED> instruction: 01060f05
    10f0:	21060305 			@ <UNDEFINED> instruction: 21060305
    10f4:	01060f05 			@ <UNDEFINED> instruction: 01060f05
    10f8:	21060305 			@ <UNDEFINED> instruction: 21060305
    10fc:	01060f05 			@ <UNDEFINED> instruction: 01060f05
    1100:	2e210105 			@ <UNDEFINED> instruction: 2e210105
    1104:	02050006 			@ <UNDEFINED> instruction: 02050006
    1108:	080005cc 			@ <UNDEFINED> instruction: 080005cc
    110c:	13030515 	movwne	r0, #13589	@ 0x3515
    1110:	01060505 			@ <UNDEFINED> instruction: 01060505
    1114:	02000a05 			@ <UNDEFINED> instruction: 02000a05
    1118:	05340104 			@ <UNDEFINED> instruction: 05340104
    111c:	04020009 			@ <UNDEFINED> instruction: 04020009
    1120:	05200601 			@ <UNDEFINED> instruction: 05200601
    1124:	0402000a 			@ <UNDEFINED> instruction: 0402000a
    1128:	05010601 			@ <UNDEFINED> instruction: 05010601
    112c:	04020009 			@ <UNDEFINED> instruction: 04020009
    1130:	03052001 	movweq	r2, #20481	@ 0x5001
    1134:	0e052f06 			@ <UNDEFINED> instruction: 0e052f06
    1138:	01050106 			@ <UNDEFINED> instruction: 01050106
    113c:	000c0521 			@ <UNDEFINED> instruction: 000c0521
    1140:	03010402 	movweq	r0, #5122	@ 0x1402
    1144:	0b05207a 			@ <UNDEFINED> instruction: 0b05207a
    1148:	01040200 			@ <UNDEFINED> instruction: 01040200
    114c:	0c052006 			@ <UNDEFINED> instruction: 0c052006
    1150:	01040200 			@ <UNDEFINED> instruction: 01040200
    1154:	0b050106 			@ <UNDEFINED> instruction: 0b050106
    1158:	01040200 			@ <UNDEFINED> instruction: 01040200
    115c:	06050520 			@ <UNDEFINED> instruction: 06050520
    1160:	0610052f 			@ <UNDEFINED> instruction: 0610052f
    1164:	06010501 			@ <UNDEFINED> instruction: 06010501
    1168:	f0020500 			@ <UNDEFINED> instruction: f0020500
    116c:	1a080005 			@ <UNDEFINED> instruction: 1a080005
    1170:	05130305 			@ <UNDEFINED> instruction: 05130305
    1174:	0905010d 			@ <UNDEFINED> instruction: 0905010d
    1178:	0d050106 			@ <UNDEFINED> instruction: 0d050106
    117c:	000c0520 			@ <UNDEFINED> instruction: 000c0520
    1180:	03010402 	movweq	r0, #5122	@ 0x1402
    1184:	10052076 			@ <UNDEFINED> instruction: 10052076
    1188:	05052e21 			@ <UNDEFINED> instruction: 05052e21
    118c:	010b0306 			@ <UNDEFINED> instruction: 010b0306
    1190:	70030605 			@ <UNDEFINED> instruction: 70030605
    1194:	14030501 			@ <UNDEFINED> instruction: 14030501
    1198:	01060505 			@ <UNDEFINED> instruction: 01060505
    119c:	02000905 			@ <UNDEFINED> instruction: 02000905
    11a0:	34060104 			@ <UNDEFINED> instruction: 34060104
    11a4:	02000a05 			@ <UNDEFINED> instruction: 02000a05
    11a8:	01060104 			@ <UNDEFINED> instruction: 01060104
    11ac:	02000905 			@ <UNDEFINED> instruction: 02000905
    11b0:	05200104 			@ <UNDEFINED> instruction: 05200104
    11b4:	052f0603 			@ <UNDEFINED> instruction: 052f0603
    11b8:	2001060e 			@ <UNDEFINED> instruction: 2001060e
    11bc:	17060d05 			@ <UNDEFINED> instruction: 17060d05
    11c0:	01060905 			@ <UNDEFINED> instruction: 01060905
    11c4:	052e0d05 			@ <UNDEFINED> instruction: 052e0d05
    11c8:	0b053201 			@ <UNDEFINED> instruction: 0b053201
    11cc:	01040200 			@ <UNDEFINED> instruction: 01040200
    11d0:	20720306 			@ <UNDEFINED> instruction: 20720306
    11d4:	02000c05 			@ <UNDEFINED> instruction: 02000c05
    11d8:	01060104 			@ <UNDEFINED> instruction: 01060104
    11dc:	02000b05 			@ <UNDEFINED> instruction: 02000b05
    11e0:	05200104 			@ <UNDEFINED> instruction: 05200104
    11e4:	052f0605 			@ <UNDEFINED> instruction: 052f0605
    11e8:	05010610 			@ <UNDEFINED> instruction: 05010610
    11ec:	10030601 			@ <UNDEFINED> instruction: 10030601
    11f0:	13020558 	movwne	r0, #9560	@ 0x2558
    11f4:	01051413 			@ <UNDEFINED> instruction: 01051413
    11f8:	053c0e06 			@ <UNDEFINED> instruction: 053c0e06
    11fc:	01052502 			@ <UNDEFINED> instruction: 01052502
    1200:	3202051b 			@ <UNDEFINED> instruction: 3202051b
    1204:	052f2106 			@ <UNDEFINED> instruction: 052f2106
    1208:	01710306 			@ <UNDEFINED> instruction: 01710306
    120c:	05140305 			@ <UNDEFINED> instruction: 05140305
    1210:	0905010d 			@ <UNDEFINED> instruction: 0905010d
    1214:	0d050106 			@ <UNDEFINED> instruction: 0d050106
    1218:	000c052e 			@ <UNDEFINED> instruction: 000c052e
    121c:	03010402 	movweq	r0, #5122	@ 0x1402
    1220:	10052076 			@ <UNDEFINED> instruction: 10052076
    1224:	0505202f 			@ <UNDEFINED> instruction: 0505202f
    1228:	010b0306 			@ <UNDEFINED> instruction: 010b0306
    122c:	70030605 			@ <UNDEFINED> instruction: 70030605
    1230:	14030501 			@ <UNDEFINED> instruction: 14030501
    1234:	01060505 			@ <UNDEFINED> instruction: 01060505
    1238:	02000905 			@ <UNDEFINED> instruction: 02000905
    123c:	34060104 			@ <UNDEFINED> instruction: 34060104
    1240:	02000a05 			@ <UNDEFINED> instruction: 02000a05
    1244:	01060104 			@ <UNDEFINED> instruction: 01060104
    1248:	02000905 			@ <UNDEFINED> instruction: 02000905
    124c:	05200104 			@ <UNDEFINED> instruction: 05200104
    1250:	052f0603 			@ <UNDEFINED> instruction: 052f0603
    1254:	2001060e 			@ <UNDEFINED> instruction: 2001060e
    1258:	17060d05 			@ <UNDEFINED> instruction: 17060d05
    125c:	01060905 			@ <UNDEFINED> instruction: 01060905
    1260:	2e2e0d05 			@ <UNDEFINED> instruction: 2e2e0d05
    1264:	0f030105 			@ <UNDEFINED> instruction: 0f030105
    1268:	000b0501 			@ <UNDEFINED> instruction: 000b0501
    126c:	06010402 			@ <UNDEFINED> instruction: 06010402
    1270:	05586703 			@ <UNDEFINED> instruction: 05586703
    1274:	0402000c 			@ <UNDEFINED> instruction: 0402000c
    1278:	05010601 			@ <UNDEFINED> instruction: 05010601
    127c:	0402000b 			@ <UNDEFINED> instruction: 0402000b
    1280:	05052001 			@ <UNDEFINED> instruction: 05052001
    1284:	10052f06 			@ <UNDEFINED> instruction: 10052f06
    1288:	01050106 			@ <UNDEFINED> instruction: 01050106
    128c:	02050006 			@ <UNDEFINED> instruction: 02050006
    1290:	0800066c 			@ <UNDEFINED> instruction: 0800066c
    1294:	05011b03 			@ <UNDEFINED> instruction: 05011b03
    1298:	05051302 			@ <UNDEFINED> instruction: 05051302
    129c:	04050106 			@ <UNDEFINED> instruction: 04050106
    12a0:	0603052e 			@ <UNDEFINED> instruction: 0603052e
    12a4:	06160530 			@ <UNDEFINED> instruction: 06160530
    12a8:	2e0a0501 			@ <UNDEFINED> instruction: 2e0a0501
    12ac:	06270105 			@ <UNDEFINED> instruction: 06270105
    12b0:	1302053f 	movwne	r0, #9535	@ 0x253f
    12b4:	02000905 			@ <UNDEFINED> instruction: 02000905
    12b8:	01060104 			@ <UNDEFINED> instruction: 01060104
    12bc:	02000805 			@ <UNDEFINED> instruction: 02000805
    12c0:	20060104 			@ <UNDEFINED> instruction: 20060104
    12c4:	02000905 			@ <UNDEFINED> instruction: 02000905
    12c8:	01060104 			@ <UNDEFINED> instruction: 01060104
    12cc:	02000805 			@ <UNDEFINED> instruction: 02000805
    12d0:	05200104 			@ <UNDEFINED> instruction: 05200104
    12d4:	052f0602 			@ <UNDEFINED> instruction: 052f0602
    12d8:	05010615 			@ <UNDEFINED> instruction: 05010615
    12dc:	05022101 			@ <UNDEFINED> instruction: 05022101
    12e0:	6c010100 			@ <UNDEFINED> instruction: 6c010100
    12e4:	05000000 			@ <UNDEFINED> instruction: 05000000
    12e8:	2a000400 			@ <UNDEFINED> instruction: 2a000400
    12ec:	02000000 			@ <UNDEFINED> instruction: 02000000
    12f0:	0efb0101 			@ <UNDEFINED> instruction: 0efb0101
    12f4:	0101000d 			@ <UNDEFINED> instruction: 0101000d
    12f8:	00000101 			@ <UNDEFINED> instruction: 00000101
    12fc:	00000100 			@ <UNDEFINED> instruction: 00000100
    1300:	1f010101 			@ <UNDEFINED> instruction: 1f010101
    1304:	00000001 			@ <UNDEFINED> instruction: 00000001
    1308:	1f010200 			@ <UNDEFINED> instruction: 1f010200
    130c:	49020f02 			@ <UNDEFINED> instruction: 49020f02
    1310:	00000000 			@ <UNDEFINED> instruction: 00000000
    1314:	00000049 			@ <UNDEFINED> instruction: 00000049
    1318:	02050000 			@ <UNDEFINED> instruction: 02050000
    131c:	08000008 			@ <UNDEFINED> instruction: 08000008
    1320:	21010f03 			@ <UNDEFINED> instruction: 21010f03
    1324:	21232f21 			@ <UNDEFINED> instruction: 21232f21
    1328:	212f212f 			@ <UNDEFINED> instruction: 212f212f
    132c:	0903212f 			@ <UNDEFINED> instruction: 0903212f
    1330:	22212120 			@ <UNDEFINED> instruction: 22212120
    1334:	21212321 			@ <UNDEFINED> instruction: 21212321
    1338:	21232f2f 			@ <UNDEFINED> instruction: 21232f2f
    133c:	2f212130 			@ <UNDEFINED> instruction: 2f212130
    1340:	4f033024 			@ <UNDEFINED> instruction: 4f033024
    1344:	1003342e 			@ <UNDEFINED> instruction: 1003342e
    1348:	032f2f2e 			@ <UNDEFINED> instruction: 032f2f2e
    134c:	02022e0d 			@ <UNDEFINED> instruction: 02022e0d
    1350:	Address 0x1350 is out of bounds.


Disassembly of section .debug_str:

00000000 <.debug_str>:
   0:	676e6f6c 			@ <UNDEFINED> instruction: 676e6f6c
   4:	6e6f6c20 			@ <UNDEFINED> instruction: 6e6f6c20
   8:	6e692067 			@ <UNDEFINED> instruction: 6e692067
   c:	44420074 			@ <UNDEFINED> instruction: 44420074
  10:	41005243 			@ <UNDEFINED> instruction: 41005243
  14:	45314248 			@ <UNDEFINED> instruction: 45314248
  18:	5300524e 	movwpl	r5, #590	@ 0x24e
  1c:	52474353 			@ <UNDEFINED> instruction: 52474353
  20:	414c4600 			@ <UNDEFINED> instruction: 414c4600
  24:	545f4853 			@ <UNDEFINED> instruction: 545f4853
  28:	44657079 			@ <UNDEFINED> instruction: 44657079
  2c:	41006665 			@ <UNDEFINED> instruction: 41006665
  30:	4c314248 			@ <UNDEFINED> instruction: 4c314248
  34:	524e4550 			@ <UNDEFINED> instruction: 524e4550
  38:	42484100 			@ <UNDEFINED> instruction: 42484100
  3c:	54535233 			@ <UNDEFINED> instruction: 54535233
  40:	45520052 			@ <UNDEFINED> instruction: 45520052
  44:	56524553 			@ <UNDEFINED> instruction: 56524553
  48:	00304445 			@ <UNDEFINED> instruction: 00304445
  4c:	45534552 			@ <UNDEFINED> instruction: 45534552
  50:	44455652 			@ <UNDEFINED> instruction: 44455652
  54:	45520031 			@ <UNDEFINED> instruction: 45520031
  58:	56524553 			@ <UNDEFINED> instruction: 56524553
  5c:	00324445 			@ <UNDEFINED> instruction: 00324445
  60:	45534552 			@ <UNDEFINED> instruction: 45534552
  64:	44455652 			@ <UNDEFINED> instruction: 44455652
  68:	45520033 			@ <UNDEFINED> instruction: 45520033
  6c:	56524553 			@ <UNDEFINED> instruction: 56524553
  70:	00344445 			@ <UNDEFINED> instruction: 00344445
  74:	45534552 			@ <UNDEFINED> instruction: 45534552
  78:	44455652 			@ <UNDEFINED> instruction: 44455652
  7c:	504f0035 			@ <UNDEFINED> instruction: 504f0035
  80:	00524354 			@ <UNDEFINED> instruction: 00524354
  84:	32424841 			@ <UNDEFINED> instruction: 32424841
  88:	00524e45 			@ <UNDEFINED> instruction: 00524e45
  8c:	636f6c63 			@ <UNDEFINED> instruction: 636f6c63
  90:	00632e6b 			@ <UNDEFINED> instruction: 00632e6b
  94:	31425041 			@ <UNDEFINED> instruction: 31425041
  98:	52545352 			@ <UNDEFINED> instruction: 52545352
  9c:	736e7500 			@ <UNDEFINED> instruction: 736e7500
  a0:	656e6769 			@ <UNDEFINED> instruction: 656e6769
  a4:	68632064 			@ <UNDEFINED> instruction: 68632064
  a8:	4f007261 			@ <UNDEFINED> instruction: 4f007261
  ac:	52435450 			@ <UNDEFINED> instruction: 52435450
  b0:	48410031 			@ <UNDEFINED> instruction: 48410031
  b4:	504c3242 			@ <UNDEFINED> instruction: 504c3242
  b8:	00524e45 			@ <UNDEFINED> instruction: 00524e45
  bc:	434b4344 	movtmi	r4, #45892	@ 0xb344
  c0:	00524746 			@ <UNDEFINED> instruction: 00524746
  c4:	434c4c50 	movtmi	r4, #52304	@ 0xcc50
  c8:	00524746 			@ <UNDEFINED> instruction: 00524746
  cc:	4b54504f 			@ <UNDEFINED> instruction: 4b54504f
  d0:	00525945 			@ <UNDEFINED> instruction: 00525945
  d4:	33424841 	movtcc	r4, #10305	@ 0x2841
  d8:	00524e45 			@ <UNDEFINED> instruction: 00524e45
  dc:	32425041 			@ <UNDEFINED> instruction: 32425041
  e0:	00524e45 			@ <UNDEFINED> instruction: 00524e45
  e4:	69755f5f 			@ <UNDEFINED> instruction: 69755f5f
  e8:	3233746e 			@ <UNDEFINED> instruction: 3233746e
  ec:	4100745f 			@ <UNDEFINED> instruction: 4100745f
  f0:	45314250 			@ <UNDEFINED> instruction: 45314250
  f4:	4300524e 	movwmi	r5, #590	@ 0x24e
  f8:	73555c3a 			@ <UNDEFINED> instruction: 73555c3a
  fc:	5c737265 			@ <UNDEFINED> instruction: 5c737265
 100:	6963636b 			@ <UNDEFINED> instruction: 6963636b
 104:	5c637473 			@ <UNDEFINED> instruction: 5c637473
 108:	6b736544 			@ <UNDEFINED> instruction: 6b736544
 10c:	5c706f74 			@ <UNDEFINED> instruction: 5c706f74
 110:	74726f63 			@ <UNDEFINED> instruction: 74726f63
 114:	ea5f7865 			@ <UNDEFINED> instruction: ea5f7865
 118:	9dec95b0 			@ <UNDEFINED> instruction: 9dec95b0
 11c:	909eec98 			@ <UNDEFINED> instruction: 909eec98
 120:	5c8ca3eb 			@ <UNDEFINED> instruction: 5c8ca3eb
 124:	eca48bec 	vstmia	r4!, {d8-<overflow reg d61>}
 128:	9eecb58a 			@ <UNDEFINED> instruction: 9eecb58a
 12c:	8ca3eb90 	vstmiahi	r3!, {d14-d21}
 130:	3031315c 			@ <UNDEFINED> instruction: 3031315c
 134:	59532e31 			@ <UNDEFINED> instruction: 59532e31
 138:	43495453 	movtmi	r5, #37971	@ 0x9453
 13c:	49545f4b 			@ <UNDEFINED> instruction: 49545f4b
 140:	5f52454d 			@ <UNDEFINED> instruction: 5f52454d
 144:	0042414c 			@ <UNDEFINED> instruction: 0042414c
 148:	32425041 			@ <UNDEFINED> instruction: 32425041
 14c:	52545352 			@ <UNDEFINED> instruction: 52545352
 150:	4c4c5000 	mcrrmi	0, 0, r5, ip, cr0
 154:	43533249 			@ <UNDEFINED> instruction: 43533249
 158:	00524746 			@ <UNDEFINED> instruction: 00524746
 15c:	676e6f6c 			@ <UNDEFINED> instruction: 676e6f6c
 160:	6e6f6c20 			@ <UNDEFINED> instruction: 6e6f6c20
 164:	6e752067 			@ <UNDEFINED> instruction: 6e752067
 168:	6e676973 			@ <UNDEFINED> instruction: 6e676973
 16c:	69206465 			@ <UNDEFINED> instruction: 69206465
 170:	4100746e 			@ <UNDEFINED> instruction: 4100746e
 174:	4c314250 			@ <UNDEFINED> instruction: 4c314250
 178:	524e4550 			@ <UNDEFINED> instruction: 524e4550
 17c:	53455200 	movtpl	r5, #20992	@ 0x5200
 180:	45565245 			@ <UNDEFINED> instruction: 45565245
 184:	41003744 			@ <UNDEFINED> instruction: 41003744
 188:	52314248 			@ <UNDEFINED> instruction: 52314248
 18c:	00525453 			@ <UNDEFINED> instruction: 00525453
 190:	33424841 	movtcc	r4, #10305	@ 0x2841
 194:	4e45504c 			@ <UNDEFINED> instruction: 4e45504c
 198:	6c430052 	mcrrvs	0, 5, r0, r3, cr2
 19c:	5f6b636f 			@ <UNDEFINED> instruction: 5f6b636f
 1a0:	74696e49 			@ <UNDEFINED> instruction: 74696e49
 1a4:	6f687300 			@ <UNDEFINED> instruction: 6f687300
 1a8:	69207472 			@ <UNDEFINED> instruction: 69207472
 1ac:	5200746e 			@ <UNDEFINED> instruction: 5200746e
 1b0:	52455345 			@ <UNDEFINED> instruction: 52455345
 1b4:	36444556 			@ <UNDEFINED> instruction: 36444556
 1b8:	42504100 			@ <UNDEFINED> instruction: 42504100
 1bc:	45504c32 			@ <UNDEFINED> instruction: 45504c32
 1c0:	5200524e 			@ <UNDEFINED> instruction: 5200524e
 1c4:	545f4343 			@ <UNDEFINED> instruction: 545f4343
 1c8:	44657079 			@ <UNDEFINED> instruction: 44657079
 1cc:	47006665 			@ <UNDEFINED> instruction: 47006665
 1d0:	4320554e 			@ <UNDEFINED> instruction: 4320554e
 1d4:	31203939 			@ <UNDEFINED> instruction: 31203939
 1d8:	2e322e35 			@ <UNDEFINED> instruction: 2e322e35
 1dc:	30322031 			@ <UNDEFINED> instruction: 30322031
 1e0:	32313532 			@ <UNDEFINED> instruction: 32313532
 1e4:	2d203330 			@ <UNDEFINED> instruction: 2d203330
 1e8:	7570636d 			@ <UNDEFINED> instruction: 7570636d
 1ec:	726f633d 			@ <UNDEFINED> instruction: 726f633d
 1f0:	2d786574 			@ <UNDEFINED> instruction: 2d786574
 1f4:	2d20346d 			@ <UNDEFINED> instruction: 2d20346d
 1f8:	7568746d 			@ <UNDEFINED> instruction: 7568746d
 1fc:	2d20626d 			@ <UNDEFINED> instruction: 2d20626d
 200:	7570666d 			@ <UNDEFINED> instruction: 7570666d
 204:	7670663d 			@ <UNDEFINED> instruction: 7670663d
 208:	70732d34 			@ <UNDEFINED> instruction: 70732d34
 20c:	3631642d 			@ <UNDEFINED> instruction: 3631642d
 210:	666d2d20 			@ <UNDEFINED> instruction: 666d2d20
 214:	74616f6c 			@ <UNDEFINED> instruction: 74616f6c
 218:	6962612d 			@ <UNDEFINED> instruction: 6962612d
 21c:	7261683d 			@ <UNDEFINED> instruction: 7261683d
 220:	6d2d2064 			@ <UNDEFINED> instruction: 6d2d2064
 224:	68637261 			@ <UNDEFINED> instruction: 68637261
 228:	6d72613d 			@ <UNDEFINED> instruction: 6d72613d
 22c:	2d653776 			@ <UNDEFINED> instruction: 2d653776
 230:	70662b6d 			@ <UNDEFINED> instruction: 70662b6d
 234:	20672d20 			@ <UNDEFINED> instruction: 20672d20
 238:	20334f2d 			@ <UNDEFINED> instruction: 20334f2d
 23c:	6474732d 			@ <UNDEFINED> instruction: 6474732d
 240:	756e673d 			@ <UNDEFINED> instruction: 756e673d
 244:	2d203939 			@ <UNDEFINED> instruction: 2d203939
 248:	2d6f6e66 			@ <UNDEFINED> instruction: 2d6f6e66
 24c:	6c697562 			@ <UNDEFINED> instruction: 6c697562
 250:	206e6974 			@ <UNDEFINED> instruction: 206e6974
 254:	6e75662d 			@ <UNDEFINED> instruction: 6e75662d
 258:	6e676973 			@ <UNDEFINED> instruction: 6e676973
 25c:	632d6465 			@ <UNDEFINED> instruction: 632d6465
 260:	20726168 			@ <UNDEFINED> instruction: 20726168
 264:	6f6e662d 			@ <UNDEFINED> instruction: 6f6e662d
 268:	7274732d 			@ <UNDEFINED> instruction: 7274732d
 26c:	2d746369 			@ <UNDEFINED> instruction: 2d746369
 270:	61696c61 			@ <UNDEFINED> instruction: 61696c61
 274:	676e6973 			@ <UNDEFINED> instruction: 676e6973
 278:	6e662d20 			@ <UNDEFINED> instruction: 6e662d20
 27c:	6f632d6f 			@ <UNDEFINED> instruction: 6f632d6f
 280:	6e6f6d6d 			@ <UNDEFINED> instruction: 6e6f6d6d
 284:	42484100 			@ <UNDEFINED> instruction: 42484100
 288:	54535232 			@ <UNDEFINED> instruction: 54535232
 28c:	68730052 			@ <UNDEFINED> instruction: 68730052
 290:	2074726f 			@ <UNDEFINED> instruction: 2074726f
 294:	69736e75 			@ <UNDEFINED> instruction: 69736e75
 298:	64656e67 			@ <UNDEFINED> instruction: 64656e67
 29c:	746e6920 			@ <UNDEFINED> instruction: 746e6920
 2a0:	50534f00 			@ <UNDEFINED> instruction: 50534f00
 2a4:	52444545 			@ <UNDEFINED> instruction: 52444545
 2a8:	444f4d00 			@ <UNDEFINED> instruction: 444f4d00
 2ac:	4b005245 			@ <UNDEFINED> instruction: 4b005245
 2b0:	575f7965 			@ <UNDEFINED> instruction: 575f7965
 2b4:	5f746961 			@ <UNDEFINED> instruction: 5f746961
 2b8:	5f79654b 			@ <UNDEFINED> instruction: 5f79654b
 2bc:	656c6552 			@ <UNDEFINED> instruction: 656c6552
 2c0:	64657361 			@ <UNDEFINED> instruction: 64657361
 2c4:	52534200 			@ <UNDEFINED> instruction: 52534200
 2c8:	654b0052 			@ <UNDEFINED> instruction: 654b0052
 2cc:	65475f79 			@ <UNDEFINED> instruction: 65475f79
 2d0:	72505f74 			@ <UNDEFINED> instruction: 72505f74
 2d4:	65737365 			@ <UNDEFINED> instruction: 65737365
 2d8:	544f0064 			@ <UNDEFINED> instruction: 544f0064
 2dc:	52455059 			@ <UNDEFINED> instruction: 52455059
 2e0:	79654b00 			@ <UNDEFINED> instruction: 79654b00
 2e4:	6961575f 			@ <UNDEFINED> instruction: 6961575f
 2e8:	654b5f74 			@ <UNDEFINED> instruction: 654b5f74
 2ec:	72505f79 			@ <UNDEFINED> instruction: 72505f79
 2f0:	65737365 			@ <UNDEFINED> instruction: 65737365
 2f4:	656b0064 			@ <UNDEFINED> instruction: 656b0064
 2f8:	00632e79 			@ <UNDEFINED> instruction: 00632e79
 2fc:	5f79654b 			@ <UNDEFINED> instruction: 5f79654b
 300:	6c6c6f50 			@ <UNDEFINED> instruction: 6c6c6f50
 304:	696e495f 			@ <UNDEFINED> instruction: 696e495f
 308:	55500074 			@ <UNDEFINED> instruction: 55500074
 30c:	00524450 			@ <UNDEFINED> instruction: 00524450
 310:	4f495047 			@ <UNDEFINED> instruction: 4f495047
 314:	7079545f 			@ <UNDEFINED> instruction: 7079545f
 318:	66654465 			@ <UNDEFINED> instruction: 66654465
 31c:	4b434c00 			@ <UNDEFINED> instruction: 4b434c00
 320:	656c0052 			@ <UNDEFINED> instruction: 656c0052
 324:	00632e64 			@ <UNDEFINED> instruction: 00632e64
 328:	5f44454c 			@ <UNDEFINED> instruction: 5f44454c
 32c:	0066664f 			@ <UNDEFINED> instruction: 0066664f
 330:	5f44454c 			@ <UNDEFINED> instruction: 5f44454c
 334:	4c006e4f 			@ <UNDEFINED> instruction: 4c006e4f
 338:	495f4445 			@ <UNDEFINED> instruction: 495f4445
 33c:	0074696e 			@ <UNDEFINED> instruction: 0074696e
 340:	54737953 			@ <UNDEFINED> instruction: 54737953
 344:	5f6b6369 			@ <UNDEFINED> instruction: 5f6b6369
 348:	706f7453 			@ <UNDEFINED> instruction: 706f7453
 34c:	41504300 			@ <UNDEFINED> instruction: 41504300
 350:	6d005243 			@ <UNDEFINED> instruction: 6d005243
 354:	2e6e6961 			@ <UNDEFINED> instruction: 2e6e6961
 358:	65730063 			@ <UNDEFINED> instruction: 65730063
 35c:	75627674 			@ <UNDEFINED> instruction: 75627674
 360:	5f5f0066 			@ <UNDEFINED> instruction: 5f5f0066
 364:	62616561 			@ <UNDEFINED> instruction: 62616561
 368:	6d645f69 			@ <UNDEFINED> instruction: 6d645f69
 36c:	5f006c75 			@ <UNDEFINED> instruction: 5f006c75
 370:	6f746377 			@ <UNDEFINED> instruction: 6f746377
 374:	735f626d 			@ <UNDEFINED> instruction: 735f626d
 378:	65746174 			@ <UNDEFINED> instruction: 65746174
 37c:	34725f00 			@ <UNDEFINED> instruction: 34725f00
 380:	735f0038 			@ <UNDEFINED> instruction: 735f0038
 384:	616e6769 			@ <UNDEFINED> instruction: 616e6769
 388:	75625f6c 			@ <UNDEFINED> instruction: 75625f6c
 38c:	6c5f0066 	mrrcvs	0, 6, r0, pc, cr6	@ <UNPREDICTABLE>
 390:	69736662 			@ <UNDEFINED> instruction: 69736662
 394:	4400657a 			@ <UNDEFINED> instruction: 4400657a
 398:	00525346 			@ <UNDEFINED> instruction: 00525346
 39c:	54737953 			@ <UNDEFINED> instruction: 54737953
 3a0:	5f6b6369 			@ <UNDEFINED> instruction: 5f6b6369
 3a4:	5f746547 			@ <UNDEFINED> instruction: 5f746547
 3a8:	656d6954 			@ <UNDEFINED> instruction: 656d6954
 3ac:	65675f00 			@ <UNDEFINED> instruction: 65675f00
 3b0:	636f6c74 			@ <UNDEFINED> instruction: 636f6c74
 3b4:	6e656c61 			@ <UNDEFINED> instruction: 6e656c61
 3b8:	5f656d61 			@ <UNDEFINED> instruction: 5f656d61
 3bc:	75625f6c 			@ <UNDEFINED> instruction: 75625f6c
 3c0:	6d5f0066 			@ <UNDEFINED> instruction: 6d5f0066
 3c4:	61747362 			@ <UNDEFINED> instruction: 61747362
 3c8:	5f006574 			@ <UNDEFINED> instruction: 5f006574
 3cc:	64616572 			@ <UNDEFINED> instruction: 64616572
 3d0:	626d5f00 			@ <UNDEFINED> instruction: 626d5f00
 3d4:	6e656c72 			@ <UNDEFINED> instruction: 6e656c72
 3d8:	6174735f 			@ <UNDEFINED> instruction: 6174735f
 3dc:	5f006574 			@ <UNDEFINED> instruction: 5f006574
 3e0:	6f647473 			@ <UNDEFINED> instruction: 6f647473
 3e4:	5f007475 			@ <UNDEFINED> instruction: 5f007475
 3e8:	736f7066 			@ <UNDEFINED> instruction: 736f7066
 3ec:	5f00745f 			@ <UNDEFINED> instruction: 5f00745f
 3f0:	6b6f6f63 			@ <UNDEFINED> instruction: 6b6f6f63
 3f4:	5f006569 			@ <UNDEFINED> instruction: 5f006569
 3f8:	67616c66 			@ <UNDEFINED> instruction: 67616c66
 3fc:	425f0073 			@ <UNDEFINED> instruction: 425f0073
 400:	6e696769 			@ <UNDEFINED> instruction: 6e696769
 404:	5f5f0074 			@ <UNDEFINED> instruction: 5f5f0074
 408:	775f6d74 			@ <UNDEFINED> instruction: 775f6d74
 40c:	00796164 			@ <UNDEFINED> instruction: 00796164
 410:	7365725f 			@ <UNDEFINED> instruction: 7365725f
 414:	00746c75 			@ <UNDEFINED> instruction: 00746c75
 418:	6d745f5f 			@ <UNDEFINED> instruction: 6d745f5f
 41c:	756f685f 			@ <UNDEFINED> instruction: 756f685f
 420:	4d4d0072 			@ <UNDEFINED> instruction: 4d4d0072
 424:	5f005246 			@ <UNDEFINED> instruction: 5f005246
 428:	756f635f 			@ <UNDEFINED> instruction: 756f635f
 42c:	5f00746e 			@ <UNDEFINED> instruction: 5f00746e
 430:	5f6d745f 			@ <UNDEFINED> instruction: 5f6d745f
 434:	006e696d 			@ <UNDEFINED> instruction: 006e696d
 438:	706d695f 			@ <UNDEFINED> instruction: 706d695f
 43c:	5f657275 			@ <UNDEFINED> instruction: 5f657275
 440:	00727470 			@ <UNDEFINED> instruction: 00727470
 444:	6e61725f 			@ <UNDEFINED> instruction: 6e61725f
 448:	00383464 			@ <UNDEFINED> instruction: 00383464
 44c:	7365725f 			@ <UNDEFINED> instruction: 7365725f
 450:	5f746c75 			@ <UNDEFINED> instruction: 5f746c75
 454:	615f006b 			@ <UNDEFINED> instruction: 615f006b
 458:	69746373 			@ <UNDEFINED> instruction: 69746373
 45c:	625f656d 			@ <UNDEFINED> instruction: 625f656d
 460:	5f006675 			@ <UNDEFINED> instruction: 5f006675
 464:	4946735f 			@ <UNDEFINED> instruction: 4946735f
 468:	5f00454c 			@ <UNDEFINED> instruction: 5f00454c
 46c:	00736477 			@ <UNDEFINED> instruction: 00736477
 470:	6e69614d 			@ <UNDEFINED> instruction: 6e69614d
 474:	465f5f00 			@ <UNDEFINED> instruction: 465f5f00
 478:	00454c49 			@ <UNDEFINED> instruction: 00454c49
 47c:	74726155 			@ <UNDEFINED> instruction: 74726155
 480:	6e495f32 			@ <UNDEFINED> instruction: 6e495f32
 484:	5f007469 			@ <UNDEFINED> instruction: 5f007469
 488:	7366666f 			@ <UNDEFINED> instruction: 7366666f
 48c:	5f007465 			@ <UNDEFINED> instruction: 5f007465
 490:	72656d65 			@ <UNDEFINED> instruction: 72656d65
 494:	636e6567 			@ <UNDEFINED> instruction: 636e6567
 498:	5f5f0079 			@ <UNDEFINED> instruction: 5f5f0079
 49c:	735f6d74 			@ <UNDEFINED> instruction: 735f6d74
 4a0:	43006365 	movwmi	r6, #869	@ 0x365
 4a4:	44495550 			@ <UNDEFINED> instruction: 44495550
 4a8:	745f5f00 			@ <UNDEFINED> instruction: 745f5f00
 4ac:	64795f6d 			@ <UNDEFINED> instruction: 64795f6d
 4b0:	5f007961 			@ <UNDEFINED> instruction: 5f007961
 4b4:	00636e69 			@ <UNDEFINED> instruction: 00636e69
 4b8:	5f737953 			@ <UNDEFINED> instruction: 5f737953
 4bc:	74696e49 			@ <UNDEFINED> instruction: 74696e49
 4c0:	73795300 			@ <UNDEFINED> instruction: 73795300
 4c4:	6b636954 			@ <UNDEFINED> instruction: 6b636954
 4c8:	7465475f 			@ <UNDEFINED> instruction: 7465475f
 4cc:	616f4c5f 			@ <UNDEFINED> instruction: 616f4c5f
 4d0:	69545f64 			@ <UNDEFINED> instruction: 69545f64
 4d4:	6200656d 			@ <UNDEFINED> instruction: 6200656d
 4d8:	00647561 			@ <UNDEFINED> instruction: 00647561
 4dc:	73626d5f 			@ <UNDEFINED> instruction: 73626d5f
 4e0:	776f7472 			@ <UNDEFINED> instruction: 776f7472
 4e4:	735f7363 			@ <UNDEFINED> instruction: 735f7363
 4e8:	65746174 			@ <UNDEFINED> instruction: 65746174
 4ec:	53464100 	movtpl	r4, #24832	@ 0x6100
 4f0:	5f5f0052 			@ <UNDEFINED> instruction: 5f5f0052
 4f4:	756c6176 			@ <UNDEFINED> instruction: 756c6176
 4f8:	705f0065 			@ <UNDEFINED> instruction: 705f0065
 4fc:	48007335 			@ <UNDEFINED> instruction: 48007335
 500:	00525346 			@ <UNDEFINED> instruction: 00525346
 504:	7363775f 			@ <UNDEFINED> instruction: 7363775f
 508:	6d6f7472 			@ <UNDEFINED> instruction: 6d6f7472
 50c:	735f7362 			@ <UNDEFINED> instruction: 735f7362
 510:	65746174 			@ <UNDEFINED> instruction: 65746174
 514:	745f5f00 			@ <UNDEFINED> instruction: 745f5f00
 518:	646d5f6d 			@ <UNDEFINED> instruction: 646d5f6d
 51c:	5f007961 			@ <UNDEFINED> instruction: 5f007961
 520:	5f676973 			@ <UNDEFINED> instruction: 5f676973
 524:	636e7566 			@ <UNDEFINED> instruction: 636e7566
 528:	626d5f00 			@ <UNDEFINED> instruction: 626d5f00
 52c:	776f7472 			@ <UNDEFINED> instruction: 776f7472
 530:	74735f63 			@ <UNDEFINED> instruction: 74735f63
 534:	00657461 			@ <UNDEFINED> instruction: 00657461
 538:	43524941 			@ <UNDEFINED> instruction: 43524941
 53c:	665f0052 			@ <UNDEFINED> instruction: 665f0052
 540:	6b636f6c 			@ <UNDEFINED> instruction: 6b636f6c
 544:	5f00745f 			@ <UNDEFINED> instruction: 5f00745f
 548:	6863775f 			@ <UNDEFINED> instruction: 6863775f
 54c:	6c635f00 			@ <UNDEFINED> instruction: 6c635f00
 550:	0065736f 			@ <UNDEFINED> instruction: 0065736f
 554:	6474735f 			@ <UNDEFINED> instruction: 6474735f
 558:	5f006e69 			@ <UNDEFINED> instruction: 5f006e69
 55c:	6d6d6167 			@ <UNDEFINED> instruction: 6d6d6167
 560:	69735f61 			@ <UNDEFINED> instruction: 69735f61
 564:	61676e67 			@ <UNDEFINED> instruction: 61676e67
 568:	625f006d 			@ <UNDEFINED> instruction: 625f006d
 56c:	00657361 			@ <UNDEFINED> instruction: 00657361
 570:	6572665f 			@ <UNDEFINED> instruction: 6572665f
 574:	73696c65 			@ <UNDEFINED> instruction: 73696c65
 578:	6d5f0074 			@ <UNDEFINED> instruction: 6d5f0074
 57c:	00746c75 			@ <UNDEFINED> instruction: 00746c75
 580:	4c555f5f 	mrrcmi	15, 5, r5, r5, cr15	@ <UNPREDICTABLE>
 584:	00676e6f 			@ <UNDEFINED> instruction: 00676e6f
 588:	52534643 			@ <UNDEFINED> instruction: 52534643
 58c:	63775f00 			@ <UNDEFINED> instruction: 63775f00
 590:	6d6f7472 			@ <UNDEFINED> instruction: 6d6f7472
 594:	74735f62 			@ <UNDEFINED> instruction: 74735f62
 598:	00657461 			@ <UNDEFINED> instruction: 00657461
 59c:	6c69665f 			@ <UNDEFINED> instruction: 6c69665f
 5a0:	5f5f0065 			@ <UNDEFINED> instruction: 5f5f0065
 5a4:	61656c63 			@ <UNDEFINED> instruction: 61656c63
 5a8:	0070756e 			@ <UNDEFINED> instruction: 0070756e
 5ac:	6c626d5f 			@ <UNDEFINED> instruction: 6c626d5f
 5b0:	735f6e65 			@ <UNDEFINED> instruction: 735f6e65
 5b4:	65746174 			@ <UNDEFINED> instruction: 65746174
 5b8:	626d5f00 			@ <UNDEFINED> instruction: 626d5f00
 5bc:	74617473 			@ <UNDEFINED> instruction: 74617473
 5c0:	00745f65 			@ <UNDEFINED> instruction: 00745f65
 5c4:	6d745f5f 			@ <UNDEFINED> instruction: 6d745f5f
 5c8:	6473695f 			@ <UNDEFINED> instruction: 6473695f
 5cc:	5f007473 			@ <UNDEFINED> instruction: 5f007473
 5d0:	72655f68 			@ <UNDEFINED> instruction: 72655f68
 5d4:	006f6e72 			@ <UNDEFINED> instruction: 006f6e72
 5d8:	6d745f5f 			@ <UNDEFINED> instruction: 6d745f5f
 5dc:	6e6f6d5f 			@ <UNDEFINED> instruction: 6e6f6d5f
 5e0:	4f4c5f00 			@ <UNDEFINED> instruction: 4f4c5f00
 5e4:	545f4b43 			@ <UNDEFINED> instruction: 545f4b43
 5e8:	72775f00 			@ <UNDEFINED> instruction: 72775f00
 5ec:	00657469 			@ <UNDEFINED> instruction: 00657469
 5f0:	41464d4d 			@ <UNDEFINED> instruction: 41464d4d
 5f4:	48530052 			@ <UNDEFINED> instruction: 48530052
 5f8:	00525343 			@ <UNDEFINED> instruction: 00525343
 5fc:	54737953 			@ <UNDEFINED> instruction: 54737953
 600:	5f6b6369 			@ <UNDEFINED> instruction: 5f6b6369
 604:	63656843 			@ <UNDEFINED> instruction: 63656843
 608:	69545f6b 			@ <UNDEFINED> instruction: 69545f6b
 60c:	756f656d 			@ <UNDEFINED> instruction: 756f656d
 610:	735f0074 			@ <UNDEFINED> instruction: 735f0074
 614:	006e6769 			@ <UNDEFINED> instruction: 006e6769
 618:	7461645f 			@ <UNDEFINED> instruction: 7461645f
 61c:	5f5f0061 			@ <UNDEFINED> instruction: 5f5f0061
 620:	62686377 			@ <UNDEFINED> instruction: 62686377
 624:	745f5f00 			@ <UNDEFINED> instruction: 745f5f00
 628:	65795f6d 			@ <UNDEFINED> instruction: 65795f6d
 62c:	5f007261 			@ <UNDEFINED> instruction: 5f007261
 630:	61636f6c 			@ <UNDEFINED> instruction: 61636f6c
 634:	6d69746c 			@ <UNDEFINED> instruction: 6d69746c
 638:	75625f65 			@ <UNDEFINED> instruction: 75625f65
 63c:	5f5f0066 			@ <UNDEFINED> instruction: 5f5f0066
 640:	746e6975 			@ <UNDEFINED> instruction: 746e6975
 644:	00745f38 			@ <UNDEFINED> instruction: 00745f38
 648:	77656e5f 			@ <UNDEFINED> instruction: 77656e5f
 64c:	42435300 			@ <UNDEFINED> instruction: 42435300
 650:	7079545f 			@ <UNDEFINED> instruction: 7079545f
 654:	635f0065 			@ <UNDEFINED> instruction: 635f0065
 658:	656c7476 			@ <UNDEFINED> instruction: 656c7476
 65c:	6d5f006e 			@ <UNDEFINED> instruction: 6d5f006e
 660:	64777861 			@ <UNDEFINED> instruction: 64777861
 664:	46420073 			@ <UNDEFINED> instruction: 46420073
 668:	56005241 			@ <UNDEFINED> instruction: 56005241
 66c:	00524f54 			@ <UNDEFINED> instruction: 00524f54
 670:	6d745f5f 			@ <UNDEFINED> instruction: 6d745f5f
 674:	53434900 	movtpl	r4, #14592	@ 0x3900
 678:	69770052 			@ <UNDEFINED> instruction: 69770052
 67c:	745f746e 			@ <UNDEFINED> instruction: 745f746e
 680:	6c5f5f00 	mrrcvs	15, 0, r5, pc, cr0	@ <UNPREDICTABLE>
 684:	006b636f 			@ <UNDEFINED> instruction: 006b636f
 688:	7476635f 			@ <UNDEFINED> instruction: 7476635f
 68c:	00667562 			@ <UNDEFINED> instruction: 00667562
 690:	7465675f 			@ <UNDEFINED> instruction: 7465675f
 694:	65746164 			@ <UNDEFINED> instruction: 65746164
 698:	7272655f 			@ <UNDEFINED> instruction: 7272655f
 69c:	64615f00 			@ <UNDEFINED> instruction: 64615f00
 6a0:	5f5f0064 			@ <UNDEFINED> instruction: 5f5f0064
 6a4:	62616561 			@ <UNDEFINED> instruction: 62616561
 6a8:	69755f69 			@ <UNDEFINED> instruction: 69755f69
 6ac:	5f006432 			@ <UNDEFINED> instruction: 5f006432
 6b0:	6165615f 			@ <UNDEFINED> instruction: 6165615f
 6b4:	645f6962 			@ <UNDEFINED> instruction: 645f6962
 6b8:	007a6932 			@ <UNDEFINED> instruction: 007a6932
 6bc:	62735f5f 			@ <UNDEFINED> instruction: 62735f5f
 6c0:	5f006675 			@ <UNDEFINED> instruction: 5f006675
 6c4:	6134366c 			@ <UNDEFINED> instruction: 6134366c
 6c8:	6675625f 			@ <UNDEFINED> instruction: 6675625f
 6cc:	74735f00 			@ <UNDEFINED> instruction: 74735f00
 6d0:	6b6f7472 			@ <UNDEFINED> instruction: 6b6f7472
 6d4:	73616c5f 			@ <UNDEFINED> instruction: 73616c5f
 6d8:	6d5f0074 			@ <UNDEFINED> instruction: 6d5f0074
 6dc:	776f7462 			@ <UNDEFINED> instruction: 776f7462
 6e0:	74735f63 			@ <UNDEFINED> instruction: 74735f63
 6e4:	00657461 			@ <UNDEFINED> instruction: 00657461
 6e8:	636f6c5f 			@ <UNDEFINED> instruction: 636f6c5f
 6ec:	00656c61 			@ <UNDEFINED> instruction: 00656c61
 6f0:	6565725f 			@ <UNDEFINED> instruction: 6565725f
 6f4:	6400746e 			@ <UNDEFINED> instruction: 6400746e
 6f8:	6c62756f 			@ <UNDEFINED> instruction: 6c62756f
 6fc:	53490065 	movtpl	r0, #36965	@ 0x9065
 700:	5f005241 			@ <UNDEFINED> instruction: 5f005241
 704:	6675626e 			@ <UNDEFINED> instruction: 6675626e
 708:	6c665f00 			@ <UNDEFINED> instruction: 6c665f00
 70c:	32736761 			@ <UNDEFINED> instruction: 32736761
 710:	73795300 			@ <UNDEFINED> instruction: 73795300
 714:	6b636954 			@ <UNDEFINED> instruction: 6b636954
 718:	6e75525f 			@ <UNDEFINED> instruction: 6e75525f
 71c:	65735f00 			@ <UNDEFINED> instruction: 65735f00
 720:	5f006465 			@ <UNDEFINED> instruction: 5f006465
 724:	646e6172 			@ <UNDEFINED> instruction: 646e6172
 728:	78656e5f 			@ <UNDEFINED> instruction: 78656e5f
 72c:	5f5f0074 			@ <UNDEFINED> instruction: 5f5f0074
 730:	61636f6c 			@ <UNDEFINED> instruction: 61636f6c
 734:	745f656c 			@ <UNDEFINED> instruction: 745f656c
 738:	65735f00 			@ <UNDEFINED> instruction: 65735f00
 73c:	5f006b65 			@ <UNDEFINED> instruction: 5f006b65
 740:	65647473 			@ <UNDEFINED> instruction: 65647473
 744:	5f007272 			@ <UNDEFINED> instruction: 5f007272
 748:	66756275 			@ <UNDEFINED> instruction: 66756275
 74c:	5f747300 			@ <UNDEFINED> instruction: 5f747300
 750:	76656472 			@ <UNDEFINED> instruction: 76656472
 754:	5f767400 			@ <UNDEFINED> instruction: 5f767400
 758:	6365736e 			@ <UNDEFINED> instruction: 6365736e
 75c:	5a5f5f00 			@ <UNDEFINED> instruction: 5a5f5f00
 760:	494c5f49 			@ <UNDEFINED> instruction: 494c5f49
 764:	5f54494d 			@ <UNDEFINED> instruction: 5f54494d
 768:	7674005f 			@ <UNDEFINED> instruction: 7674005f
 76c:	6365735f 			@ <UNDEFINED> instruction: 6365735f
 770:	6d5f5f00 			@ <UNDEFINED> instruction: 6d5f5f00
 774:	5f65646f 			@ <UNDEFINED> instruction: 5f65646f
 778:	74730074 			@ <UNDEFINED> instruction: 74730074
 77c:	6974635f 			@ <UNDEFINED> instruction: 6974635f
 780:	7473006d 			@ <UNDEFINED> instruction: 7473006d
 784:	7665645f 			@ <UNDEFINED> instruction: 7665645f
 788:	73665f00 			@ <UNDEFINED> instruction: 73665f00
 78c:	00746174 			@ <UNDEFINED> instruction: 00746174
 790:	6c696b5f 			@ <UNDEFINED> instruction: 6c696b5f
 794:	6568006c 			@ <UNDEFINED> instruction: 6568006c
 798:	5f007061 			@ <UNDEFINED> instruction: 5f007061
 79c:	70746567 			@ <UNDEFINED> instruction: 70746567
 7a0:	5f006469 			@ <UNDEFINED> instruction: 5f006469
 7a4:	746e695f 			@ <UNDEFINED> instruction: 746e695f
 7a8:	61656c5f 			@ <UNDEFINED> instruction: 61656c5f
 7ac:	34367473 			@ <UNDEFINED> instruction: 34367473
 7b0:	7300745f 	movwvc	r7, #1119	@ 0x45f
 7b4:	6c625f74 			@ <UNDEFINED> instruction: 6c625f74
 7b8:	7a69736b 			@ <UNDEFINED> instruction: 7a69736b
 7bc:	695f0065 			@ <UNDEFINED> instruction: 695f0065
 7c0:	74746173 			@ <UNDEFINED> instruction: 74746173
 7c4:	74730079 			@ <UNDEFINED> instruction: 74730079
 7c8:	6469675f 			@ <UNDEFINED> instruction: 6469675f
 7cc:	6e5f5f00 			@ <UNDEFINED> instruction: 6e5f5f00
 7d0:	6b6e696c 			@ <UNDEFINED> instruction: 6b6e696c
 7d4:	7200745f 			@ <UNDEFINED> instruction: 7200745f
 7d8:	69746e75 			@ <UNDEFINED> instruction: 69746e75
 7dc:	632e656d 			@ <UNDEFINED> instruction: 632e656d
 7e0:	72615500 			@ <UNDEFINED> instruction: 72615500
 7e4:	535f3274 			@ <UNDEFINED> instruction: 535f3274
 7e8:	5f646e65 			@ <UNDEFINED> instruction: 5f646e65
 7ec:	65747942 			@ <UNDEFINED> instruction: 65747942
 7f0:	6d697400 			@ <UNDEFINED> instruction: 6d697400
 7f4:	00745f65 			@ <UNDEFINED> instruction: 00745f65
 7f8:	695f7473 			@ <UNDEFINED> instruction: 695f7473
 7fc:	70006f6e 			@ <UNDEFINED> instruction: 70006f6e
 800:	48766572 			@ <UNDEFINED> instruction: 48766572
 804:	00706165 			@ <UNDEFINED> instruction: 00706165
 808:	6e5f7473 			@ <UNDEFINED> instruction: 6e5f7473
 80c:	6b6e696c 			@ <UNDEFINED> instruction: 6b6e696c
 810:	625f5f00 			@ <UNDEFINED> instruction: 625f5f00
 814:	69736b6c 			@ <UNDEFINED> instruction: 69736b6c
 818:	745f657a 			@ <UNDEFINED> instruction: 745f657a
 81c:	5f747300 			@ <UNDEFINED> instruction: 5f747300
 820:	6d697461 			@ <UNDEFINED> instruction: 6d697461
 824:	62735f00 			@ <UNDEFINED> instruction: 62735f00
 828:	73006b72 	movwvc	r6, #2930	@ 0xb72
 82c:	6c625f74 			@ <UNDEFINED> instruction: 6c625f74
 830:	736b636f 			@ <UNDEFINED> instruction: 736b636f
 834:	5f747300 			@ <UNDEFINED> instruction: 5f747300
 838:	6d69746d 			@ <UNDEFINED> instruction: 6d69746d
 83c:	695f5f00 			@ <UNDEFINED> instruction: 695f5f00
 840:	745f6f6e 			@ <UNDEFINED> instruction: 745f6f6e
 844:	5f747300 			@ <UNDEFINED> instruction: 5f747300
 848:	00646975 			@ <UNDEFINED> instruction: 00646975
 84c:	735f7473 			@ <UNDEFINED> instruction: 735f7473
 850:	00657a69 			@ <UNDEFINED> instruction: 00657a69
 854:	735f7473 			@ <UNDEFINED> instruction: 735f7473
 858:	65726170 			@ <UNDEFINED> instruction: 65726170
 85c:	6c5f0034 	mrrcvs	0, 3, r0, pc, cr4	@ <UNPREDICTABLE>
 860:	6b656573 			@ <UNDEFINED> instruction: 6b656573
 864:	6f5f5f00 			@ <UNDEFINED> instruction: 6f5f5f00
 868:	745f6666 			@ <UNDEFINED> instruction: 745f6666
 86c:	645f5f00 			@ <UNDEFINED> instruction: 645f5f00
 870:	745f7665 			@ <UNDEFINED> instruction: 745f7665
 874:	6d697400 			@ <UNDEFINED> instruction: 6d697400
 878:	65707365 			@ <UNDEFINED> instruction: 65707365
 87c:	5f5f0063 			@ <UNDEFINED> instruction: 5f5f0063
 880:	5f646975 			@ <UNDEFINED> instruction: 5f646975
 884:	74730074 			@ <UNDEFINED> instruction: 74730074
 888:	646f6d5f 			@ <UNDEFINED> instruction: 646f6d5f
 88c:	656e0065 			@ <UNDEFINED> instruction: 656e0065
 890:	65487478 			@ <UNDEFINED> instruction: 65487478
 894:	5f007061 			@ <UNDEFINED> instruction: 5f007061
 898:	6b6c625f 			@ <UNDEFINED> instruction: 6b6c625f
 89c:	5f746e63 			@ <UNDEFINED> instruction: 5f746e63
 8a0:	5f5f0074 			@ <UNDEFINED> instruction: 5f5f0074
 8a4:	6e727265 			@ <UNDEFINED> instruction: 6e727265
 8a8:	5f5f006f 			@ <UNDEFINED> instruction: 5f5f006f
 8ac:	5f646967 			@ <UNDEFINED> instruction: 5f646967
 8b0:	79530074 			@ <UNDEFINED> instruction: 79530074
 8b4:	6d657473 			@ <UNDEFINED> instruction: 6d657473
 8b8:	74696e49 			@ <UNDEFINED> instruction: 74696e49
 8bc:	6c6c7000 			@ <UNDEFINED> instruction: 6c6c7000
 8c0:	72756f73 			@ <UNDEFINED> instruction: 72756f73
 8c4:	70006563 			@ <UNDEFINED> instruction: 70006563
 8c8:	006d6c6c 			@ <UNDEFINED> instruction: 006d6c6c
 8cc:	706c6c70 			@ <UNDEFINED> instruction: 706c6c70
 8d0:	42504100 			@ <UNDEFINED> instruction: 42504100
 8d4:	73657250 			@ <UNDEFINED> instruction: 73657250
 8d8:	62615463 			@ <UNDEFINED> instruction: 62615463
 8dc:	7000656c 			@ <UNDEFINED> instruction: 7000656c
 8e0:	63766c6c 			@ <UNDEFINED> instruction: 63766c6c
 8e4:	7953006f 			@ <UNDEFINED> instruction: 7953006f
 8e8:	6d657473 			@ <UNDEFINED> instruction: 6d657473
 8ec:	65726f43 			@ <UNDEFINED> instruction: 65726f43
 8f0:	636f6c43 			@ <UNDEFINED> instruction: 636f6c43
 8f4:	6470556b 			@ <UNDEFINED> instruction: 6470556b
 8f8:	00657461 			@ <UNDEFINED> instruction: 00657461
 8fc:	74737953 			@ <UNDEFINED> instruction: 74737953
 900:	6f436d65 			@ <UNDEFINED> instruction: 6f436d65
 904:	6c436572 	mcrrvs	5, 7, r6, r3, cr2
 908:	006b636f 			@ <UNDEFINED> instruction: 006b636f
 90c:	50424841 			@ <UNDEFINED> instruction: 50424841
 910:	63736572 			@ <UNDEFINED> instruction: 63736572
 914:	6c626154 			@ <UNDEFINED> instruction: 6c626154
 918:	79730065 			@ <UNDEFINED> instruction: 79730065
 91c:	6d657473 			@ <UNDEFINED> instruction: 6d657473
 920:	6d74735f 			@ <UNDEFINED> instruction: 6d74735f
 924:	34663233 			@ <UNDEFINED> instruction: 34663233
 928:	632e7878 			@ <UNDEFINED> instruction: 632e7878
 92c:	73797300 			@ <UNDEFINED> instruction: 73797300
 930:	6b636974 			@ <UNDEFINED> instruction: 6b636974
 934:	4300632e 	movwmi	r6, #814	@ 0x32e
 938:	42494c41 			@ <UNDEFINED> instruction: 42494c41
 93c:	52544300 			@ <UNDEFINED> instruction: 52544300
 940:	4f4c004c 			@ <UNDEFINED> instruction: 4f4c004c
 944:	53004441 	movwpl	r4, #1089	@ 0x441
 948:	69547379 			@ <UNDEFINED> instruction: 69547379
 94c:	545f6b63 			@ <UNDEFINED> instruction: 545f6b63
 950:	00657079 			@ <UNDEFINED> instruction: 00657079
 954:	6365736d 			@ <UNDEFINED> instruction: 6365736d
 958:	50544700 			@ <UNDEFINED> instruction: 50544700
 95c:	61550052 			@ <UNDEFINED> instruction: 61550052
 960:	5f317472 			@ <UNDEFINED> instruction: 5f317472
 964:	646e6553 			@ <UNDEFINED> instruction: 646e6553
 968:	7479425f 			@ <UNDEFINED> instruction: 7479425f
 96c:	5f5f0065 			@ <UNDEFINED> instruction: 5f5f0065
 970:	62616561 			@ <UNDEFINED> instruction: 62616561
 974:	64645f69 			@ <UNDEFINED> instruction: 64645f69
 978:	55007669 			@ <UNDEFINED> instruction: 55007669
 97c:	31747261 			@ <UNDEFINED> instruction: 31747261
 980:	696e495f 			@ <UNDEFINED> instruction: 696e495f
 984:	74730074 			@ <UNDEFINED> instruction: 74730074
 988:	676e6972 			@ <UNDEFINED> instruction: 676e6972
 98c:	61726600 			@ <UNDEFINED> instruction: 61726600
 990:	53550063 			@ <UNDEFINED> instruction: 53550063
 994:	5f545241 			@ <UNDEFINED> instruction: 5f545241
 998:	65707954 			@ <UNDEFINED> instruction: 65707954
 99c:	00666544 			@ <UNDEFINED> instruction: 00666544
 9a0:	74726155 			@ <UNDEFINED> instruction: 74726155
 9a4:	65535f31 			@ <UNDEFINED> instruction: 65535f31
 9a8:	535f646e 			@ <UNDEFINED> instruction: 535f646e
 9ac:	6e697274 			@ <UNDEFINED> instruction: 6e697274
 9b0:	5f5f0067 			@ <UNDEFINED> instruction: 5f5f0067
 9b4:	62616561 			@ <UNDEFINED> instruction: 62616561
 9b8:	32695f69 			@ <UNDEFINED> instruction: 32695f69
 9bc:	5f5f0064 			@ <UNDEFINED> instruction: 5f5f0064
 9c0:	62616561 			@ <UNDEFINED> instruction: 62616561
 9c4:	61645f69 			@ <UNDEFINED> instruction: 61645f69
 9c8:	5f006464 			@ <UNDEFINED> instruction: 5f006464
 9cc:	5f61765f 			@ <UNDEFINED> instruction: 5f61765f
 9d0:	7473696c 			@ <UNDEFINED> instruction: 7473696c
 9d4:	72615500 			@ <UNDEFINED> instruction: 72615500
 9d8:	475f3174 			@ <UNDEFINED> instruction: 475f3174
 9dc:	505f7465 			@ <UNDEFINED> instruction: 505f7465
 9e0:	73736572 			@ <UNDEFINED> instruction: 73736572
 9e4:	6d006465 			@ <UNDEFINED> instruction: 6d006465
 9e8:	00746e61 			@ <UNDEFINED> instruction: 00746e61
 9ec:	70615f5f 			@ <UNDEFINED> instruction: 70615f5f
 9f0:	70737600 			@ <UNDEFINED> instruction: 70737600
 9f4:	746e6972 			@ <UNDEFINED> instruction: 746e6972
 9f8:	61550066 			@ <UNDEFINED> instruction: 61550066
 9fc:	5f317472 			@ <UNDEFINED> instruction: 5f317472
 a00:	5f746547 			@ <UNDEFINED> instruction: 5f746547
 a04:	72616843 			@ <UNDEFINED> instruction: 72616843
 a08:	615f5f00 			@ <UNDEFINED> instruction: 615f5f00
 a0c:	69626165 			@ <UNDEFINED> instruction: 69626165
 a10:	7573645f 			@ <UNDEFINED> instruction: 7573645f
 a14:	61750062 			@ <UNDEFINED> instruction: 61750062
 a18:	632e7472 			@ <UNDEFINED> instruction: 632e7472
 a1c:	675f5f00 			@ <UNDEFINED> instruction: 675f5f00
 a20:	5f63756e 			@ <UNDEFINED> instruction: 5f63756e
 a24:	6c5f6176 	mrrcvs	1, 7, r6, pc, cr6	@ <UNPREDICTABLE>
 a28:	00747369 			@ <UNDEFINED> instruction: 00747369
 a2c:	74726155 			@ <UNDEFINED> instruction: 74726155
 a30:	72505f31 			@ <UNDEFINED> instruction: 72505f31
 a34:	66746e69 			@ <UNDEFINED> instruction: 66746e69
 a38:	74726300 			@ <UNDEFINED> instruction: 74726300
 a3c:	00732e30 			@ <UNDEFINED> instruction: 00732e30
 a40:	555c3a43 			@ <UNDEFINED> instruction: 555c3a43
 a44:	73726573 			@ <UNDEFINED> instruction: 73726573
 a48:	63636b5c 			@ <UNDEFINED> instruction: 63636b5c
 a4c:	63747369 			@ <UNDEFINED> instruction: 63747369
 a50:	7365445c 			@ <UNDEFINED> instruction: 7365445c
 a54:	706f746b 			@ <UNDEFINED> instruction: 706f746b
 a58:	726f635c 			@ <UNDEFINED> instruction: 726f635c
 a5c:	5f786574 			@ <UNDEFINED> instruction: 5f786574
 a60:	c7c0adb0 			@ <UNDEFINED> instruction: c7c0adb0
 a64:	e1b7dac0 			@ <UNDEFINED> instruction: e1b7dac0
 a68:	bdc7bd5c 			@ <UNDEFINED> instruction: bdc7bd5c
 a6c:	b7dac0c0 			@ <UNDEFINED> instruction: b7dac0c0
 a70:	31315ce1 			@ <UNDEFINED> instruction: 31315ce1
 a74:	532e3130 			@ <UNDEFINED> instruction: 532e3130
 a78:	49545359 			@ <UNDEFINED> instruction: 49545359
 a7c:	545f4b43 			@ <UNDEFINED> instruction: 545f4b43
 a80:	52454d49 			@ <UNDEFINED> instruction: 52454d49
 a84:	42414c5f 			@ <UNDEFINED> instruction: 42414c5f
 a88:	554e4700 			@ <UNDEFINED> instruction: 554e4700
 a8c:	20534120 			@ <UNDEFINED> instruction: 20534120
 a90:	35342e32 			@ <UNDEFINED> instruction: 35342e32
 a94:	Address 0xa94 is out of bounds.


Disassembly of section .comment:

00000000 <.comment>:
   0:	3a434347 			@ <UNDEFINED> instruction: 3a434347
   4:	72412820 			@ <UNDEFINED> instruction: 72412820
   8:	4e47206d 			@ <UNDEFINED> instruction: 4e47206d
   c:	6f542055 			@ <UNDEFINED> instruction: 6f542055
  10:	68636c6f 			@ <UNDEFINED> instruction: 68636c6f
  14:	206e6961 			@ <UNDEFINED> instruction: 206e6961
  18:	322e3531 			@ <UNDEFINED> instruction: 322e3531
  1c:	6c65522e 			@ <UNDEFINED> instruction: 6c65522e
  20:	42282031 			@ <UNDEFINED> instruction: 42282031
  24:	646c6975 			@ <UNDEFINED> instruction: 646c6975
  28:	6d726120 			@ <UNDEFINED> instruction: 6d726120
  2c:	2e35312d 			@ <UNDEFINED> instruction: 2e35312d
  30:	29293638 			@ <UNDEFINED> instruction: 29293638
  34:	2e353120 			@ <UNDEFINED> instruction: 2e353120
  38:	20312e32 			@ <UNDEFINED> instruction: 20312e32
  3c:	35323032 			@ <UNDEFINED> instruction: 35323032
  40:	33303231 			@ <UNDEFINED> instruction: 33303231
	...

Disassembly of section .ARM.attributes:

00000000 <.ARM.attributes>:
   0:	00003141 			@ <UNDEFINED> instruction: 00003141
   4:	61656100 			@ <UNDEFINED> instruction: 61656100
   8:	01006962 			@ <UNDEFINED> instruction: 01006962
   c:	00000027 			@ <UNDEFINED> instruction: 00000027
  10:	2d453705 			@ <UNDEFINED> instruction: 2d453705
  14:	0d06004d 			@ <UNDEFINED> instruction: 0d06004d
  18:	02094d07 			@ <UNDEFINED> instruction: 02094d07
  1c:	0412060a 			@ <UNDEFINED> instruction: 0412060a
  20:	01150114 			@ <UNDEFINED> instruction: 01150114
  24:	01180317 			@ <UNDEFINED> instruction: 01180317
  28:	011b011a 			@ <UNDEFINED> instruction: 011b011a
  2c:	021e011c 			@ <UNDEFINED> instruction: 021e011c
  30:	Address 0x30 is out of bounds.


Disassembly of section .debug_frame:

00000000 <.debug_frame>:
       0:	0000000c 			@ <UNDEFINED> instruction: 0000000c
       4:	ffffffff 			@ <UNDEFINED> instruction: ffffffff
       8:	7c020001 			@ <UNDEFINED> instruction: 7c020001
       c:	000d0c0e 			@ <UNDEFINED> instruction: 000d0c0e
      10:	0000000c 			@ <UNDEFINED> instruction: 0000000c
      14:	00000000 			@ <UNDEFINED> instruction: 00000000
      18:	08000070 			@ <UNDEFINED> instruction: 08000070
      1c:	00000060 			@ <UNDEFINED> instruction: 00000060
      20:	0000000c 			@ <UNDEFINED> instruction: 0000000c
      24:	ffffffff 			@ <UNDEFINED> instruction: ffffffff
      28:	7c020001 			@ <UNDEFINED> instruction: 7c020001
      2c:	000d0c0e 			@ <UNDEFINED> instruction: 000d0c0e
      30:	0000000c 			@ <UNDEFINED> instruction: 0000000c
      34:	00000020 			@ <UNDEFINED> instruction: 00000020
      38:	080000d0 			@ <UNDEFINED> instruction: 080000d0
      3c:	00000020 			@ <UNDEFINED> instruction: 00000020
      40:	0000000c 			@ <UNDEFINED> instruction: 0000000c
      44:	00000020 			@ <UNDEFINED> instruction: 00000020
      48:	080000f0 			@ <UNDEFINED> instruction: 080000f0
      4c:	00000014 			@ <UNDEFINED> instruction: 00000014
      50:	0000000c 			@ <UNDEFINED> instruction: 0000000c
      54:	00000020 			@ <UNDEFINED> instruction: 00000020
      58:	08000104 			@ <UNDEFINED> instruction: 08000104
      5c:	00000010 			@ <UNDEFINED> instruction: 00000010
      60:	0000000c 			@ <UNDEFINED> instruction: 0000000c
      64:	00000020 			@ <UNDEFINED> instruction: 00000020
      68:	08000114 			@ <UNDEFINED> instruction: 08000114
      6c:	00000010 			@ <UNDEFINED> instruction: 00000010
      70:	0000000c 			@ <UNDEFINED> instruction: 0000000c
      74:	ffffffff 			@ <UNDEFINED> instruction: ffffffff
      78:	7c020001 			@ <UNDEFINED> instruction: 7c020001
      7c:	000d0c0e 			@ <UNDEFINED> instruction: 000d0c0e
      80:	0000000c 			@ <UNDEFINED> instruction: 0000000c
      84:	00000070 			@ <UNDEFINED> instruction: 00000070
      88:	08000124 			@ <UNDEFINED> instruction: 08000124
      8c:	00000034 			@ <UNDEFINED> instruction: 00000034
      90:	0000000c 			@ <UNDEFINED> instruction: 0000000c
      94:	00000070 			@ <UNDEFINED> instruction: 00000070
      98:	08000158 			@ <UNDEFINED> instruction: 08000158
      9c:	00000010 			@ <UNDEFINED> instruction: 00000010
      a0:	0000000c 			@ <UNDEFINED> instruction: 0000000c
      a4:	00000070 			@ <UNDEFINED> instruction: 00000070
      a8:	08000168 			@ <UNDEFINED> instruction: 08000168
      ac:	00000010 			@ <UNDEFINED> instruction: 00000010
      b0:	0000000c 			@ <UNDEFINED> instruction: 0000000c
      b4:	ffffffff 			@ <UNDEFINED> instruction: ffffffff
      b8:	7c020001 			@ <UNDEFINED> instruction: 7c020001
      bc:	000d0c0e 			@ <UNDEFINED> instruction: 000d0c0e
      c0:	0000001c 			@ <UNDEFINED> instruction: 0000001c
      c4:	000000b0 			@ <UNDEFINED> instruction: 000000b0
      c8:	08000178 			@ <UNDEFINED> instruction: 08000178
      cc:	00000100 			@ <UNDEFINED> instruction: 00000100
      d0:	84100e41 			@ <UNDEFINED> instruction: 84100e41
      d4:	86038504 			@ <UNDEFINED> instruction: 86038504
      d8:	46018e02 			@ <UNDEFINED> instruction: 46018e02
      dc:	0000180e 			@ <UNDEFINED> instruction: 0000180e
      e0:	0000000c 			@ <UNDEFINED> instruction: 0000000c
      e4:	ffffffff 			@ <UNDEFINED> instruction: ffffffff
      e8:	7c020001 			@ <UNDEFINED> instruction: 7c020001
      ec:	000d0c0e 			@ <UNDEFINED> instruction: 000d0c0e
      f0:	0000000c 			@ <UNDEFINED> instruction: 0000000c
      f4:	000000e0 			@ <UNDEFINED> instruction: 000000e0
      f8:	08000278 			@ <UNDEFINED> instruction: 08000278
      fc:	00000038 			@ <UNDEFINED> instruction: 00000038
     100:	00000018 			@ <UNDEFINED> instruction: 00000018
     104:	000000e0 			@ <UNDEFINED> instruction: 000000e0
     108:	080002b0 			@ <UNDEFINED> instruction: 080002b0
     10c:	0000001a 			@ <UNDEFINED> instruction: 0000001a
     110:	84100e41 			@ <UNDEFINED> instruction: 84100e41
     114:	86038504 			@ <UNDEFINED> instruction: 86038504
     118:	00018e02 			@ <UNDEFINED> instruction: 00018e02
     11c:	0000000c 			@ <UNDEFINED> instruction: 0000000c
     120:	000000e0 			@ <UNDEFINED> instruction: 000000e0
     124:	080002cc 			@ <UNDEFINED> instruction: 080002cc
     128:	00000004 			@ <UNDEFINED> instruction: 00000004
     12c:	0000000c 			@ <UNDEFINED> instruction: 0000000c
     130:	000000e0 			@ <UNDEFINED> instruction: 000000e0
     134:	080002d0 			@ <UNDEFINED> instruction: 080002d0
     138:	00000004 			@ <UNDEFINED> instruction: 00000004
     13c:	0000000c 			@ <UNDEFINED> instruction: 0000000c
     140:	000000e0 			@ <UNDEFINED> instruction: 000000e0
     144:	080002d4 			@ <UNDEFINED> instruction: 080002d4
     148:	00000006 			@ <UNDEFINED> instruction: 00000006
     14c:	0000000c 			@ <UNDEFINED> instruction: 0000000c
     150:	000000e0 			@ <UNDEFINED> instruction: 000000e0
     154:	080002dc 			@ <UNDEFINED> instruction: 080002dc
     158:	0000000a 			@ <UNDEFINED> instruction: 0000000a
     15c:	0000000c 			@ <UNDEFINED> instruction: 0000000c
     160:	000000e0 			@ <UNDEFINED> instruction: 000000e0
     164:	080002e8 			@ <UNDEFINED> instruction: 080002e8
     168:	00000004 			@ <UNDEFINED> instruction: 00000004
     16c:	0000000c 			@ <UNDEFINED> instruction: 0000000c
     170:	000000e0 			@ <UNDEFINED> instruction: 000000e0
     174:	080002ec 			@ <UNDEFINED> instruction: 080002ec
     178:	00000004 			@ <UNDEFINED> instruction: 00000004
     17c:	00000014 			@ <UNDEFINED> instruction: 00000014
     180:	000000e0 			@ <UNDEFINED> instruction: 000000e0
     184:	080002f0 			@ <UNDEFINED> instruction: 080002f0
     188:	00000010 			@ <UNDEFINED> instruction: 00000010
     18c:	83080e41 	movwhi	r0, #36417	@ 0x8e41
     190:	00018e02 			@ <UNDEFINED> instruction: 00018e02
     194:	0000000c 			@ <UNDEFINED> instruction: 0000000c
     198:	ffffffff 			@ <UNDEFINED> instruction: ffffffff
     19c:	7c020001 			@ <UNDEFINED> instruction: 7c020001
     1a0:	000d0c0e 			@ <UNDEFINED> instruction: 000d0c0e
     1a4:	0000000c 			@ <UNDEFINED> instruction: 0000000c
     1a8:	00000194 			@ <UNDEFINED> instruction: 00000194
     1ac:	08000300 			@ <UNDEFINED> instruction: 08000300
     1b0:	00000014 			@ <UNDEFINED> instruction: 00000014
     1b4:	0000000c 			@ <UNDEFINED> instruction: 0000000c
     1b8:	00000194 			@ <UNDEFINED> instruction: 00000194
     1bc:	08000314 			@ <UNDEFINED> instruction: 08000314
     1c0:	00000070 			@ <UNDEFINED> instruction: 00000070
     1c4:	0000000c 			@ <UNDEFINED> instruction: 0000000c
     1c8:	ffffffff 			@ <UNDEFINED> instruction: ffffffff
     1cc:	7c020001 			@ <UNDEFINED> instruction: 7c020001
     1d0:	000d0c0e 			@ <UNDEFINED> instruction: 000d0c0e
     1d4:	0000000c 			@ <UNDEFINED> instruction: 0000000c
     1d8:	000001c4 			@ <UNDEFINED> instruction: 000001c4
     1dc:	08000384 			@ <UNDEFINED> instruction: 08000384
     1e0:	00000028 			@ <UNDEFINED> instruction: 00000028
     1e4:	0000000c 			@ <UNDEFINED> instruction: 0000000c
     1e8:	000001c4 			@ <UNDEFINED> instruction: 000001c4
     1ec:	080003ac 			@ <UNDEFINED> instruction: 080003ac
     1f0:	0000000c 			@ <UNDEFINED> instruction: 0000000c
     1f4:	0000000c 			@ <UNDEFINED> instruction: 0000000c
     1f8:	000001c4 			@ <UNDEFINED> instruction: 000001c4
     1fc:	080003b8 			@ <UNDEFINED> instruction: 080003b8
     200:	00000008 			@ <UNDEFINED> instruction: 00000008
     204:	0000000c 			@ <UNDEFINED> instruction: 0000000c
     208:	000001c4 			@ <UNDEFINED> instruction: 000001c4
     20c:	080003c0 			@ <UNDEFINED> instruction: 080003c0
     210:	00000008 			@ <UNDEFINED> instruction: 00000008
     214:	0000000c 			@ <UNDEFINED> instruction: 0000000c
     218:	000001c4 			@ <UNDEFINED> instruction: 000001c4
     21c:	080003c8 			@ <UNDEFINED> instruction: 080003c8
     220:	0000000e 			@ <UNDEFINED> instruction: 0000000e
     224:	0000000c 			@ <UNDEFINED> instruction: 0000000c
     228:	ffffffff 			@ <UNDEFINED> instruction: ffffffff
     22c:	7c020001 			@ <UNDEFINED> instruction: 7c020001
     230:	000d0c0e 			@ <UNDEFINED> instruction: 000d0c0e
     234:	00000020 			@ <UNDEFINED> instruction: 00000020
     238:	00000224 			@ <UNDEFINED> instruction: 00000224
     23c:	080003d8 			@ <UNDEFINED> instruction: 080003d8
     240:	000000ec 			@ <UNDEFINED> instruction: 000000ec
     244:	84100e41 			@ <UNDEFINED> instruction: 84100e41
     248:	86038504 			@ <UNDEFINED> instruction: 86038504
     24c:	46018e02 			@ <UNDEFINED> instruction: 46018e02
     250:	6002180e 			@ <UNDEFINED> instruction: 6002180e
     254:	0000100e 			@ <UNDEFINED> instruction: 0000100e
     258:	0000000c 			@ <UNDEFINED> instruction: 0000000c
     25c:	00000224 			@ <UNDEFINED> instruction: 00000224
     260:	080004c4 			@ <UNDEFINED> instruction: 080004c4
     264:	00000024 			@ <UNDEFINED> instruction: 00000024
     268:	00000020 			@ <UNDEFINED> instruction: 00000020
     26c:	00000224 			@ <UNDEFINED> instruction: 00000224
     270:	080004e8 			@ <UNDEFINED> instruction: 080004e8
     274:	000000e4 			@ <UNDEFINED> instruction: 000000e4
     278:	84100e41 			@ <UNDEFINED> instruction: 84100e41
     27c:	86038504 			@ <UNDEFINED> instruction: 86038504
     280:	46018e02 			@ <UNDEFINED> instruction: 46018e02
     284:	5c02180e 			@ <UNDEFINED> instruction: 5c02180e
     288:	0000100e 			@ <UNDEFINED> instruction: 0000100e
     28c:	0000000c 			@ <UNDEFINED> instruction: 0000000c
     290:	00000224 			@ <UNDEFINED> instruction: 00000224
     294:	080005cc 			@ <UNDEFINED> instruction: 080005cc
     298:	00000024 			@ <UNDEFINED> instruction: 00000024
     29c:	0000000c 			@ <UNDEFINED> instruction: 0000000c
     2a0:	00000224 			@ <UNDEFINED> instruction: 00000224
     2a4:	080005f0 			@ <UNDEFINED> instruction: 080005f0
     2a8:	00000030 			@ <UNDEFINED> instruction: 00000030
     2ac:	00000034 			@ <UNDEFINED> instruction: 00000034
     2b0:	00000224 			@ <UNDEFINED> instruction: 00000224
     2b4:	08000620 			@ <UNDEFINED> instruction: 08000620
     2b8:	0000004c 			@ <UNDEFINED> instruction: 0000004c
     2bc:	80100e41 			@ <UNDEFINED> instruction: 80100e41
     2c0:	82038104 			@ <UNDEFINED> instruction: 82038104
     2c4:	41018302 			@ <UNDEFINED> instruction: 41018302
     2c8:	0684180e 			@ <UNDEFINED> instruction: 0684180e
     2cc:	0e41058e 			@ <UNDEFINED> instruction: 0e41058e
     2d0:	0a5802a0 			@ <UNDEFINED> instruction: 0a5802a0
     2d4:	ce42180e 			@ <UNDEFINED> instruction: ce42180e
     2d8:	41100ec4 			@ <UNDEFINED> instruction: 41100ec4
     2dc:	c0c1c2c3 			@ <UNDEFINED> instruction: c0c1c2c3
     2e0:	0b41000e 			@ <UNDEFINED> instruction: 0b41000e
     2e4:	0000000c 			@ <UNDEFINED> instruction: 0000000c
     2e8:	00000224 			@ <UNDEFINED> instruction: 00000224
     2ec:	0800066c 			@ <UNDEFINED> instruction: 0800066c
     2f0:	00000014 			@ <UNDEFINED> instruction: 00000014
     2f4:	0000000c 			@ <UNDEFINED> instruction: 0000000c
     2f8:	00000224 			@ <UNDEFINED> instruction: 00000224
     2fc:	08000680 			@ <UNDEFINED> instruction: 08000680
     300:	00000014 			@ <UNDEFINED> instruction: 00000014
     304:	0000000c 			@ <UNDEFINED> instruction: 0000000c
     308:	ffffffff 			@ <UNDEFINED> instruction: ffffffff
     30c:	7c020001 			@ <UNDEFINED> instruction: 7c020001
     310:	000d0c0e 			@ <UNDEFINED> instruction: 000d0c0e
     314:	00000028 			@ <UNDEFINED> instruction: 00000028
     318:	00000304 			@ <UNDEFINED> instruction: 00000304
     31c:	080012e0 			@ <UNDEFINED> instruction: 080012e0
     320:	000000be 			@ <UNDEFINED> instruction: 000000be
     324:	84300e42 			@ <UNDEFINED> instruction: 84300e42
     328:	86078508 			@ <UNDEFINED> instruction: 86078508
     32c:	88058706 			@ <UNDEFINED> instruction: 88058706
     330:	8a038904 			@ <UNDEFINED> instruction: 8a038904
     334:	02018e02 			@ <UNDEFINED> instruction: 02018e02
     338:	200e0a41 			@ <UNDEFINED> instruction: 200e0a41
     33c:	00000b42 			@ <UNDEFINED> instruction: 00000b42
     340:	00000020 			@ <UNDEFINED> instruction: 00000020
     344:	00000304 			@ <UNDEFINED> instruction: 00000304
     348:	0800139e 			@ <UNDEFINED> instruction: 0800139e
     34c:	00000076 			@ <UNDEFINED> instruction: 00000076
     350:	84200e41 			@ <UNDEFINED> instruction: 84200e41
     354:	86048505 			@ <UNDEFINED> instruction: 86048505
     358:	8e028703 			@ <UNDEFINED> instruction: 8e028703
     35c:	0e0a6e01 			@ <UNDEFINED> instruction: 0e0a6e01
     360:	000b4114 			@ <UNDEFINED> instruction: 000b4114
     364:	0000002c 			@ <UNDEFINED> instruction: 0000002c
     368:	00000304 			@ <UNDEFINED> instruction: 00000304
     36c:	08001414 			@ <UNDEFINED> instruction: 08001414
     370:	00000448 			@ <UNDEFINED> instruction: 00000448
     374:	84240e42 			@ <UNDEFINED> instruction: 84240e42
     378:	86088509 			@ <UNDEFINED> instruction: 86088509
     37c:	88068707 			@ <UNDEFINED> instruction: 88068707
     380:	8a048905 			@ <UNDEFINED> instruction: 8a048905
     384:	8e028b03 	vmlahi.f64	d8, d2, d3
     388:	600e4101 			@ <UNDEFINED> instruction: 600e4101
     38c:	0e0a5a02 	vmlaeq.f32	s10, s20, s4
     390:	000b4224 			@ <UNDEFINED> instruction: 000b4224
     394:	0000000c 			@ <UNDEFINED> instruction: 0000000c
     398:	ffffffff 			@ <UNDEFINED> instruction: ffffffff
     39c:	7c020001 			@ <UNDEFINED> instruction: 7c020001
     3a0:	000d0c0e 			@ <UNDEFINED> instruction: 000d0c0e
     3a4:	00000020 			@ <UNDEFINED> instruction: 00000020
     3a8:	00000394 			@ <UNDEFINED> instruction: 00000394
     3ac:	0800185c 			@ <UNDEFINED> instruction: 0800185c
     3b0:	000000ea 			@ <UNDEFINED> instruction: 000000ea
     3b4:	84200e42 			@ <UNDEFINED> instruction: 84200e42
     3b8:	86078508 			@ <UNDEFINED> instruction: 86078508
     3bc:	88058706 			@ <UNDEFINED> instruction: 88058706
     3c0:	8a038904 			@ <UNDEFINED> instruction: 8a038904
     3c4:	00018e02 			@ <UNDEFINED> instruction: 00018e02
     3c8:	00000028 			@ <UNDEFINED> instruction: 00000028
     3cc:	00000394 			@ <UNDEFINED> instruction: 00000394
     3d0:	08001948 			@ <UNDEFINED> instruction: 08001948
     3d4:	00000254 			@ <UNDEFINED> instruction: 00000254
     3d8:	841c0e42 			@ <UNDEFINED> instruction: 841c0e42
     3dc:	86068507 			@ <UNDEFINED> instruction: 86068507
     3e0:	88048705 			@ <UNDEFINED> instruction: 88048705
     3e4:	8e028903 			@ <UNDEFINED> instruction: 8e028903
     3e8:	300e4301 			@ <UNDEFINED> instruction: 300e4301
     3ec:	0e0aae02 			@ <UNDEFINED> instruction: 0e0aae02
     3f0:	000b421c 			@ <UNDEFINED> instruction: 000b421c
     3f4:	0000000c 			@ <UNDEFINED> instruction: 0000000c
     3f8:	ffffffff 			@ <UNDEFINED> instruction: ffffffff
     3fc:	7c020001 			@ <UNDEFINED> instruction: 7c020001
     400:	000d0c0e 			@ <UNDEFINED> instruction: 000d0c0e
     404:	00000028 			@ <UNDEFINED> instruction: 00000028
     408:	000003f4 	strdeq	r0, [r0], -r4
     40c:	08001b9c 			@ <UNDEFINED> instruction: 08001b9c
     410:	0000001c 			@ <UNDEFINED> instruction: 0000001c
     414:	810c0e41 			@ <UNDEFINED> instruction: 810c0e41
     418:	83028203 	movwhi	r8, #8707	@ 0x2203
     41c:	180e4101 			@ <UNDEFINED> instruction: 180e4101
     420:	0e48048e 			@ <UNDEFINED> instruction: 0e48048e
     424:	0ece4210 			@ <UNDEFINED> instruction: 0ece4210
     428:	c2c3410c 			@ <UNDEFINED> instruction: c2c3410c
     42c:	00000ec1 			@ <UNDEFINED> instruction: 00000ec1
     430:	0000002c 			@ <UNDEFINED> instruction: 0000002c
     434:	000003f4 	strdeq	r0, [r0], -r4
     438:	08001bb8 			@ <UNDEFINED> instruction: 08001bb8
     43c:	00000024 			@ <UNDEFINED> instruction: 00000024
     440:	80100e41 			@ <UNDEFINED> instruction: 80100e41
     444:	82038104 			@ <UNDEFINED> instruction: 82038104
     448:	41018302 			@ <UNDEFINED> instruction: 41018302
     44c:	058e200e 			@ <UNDEFINED> instruction: 058e200e
     450:	42140e4a 			@ <UNDEFINED> instruction: 42140e4a
     454:	41100ece 			@ <UNDEFINED> instruction: 41100ece
     458:	c0c1c2c3 			@ <UNDEFINED> instruction: c0c1c2c3
     45c:	0000000e 			@ <UNDEFINED> instruction: 0000000e
     460:	0000000c 			@ <UNDEFINED> instruction: 0000000c
     464:	ffffffff 			@ <UNDEFINED> instruction: ffffffff
     468:	7c020001 			@ <UNDEFINED> instruction: 7c020001
     46c:	000d0c0e 			@ <UNDEFINED> instruction: 000d0c0e
     470:	00000024 			@ <UNDEFINED> instruction: 00000024
     474:	00000460 			@ <UNDEFINED> instruction: 00000460
     478:	08001bdc 			@ <UNDEFINED> instruction: 08001bdc
     47c:	00000168 			@ <UNDEFINED> instruction: 00000168
     480:	84280e42 			@ <UNDEFINED> instruction: 84280e42
     484:	86068507 			@ <UNDEFINED> instruction: 86068507
     488:	88048705 			@ <UNDEFINED> instruction: 88048705
     48c:	8e028903 			@ <UNDEFINED> instruction: 8e028903
     490:	0a6f0201 			@ <UNDEFINED> instruction: 0a6f0201
     494:	0b421c0e 			@ <UNDEFINED> instruction: 0b421c0e
     498:	0000000c 			@ <UNDEFINED> instruction: 0000000c
     49c:	ffffffff 			@ <UNDEFINED> instruction: ffffffff
     4a0:	7c020001 			@ <UNDEFINED> instruction: 7c020001
     4a4:	000d0c0e 			@ <UNDEFINED> instruction: 000d0c0e
     4a8:	0000001c 			@ <UNDEFINED> instruction: 0000001c
     4ac:	00000498 			@ <UNDEFINED> instruction: 00000498
     4b0:	08001d44 			@ <UNDEFINED> instruction: 08001d44
     4b4:	0000002c 			@ <UNDEFINED> instruction: 0000002c
     4b8:	84080e41 			@ <UNDEFINED> instruction: 84080e41
     4bc:	41018e02 			@ <UNDEFINED> instruction: 41018e02
     4c0:	0e50700e 			@ <UNDEFINED> instruction: 0e50700e
     4c4:	00000008 			@ <UNDEFINED> instruction: 00000008
     4c8:	0000000c 			@ <UNDEFINED> instruction: 0000000c
     4cc:	00000498 			@ <UNDEFINED> instruction: 00000498
     4d0:	08001d70 			@ <UNDEFINED> instruction: 08001d70
     4d4:	00000014 			@ <UNDEFINED> instruction: 00000014
     4d8:	0000000c 			@ <UNDEFINED> instruction: 0000000c
     4dc:	ffffffff 			@ <UNDEFINED> instruction: ffffffff
     4e0:	7c020001 			@ <UNDEFINED> instruction: 7c020001
     4e4:	000d0c0e 			@ <UNDEFINED> instruction: 000d0c0e
     4e8:	0000000c 			@ <UNDEFINED> instruction: 0000000c
     4ec:	000004d8 	ldrdeq	r0, [r0], -r8
     4f0:	08001d84 			@ <UNDEFINED> instruction: 08001d84
     4f4:	00000004 			@ <UNDEFINED> instruction: 00000004
     4f8:	0000000c 			@ <UNDEFINED> instruction: 0000000c
     4fc:	000004d8 	ldrdeq	r0, [r0], -r8
     500:	08001d88 			@ <UNDEFINED> instruction: 08001d88
     504:	00000008 			@ <UNDEFINED> instruction: 00000008
     508:	0000000c 			@ <UNDEFINED> instruction: 0000000c
     50c:	000004d8 	ldrdeq	r0, [r0], -r8
     510:	08001d90 			@ <UNDEFINED> instruction: 08001d90
     514:	00000008 			@ <UNDEFINED> instruction: 00000008
     518:	0000000c 			@ <UNDEFINED> instruction: 0000000c
     51c:	ffffffff 			@ <UNDEFINED> instruction: ffffffff
     520:	7c020001 			@ <UNDEFINED> instruction: 7c020001
     524:	000d0c0e 			@ <UNDEFINED> instruction: 000d0c0e
     528:	0000000c 			@ <UNDEFINED> instruction: 0000000c
     52c:	00000518 			@ <UNDEFINED> instruction: 00000518
     530:	08001d98 			@ <UNDEFINED> instruction: 08001d98
     534:	0000000c 			@ <UNDEFINED> instruction: 0000000c
     538:	0000000c 			@ <UNDEFINED> instruction: 0000000c
     53c:	ffffffff 			@ <UNDEFINED> instruction: ffffffff
     540:	7c020001 			@ <UNDEFINED> instruction: 7c020001
     544:	000d0c0e 			@ <UNDEFINED> instruction: 000d0c0e
     548:	0000000c 			@ <UNDEFINED> instruction: 0000000c
     54c:	00000538 			@ <UNDEFINED> instruction: 00000538
     550:	08001da4 			@ <UNDEFINED> instruction: 08001da4
     554:	00000002 			@ <UNDEFINED> instruction: 00000002
     558:	0000000c 			@ <UNDEFINED> instruction: 0000000c
     55c:	00000538 			@ <UNDEFINED> instruction: 00000538
     560:	08001da6 			@ <UNDEFINED> instruction: 08001da6
     564:	00000002 			@ <UNDEFINED> instruction: 00000002
     568:	0000000c 			@ <UNDEFINED> instruction: 0000000c
     56c:	00000538 			@ <UNDEFINED> instruction: 00000538
     570:	08001da8 			@ <UNDEFINED> instruction: 08001da8
     574:	00000002 			@ <UNDEFINED> instruction: 00000002
     578:	0000000c 			@ <UNDEFINED> instruction: 0000000c
     57c:	00000538 			@ <UNDEFINED> instruction: 00000538
     580:	08001daa 			@ <UNDEFINED> instruction: 08001daa
     584:	00000002 			@ <UNDEFINED> instruction: 00000002
     588:	0000000c 			@ <UNDEFINED> instruction: 0000000c
     58c:	00000538 			@ <UNDEFINED> instruction: 00000538
     590:	08001dac 			@ <UNDEFINED> instruction: 08001dac
     594:	00000002 			@ <UNDEFINED> instruction: 00000002
     598:	0000000c 			@ <UNDEFINED> instruction: 0000000c
     59c:	00000538 			@ <UNDEFINED> instruction: 00000538
     5a0:	08001dae 			@ <UNDEFINED> instruction: 08001dae
     5a4:	00000002 			@ <UNDEFINED> instruction: 00000002
     5a8:	0000000c 			@ <UNDEFINED> instruction: 0000000c
     5ac:	00000538 			@ <UNDEFINED> instruction: 00000538
     5b0:	08001db0 			@ <UNDEFINED> instruction: 08001db0
     5b4:	00000004 			@ <UNDEFINED> instruction: 00000004
     5b8:	0000000c 			@ <UNDEFINED> instruction: 0000000c
     5bc:	00000538 			@ <UNDEFINED> instruction: 00000538
     5c0:	08001db4 			@ <UNDEFINED> instruction: 08001db4
     5c4:	00000004 			@ <UNDEFINED> instruction: 00000004
     5c8:	0000000c 			@ <UNDEFINED> instruction: 0000000c
     5cc:	00000538 			@ <UNDEFINED> instruction: 00000538
     5d0:	08001db8 			@ <UNDEFINED> instruction: 08001db8
     5d4:	00000002 			@ <UNDEFINED> instruction: 00000002
     5d8:	0000000c 			@ <UNDEFINED> instruction: 0000000c
     5dc:	00000538 			@ <UNDEFINED> instruction: 00000538
     5e0:	08001dba 			@ <UNDEFINED> instruction: 08001dba
     5e4:	00000002 			@ <UNDEFINED> instruction: 00000002
     5e8:	0000000c 			@ <UNDEFINED> instruction: 0000000c
     5ec:	ffffffff 			@ <UNDEFINED> instruction: ffffffff
     5f0:	7c020001 			@ <UNDEFINED> instruction: 7c020001
     5f4:	000d0c0e 			@ <UNDEFINED> instruction: 000d0c0e
     5f8:	00000038 			@ <UNDEFINED> instruction: 00000038
     5fc:	000005e8 			@ <UNDEFINED> instruction: 000005e8
     600:	080006a0 			@ <UNDEFINED> instruction: 080006a0
     604:	0000009e 			@ <UNDEFINED> instruction: 0000009e
     608:	84100e51 			@ <UNDEFINED> instruction: 84100e51
     60c:	86038504 			@ <UNDEFINED> instruction: 86038504
     610:	5b018702 			@ <UNDEFINED> instruction: 5b018702
     614:	c4c5c6c7 			@ <UNDEFINED> instruction: c4c5c6c7
     618:	0a4c000e 			@ <UNDEFINED> instruction: 0a4c000e
     61c:	420a0b42 			@ <UNDEFINED> instruction: 420a0b42
     620:	84100e0b 			@ <UNDEFINED> instruction: 84100e0b
     624:	86038504 			@ <UNDEFINED> instruction: 86038504
     628:	51018702 			@ <UNDEFINED> instruction: 51018702
     62c:	c4c5c6c7 			@ <UNDEFINED> instruction: c4c5c6c7
     630:	0000000e 			@ <UNDEFINED> instruction: 0000000e
     634:	0000000c 			@ <UNDEFINED> instruction: 0000000c
     638:	ffffffff 			@ <UNDEFINED> instruction: ffffffff
     63c:	7c020001 			@ <UNDEFINED> instruction: 7c020001
     640:	000d0c0e 			@ <UNDEFINED> instruction: 000d0c0e
     644:	0000000c 			@ <UNDEFINED> instruction: 0000000c
     648:	00000634 			@ <UNDEFINED> instruction: 00000634
     64c:	08000740 			@ <UNDEFINED> instruction: 08000740
     650:	00000010 			@ <UNDEFINED> instruction: 00000010
     654:	0000000c 			@ <UNDEFINED> instruction: 0000000c
     658:	ffffffff 			@ <UNDEFINED> instruction: ffffffff
     65c:	7c020001 			@ <UNDEFINED> instruction: 7c020001
     660:	000d0c0e 			@ <UNDEFINED> instruction: 000d0c0e
     664:	00000028 			@ <UNDEFINED> instruction: 00000028
     668:	00000654 			@ <UNDEFINED> instruction: 00000654
     66c:	08001dbc 			@ <UNDEFINED> instruction: 08001dbc
     670:	00000110 			@ <UNDEFINED> instruction: 00000110
     674:	84300e42 			@ <UNDEFINED> instruction: 84300e42
     678:	86088509 			@ <UNDEFINED> instruction: 86088509
     67c:	88068707 			@ <UNDEFINED> instruction: 88068707
     680:	8a048905 			@ <UNDEFINED> instruction: 8a048905
     684:	8e028b03 	vmlahi.f64	d8, d2, d3
     688:	0a760201 			@ <UNDEFINED> instruction: 0a760201
     68c:	0b42240e 			@ <UNDEFINED> instruction: 0b42240e
     690:	0000002c 			@ <UNDEFINED> instruction: 0000002c
     694:	00000654 			@ <UNDEFINED> instruction: 00000654
     698:	08001ed0 			@ <UNDEFINED> instruction: 08001ed0
     69c:	00000bac 			@ <UNDEFINED> instruction: 00000bac
     6a0:	84240e42 			@ <UNDEFINED> instruction: 84240e42
     6a4:	86088509 			@ <UNDEFINED> instruction: 86088509
     6a8:	88068707 			@ <UNDEFINED> instruction: 88068707
     6ac:	8a048905 			@ <UNDEFINED> instruction: 8a048905
     6b0:	8e028b03 	vmlahi.f64	d8, d2, d3
     6b4:	880e4101 			@ <UNDEFINED> instruction: 880e4101
     6b8:	0a4f0201 			@ <UNDEFINED> instruction: 0a4f0201
     6bc:	0b42240e 			@ <UNDEFINED> instruction: 0b42240e
     6c0:	0000000c 			@ <UNDEFINED> instruction: 0000000c
     6c4:	ffffffff 			@ <UNDEFINED> instruction: ffffffff
     6c8:	7c020001 			@ <UNDEFINED> instruction: 7c020001
     6cc:	000d0c0e 			@ <UNDEFINED> instruction: 000d0c0e
     6d0:	00000024 			@ <UNDEFINED> instruction: 00000024
     6d4:	000006c0 			@ <UNDEFINED> instruction: 000006c0
     6d8:	08002a7c 			@ <UNDEFINED> instruction: 08002a7c
     6dc:	00000098 			@ <UNDEFINED> instruction: 00000098
     6e0:	84180e41 			@ <UNDEFINED> instruction: 84180e41
     6e4:	8e028503 			@ <UNDEFINED> instruction: 8e028503
     6e8:	0e0a5301 			@ <UNDEFINED> instruction: 0e0a5301
     6ec:	c5ce420c 			@ <UNDEFINED> instruction: c5ce420c
     6f0:	42000ec4 			@ <UNDEFINED> instruction: 42000ec4
     6f4:	0c0e710b 			@ <UNDEFINED> instruction: 0c0e710b
     6f8:	0000000c 			@ <UNDEFINED> instruction: 0000000c
     6fc:	ffffffff 			@ <UNDEFINED> instruction: ffffffff
     700:	7c020001 			@ <UNDEFINED> instruction: 7c020001
     704:	000d0c0e 			@ <UNDEFINED> instruction: 000d0c0e
     708:	0000000c 			@ <UNDEFINED> instruction: 0000000c
     70c:	000006f8 	strdeq	r0, [r0], -r8
     710:	08002b14 			@ <UNDEFINED> instruction: 08002b14
     714:	00000010 			@ <UNDEFINED> instruction: 00000010
     718:	0000000c 			@ <UNDEFINED> instruction: 0000000c
     71c:	000006f8 	strdeq	r0, [r0], -r8
     720:	08002b24 			@ <UNDEFINED> instruction: 08002b24
     724:	00000010 			@ <UNDEFINED> instruction: 00000010
     728:	0000000c 			@ <UNDEFINED> instruction: 0000000c
     72c:	ffffffff 			@ <UNDEFINED> instruction: ffffffff
     730:	7c020001 			@ <UNDEFINED> instruction: 7c020001
     734:	000d0c0e 			@ <UNDEFINED> instruction: 000d0c0e
     738:	00000018 			@ <UNDEFINED> instruction: 00000018
     73c:	00000728 			@ <UNDEFINED> instruction: 00000728
     740:	08002b34 			@ <UNDEFINED> instruction: 08002b34
     744:	00000044 			@ <UNDEFINED> instruction: 00000044
     748:	84100e41 			@ <UNDEFINED> instruction: 84100e41
     74c:	86038504 			@ <UNDEFINED> instruction: 86038504
     750:	00018e02 			@ <UNDEFINED> instruction: 00018e02
     754:	00000020 			@ <UNDEFINED> instruction: 00000020
     758:	00000728 			@ <UNDEFINED> instruction: 00000728
     75c:	08002b78 			@ <UNDEFINED> instruction: 08002b78
     760:	000000f8 	strdeq	r0, [r0], -r8
     764:	83200e42 			@ <UNDEFINED> instruction: 83200e42
     768:	85078408 			@ <UNDEFINED> instruction: 85078408
     76c:	87058606 			@ <UNDEFINED> instruction: 87058606
     770:	89038804 			@ <UNDEFINED> instruction: 89038804
     774:	00018e02 			@ <UNDEFINED> instruction: 00018e02
     778:	0000000c 			@ <UNDEFINED> instruction: 0000000c
     77c:	ffffffff 			@ <UNDEFINED> instruction: ffffffff
     780:	7c020001 			@ <UNDEFINED> instruction: 7c020001
     784:	000d0c0e 			@ <UNDEFINED> instruction: 000d0c0e
     788:	0000000c 			@ <UNDEFINED> instruction: 0000000c
     78c:	00000778 			@ <UNDEFINED> instruction: 00000778
     790:	08002c70 			@ <UNDEFINED> instruction: 08002c70
     794:	0000000c 			@ <UNDEFINED> instruction: 0000000c
     798:	0000000c 			@ <UNDEFINED> instruction: 0000000c
     79c:	00000778 			@ <UNDEFINED> instruction: 00000778
     7a0:	08002c7c 			@ <UNDEFINED> instruction: 08002c7c
     7a4:	0000000c 			@ <UNDEFINED> instruction: 0000000c
     7a8:	0000000c 			@ <UNDEFINED> instruction: 0000000c
     7ac:	ffffffff 			@ <UNDEFINED> instruction: ffffffff
     7b0:	7c020001 			@ <UNDEFINED> instruction: 7c020001
     7b4:	000d0c0e 			@ <UNDEFINED> instruction: 000d0c0e
     7b8:	00000018 			@ <UNDEFINED> instruction: 00000018
     7bc:	000007a8 			@ <UNDEFINED> instruction: 000007a8
     7c0:	08002c88 			@ <UNDEFINED> instruction: 08002c88
     7c4:	0000007c 			@ <UNDEFINED> instruction: 0000007c
     7c8:	84100e41 			@ <UNDEFINED> instruction: 84100e41
     7cc:	86038504 			@ <UNDEFINED> instruction: 86038504
     7d0:	00018e02 			@ <UNDEFINED> instruction: 00018e02
     7d4:	00000018 			@ <UNDEFINED> instruction: 00000018
     7d8:	000007a8 			@ <UNDEFINED> instruction: 000007a8
     7dc:	08002d04 			@ <UNDEFINED> instruction: 08002d04
     7e0:	00000044 			@ <UNDEFINED> instruction: 00000044
     7e4:	84100e41 			@ <UNDEFINED> instruction: 84100e41
     7e8:	86038504 			@ <UNDEFINED> instruction: 86038504
     7ec:	00018e02 			@ <UNDEFINED> instruction: 00018e02
     7f0:	0000001c 			@ <UNDEFINED> instruction: 0000001c
     7f4:	000007a8 			@ <UNDEFINED> instruction: 000007a8
     7f8:	08002d48 			@ <UNDEFINED> instruction: 08002d48
     7fc:	0000008c 			@ <UNDEFINED> instruction: 0000008c
     800:	84180e42 			@ <UNDEFINED> instruction: 84180e42
     804:	86058506 			@ <UNDEFINED> instruction: 86058506
     808:	88038704 			@ <UNDEFINED> instruction: 88038704
     80c:	00018e02 			@ <UNDEFINED> instruction: 00018e02
     810:	00000020 			@ <UNDEFINED> instruction: 00000020
     814:	000007a8 			@ <UNDEFINED> instruction: 000007a8
     818:	08002dd4 			@ <UNDEFINED> instruction: 08002dd4
     81c:	00000094 			@ <UNDEFINED> instruction: 00000094
     820:	83200e42 			@ <UNDEFINED> instruction: 83200e42
     824:	85078408 			@ <UNDEFINED> instruction: 85078408
     828:	87058606 			@ <UNDEFINED> instruction: 87058606
     82c:	89038804 			@ <UNDEFINED> instruction: 89038804
     830:	00018e02 			@ <UNDEFINED> instruction: 00018e02
     834:	0000000c 			@ <UNDEFINED> instruction: 0000000c
     838:	000007a8 			@ <UNDEFINED> instruction: 000007a8
     83c:	08002e68 			@ <UNDEFINED> instruction: 08002e68
     840:	0000003c 			@ <UNDEFINED> instruction: 0000003c
     844:	0000000c 			@ <UNDEFINED> instruction: 0000000c
     848:	000007a8 			@ <UNDEFINED> instruction: 000007a8
     84c:	08002ea4 			@ <UNDEFINED> instruction: 08002ea4
     850:	0000005c 			@ <UNDEFINED> instruction: 0000005c
     854:	00000014 			@ <UNDEFINED> instruction: 00000014
     858:	000007a8 			@ <UNDEFINED> instruction: 000007a8
     85c:	08002f00 			@ <UNDEFINED> instruction: 08002f00
     860:	0000002c 			@ <UNDEFINED> instruction: 0000002c
     864:	84080e41 			@ <UNDEFINED> instruction: 84080e41
     868:	00018e02 			@ <UNDEFINED> instruction: 00018e02
     86c:	0000002c 			@ <UNDEFINED> instruction: 0000002c
     870:	000007a8 			@ <UNDEFINED> instruction: 000007a8
     874:	08002f2c 			@ <UNDEFINED> instruction: 08002f2c
     878:	0000016c 			@ <UNDEFINED> instruction: 0000016c
     87c:	84240e42 			@ <UNDEFINED> instruction: 84240e42
     880:	86088509 			@ <UNDEFINED> instruction: 86088509
     884:	88068707 			@ <UNDEFINED> instruction: 88068707
     888:	8a048905 			@ <UNDEFINED> instruction: 8a048905
     88c:	8e028b03 	vmlahi.f64	d8, d2, d3
     890:	380e4601 			@ <UNDEFINED> instruction: 380e4601
     894:	0e0a4202 			@ <UNDEFINED> instruction: 0e0a4202
     898:	000b4224 			@ <UNDEFINED> instruction: 000b4224
     89c:	00000020 			@ <UNDEFINED> instruction: 00000020
     8a0:	000007a8 			@ <UNDEFINED> instruction: 000007a8
     8a4:	08003098 			@ <UNDEFINED> instruction: 08003098
     8a8:	000000b8 			@ <UNDEFINED> instruction: 000000b8
     8ac:	83200e42 			@ <UNDEFINED> instruction: 83200e42
     8b0:	85078408 			@ <UNDEFINED> instruction: 85078408
     8b4:	87058606 			@ <UNDEFINED> instruction: 87058606
     8b8:	89038804 			@ <UNDEFINED> instruction: 89038804
     8bc:	00018e02 			@ <UNDEFINED> instruction: 00018e02
     8c0:	00000024 			@ <UNDEFINED> instruction: 00000024
     8c4:	000007a8 			@ <UNDEFINED> instruction: 000007a8
     8c8:	08003150 			@ <UNDEFINED> instruction: 08003150
     8cc:	000000e4 			@ <UNDEFINED> instruction: 000000e4
     8d0:	83280e42 			@ <UNDEFINED> instruction: 83280e42
     8d4:	8509840a 			@ <UNDEFINED> instruction: 8509840a
     8d8:	87078608 			@ <UNDEFINED> instruction: 87078608
     8dc:	89058806 			@ <UNDEFINED> instruction: 89058806
     8e0:	8b038a04 			@ <UNDEFINED> instruction: 8b038a04
     8e4:	00018e02 			@ <UNDEFINED> instruction: 00018e02
     8e8:	00000018 			@ <UNDEFINED> instruction: 00000018
     8ec:	000007a8 			@ <UNDEFINED> instruction: 000007a8
     8f0:	08003234 			@ <UNDEFINED> instruction: 08003234
     8f4:	00000036 			@ <UNDEFINED> instruction: 00000036
     8f8:	840c0e44 			@ <UNDEFINED> instruction: 840c0e44
     8fc:	8e028503 			@ <UNDEFINED> instruction: 8e028503
     900:	00000001 			@ <UNDEFINED> instruction: 00000001
     904:	00000028 			@ <UNDEFINED> instruction: 00000028
     908:	000007a8 			@ <UNDEFINED> instruction: 000007a8
     90c:	0800326c 			@ <UNDEFINED> instruction: 0800326c
     910:	00000130 			@ <UNDEFINED> instruction: 00000130
     914:	84300e42 			@ <UNDEFINED> instruction: 84300e42
     918:	86088509 			@ <UNDEFINED> instruction: 86088509
     91c:	88068707 			@ <UNDEFINED> instruction: 88068707
     920:	8a048905 			@ <UNDEFINED> instruction: 8a048905
     924:	8e028b03 	vmlahi.f64	d8, d2, d3
     928:	0e0a5a01 	vmlaeq.f32	s10, s20, s2
     92c:	000b4224 			@ <UNDEFINED> instruction: 000b4224
     930:	00000014 			@ <UNDEFINED> instruction: 00000014
     934:	000007a8 			@ <UNDEFINED> instruction: 000007a8
     938:	0800339c 			@ <UNDEFINED> instruction: 0800339c
     93c:	0000004c 			@ <UNDEFINED> instruction: 0000004c
     940:	62080e41 			@ <UNDEFINED> instruction: 62080e41
     944:	0000000e 			@ <UNDEFINED> instruction: 0000000e
     948:	0000001c 			@ <UNDEFINED> instruction: 0000001c
     94c:	000007a8 			@ <UNDEFINED> instruction: 000007a8
     950:	080033e8 			@ <UNDEFINED> instruction: 080033e8
     954:	00000092 			@ <UNDEFINED> instruction: 00000092
     958:	83180e41 			@ <UNDEFINED> instruction: 83180e41
     95c:	85058406 			@ <UNDEFINED> instruction: 85058406
     960:	87038604 			@ <UNDEFINED> instruction: 87038604
     964:	00018e02 			@ <UNDEFINED> instruction: 00018e02
     968:	00000024 			@ <UNDEFINED> instruction: 00000024
     96c:	000007a8 			@ <UNDEFINED> instruction: 000007a8
     970:	0800347c 			@ <UNDEFINED> instruction: 0800347c
     974:	000000b0 			@ <UNDEFINED> instruction: 000000b0
     978:	84280e42 			@ <UNDEFINED> instruction: 84280e42
     97c:	86068507 			@ <UNDEFINED> instruction: 86068507
     980:	88048705 			@ <UNDEFINED> instruction: 88048705
     984:	8e028903 			@ <UNDEFINED> instruction: 8e028903
     988:	0e0a7b01 	vmlaeq.f64	d7, d10, d1
     98c:	000b421c 			@ <UNDEFINED> instruction: 000b421c
     990:	0000001c 			@ <UNDEFINED> instruction: 0000001c
     994:	000007a8 			@ <UNDEFINED> instruction: 000007a8
     998:	0800352c 			@ <UNDEFINED> instruction: 0800352c
     99c:	00000062 			@ <UNDEFINED> instruction: 00000062
     9a0:	84200e41 			@ <UNDEFINED> instruction: 84200e41
     9a4:	86048505 			@ <UNDEFINED> instruction: 86048505
     9a8:	8e028703 			@ <UNDEFINED> instruction: 8e028703
     9ac:	140e6f01 			@ <UNDEFINED> instruction: 140e6f01
     9b0:	00000018 			@ <UNDEFINED> instruction: 00000018
     9b4:	000007a8 			@ <UNDEFINED> instruction: 000007a8
     9b8:	08003590 			@ <UNDEFINED> instruction: 08003590
     9bc:	0000003c 			@ <UNDEFINED> instruction: 0000003c
     9c0:	84100e42 			@ <UNDEFINED> instruction: 84100e42
     9c4:	87038604 			@ <UNDEFINED> instruction: 87038604
     9c8:	00018e02 			@ <UNDEFINED> instruction: 00018e02
     9cc:	00000018 			@ <UNDEFINED> instruction: 00000018
     9d0:	000007a8 			@ <UNDEFINED> instruction: 000007a8
     9d4:	080035cc 			@ <UNDEFINED> instruction: 080035cc
     9d8:	00000046 			@ <UNDEFINED> instruction: 00000046
     9dc:	84100e42 			@ <UNDEFINED> instruction: 84100e42
     9e0:	86038504 			@ <UNDEFINED> instruction: 86038504
     9e4:	00018e02 			@ <UNDEFINED> instruction: 00018e02
     9e8:	00000014 			@ <UNDEFINED> instruction: 00000014
     9ec:	000007a8 			@ <UNDEFINED> instruction: 000007a8
     9f0:	08003612 			@ <UNDEFINED> instruction: 08003612
     9f4:	00000042 			@ <UNDEFINED> instruction: 00000042
     9f8:	84080e46 			@ <UNDEFINED> instruction: 84080e46
     9fc:	00018e02 			@ <UNDEFINED> instruction: 00018e02
     a00:	0000000c 			@ <UNDEFINED> instruction: 0000000c
     a04:	ffffffff 			@ <UNDEFINED> instruction: ffffffff
     a08:	7c020001 			@ <UNDEFINED> instruction: 7c020001
     a0c:	000d0c0e 			@ <UNDEFINED> instruction: 000d0c0e
     a10:	00000020 			@ <UNDEFINED> instruction: 00000020
     a14:	00000a00 			@ <UNDEFINED> instruction: 00000a00
     a18:	08003654 			@ <UNDEFINED> instruction: 08003654
     a1c:	000000c0 			@ <UNDEFINED> instruction: 000000c0
     a20:	84200e42 			@ <UNDEFINED> instruction: 84200e42
     a24:	86078508 			@ <UNDEFINED> instruction: 86078508
     a28:	88058706 			@ <UNDEFINED> instruction: 88058706
     a2c:	8a038904 			@ <UNDEFINED> instruction: 8a038904
     a30:	00018e02 			@ <UNDEFINED> instruction: 00018e02
     a34:	00000028 			@ <UNDEFINED> instruction: 00000028
     a38:	00000a00 			@ <UNDEFINED> instruction: 00000a00
     a3c:	08003714 			@ <UNDEFINED> instruction: 08003714
     a40:	000000f4 	strdeq	r0, [r0], -r4
     a44:	84300e43 			@ <UNDEFINED> instruction: 84300e43
     a48:	86088509 			@ <UNDEFINED> instruction: 86088509
     a4c:	88068707 			@ <UNDEFINED> instruction: 88068707
     a50:	8a048905 			@ <UNDEFINED> instruction: 8a048905
     a54:	8e028b03 	vmlahi.f64	d8, d2, d3
     a58:	0a5a0201 			@ <UNDEFINED> instruction: 0a5a0201
     a5c:	0b42240e 			@ <UNDEFINED> instruction: 0b42240e
     a60:	0000002c 			@ <UNDEFINED> instruction: 0000002c
     a64:	00000a00 			@ <UNDEFINED> instruction: 00000a00
     a68:	08003808 			@ <UNDEFINED> instruction: 08003808
     a6c:	000001f0 	strdeq	r0, [r0], -r0	@ <UNPREDICTABLE>
     a70:	84200e42 			@ <UNDEFINED> instruction: 84200e42
     a74:	86078508 			@ <UNDEFINED> instruction: 86078508
     a78:	88058706 			@ <UNDEFINED> instruction: 88058706
     a7c:	8a038904 			@ <UNDEFINED> instruction: 8a038904
     a80:	44018e02 			@ <UNDEFINED> instruction: 44018e02
     a84:	5101900e 			@ <UNDEFINED> instruction: 5101900e
     a88:	42200e0a 			@ <UNDEFINED> instruction: 42200e0a
     a8c:	0000000b 			@ <UNDEFINED> instruction: 0000000b
     a90:	0000000c 			@ <UNDEFINED> instruction: 0000000c
     a94:	ffffffff 			@ <UNDEFINED> instruction: ffffffff
     a98:	7c020001 			@ <UNDEFINED> instruction: 7c020001
     a9c:	000d0c0e 			@ <UNDEFINED> instruction: 000d0c0e
     aa0:	0000001c 			@ <UNDEFINED> instruction: 0000001c
     aa4:	00000a90 			@ <UNDEFINED> instruction: 00000a90
     aa8:	080039f8 			@ <UNDEFINED> instruction: 080039f8
     aac:	0000002a 			@ <UNDEFINED> instruction: 0000002a
     ab0:	84040e44 			@ <UNDEFINED> instruction: 84040e44
     ab4:	c40a4801 			@ <UNDEFINED> instruction: c40a4801
     ab8:	0b42000e 			@ <UNDEFINED> instruction: 0b42000e
     abc:	000ec446 			@ <UNDEFINED> instruction: 000ec446
     ac0:	0000001c 			@ <UNDEFINED> instruction: 0000001c
     ac4:	00000a90 			@ <UNDEFINED> instruction: 00000a90
     ac8:	08003a22 			@ <UNDEFINED> instruction: 08003a22
     acc:	00000024 			@ <UNDEFINED> instruction: 00000024
     ad0:	83180e41 			@ <UNDEFINED> instruction: 83180e41
     ad4:	85058406 			@ <UNDEFINED> instruction: 85058406
     ad8:	87038604 			@ <UNDEFINED> instruction: 87038604
     adc:	00018e02 			@ <UNDEFINED> instruction: 00018e02
     ae0:	00000014 			@ <UNDEFINED> instruction: 00000014
     ae4:	00000a90 			@ <UNDEFINED> instruction: 00000a90
     ae8:	08003a46 			@ <UNDEFINED> instruction: 08003a46
     aec:	0000001a 			@ <UNDEFINED> instruction: 0000001a
     af0:	84080e42 			@ <UNDEFINED> instruction: 84080e42
     af4:	00018e02 			@ <UNDEFINED> instruction: 00018e02
     af8:	0000002c 			@ <UNDEFINED> instruction: 0000002c
     afc:	00000a90 			@ <UNDEFINED> instruction: 00000a90
     b00:	08003a60 			@ <UNDEFINED> instruction: 08003a60
     b04:	00000228 			@ <UNDEFINED> instruction: 00000228
     b08:	84200e42 			@ <UNDEFINED> instruction: 84200e42
     b0c:	86078508 			@ <UNDEFINED> instruction: 86078508
     b10:	88058706 			@ <UNDEFINED> instruction: 88058706
     b14:	8a038904 			@ <UNDEFINED> instruction: 8a038904
     b18:	42018e02 			@ <UNDEFINED> instruction: 42018e02
     b1c:	6101900e 			@ <UNDEFINED> instruction: 6101900e
     b20:	42200e0a 			@ <UNDEFINED> instruction: 42200e0a
     b24:	0000000b 			@ <UNDEFINED> instruction: 0000000b
     b28:	0000000c 			@ <UNDEFINED> instruction: 0000000c
     b2c:	00000a90 			@ <UNDEFINED> instruction: 00000a90
     b30:	08003c88 			@ <UNDEFINED> instruction: 08003c88
     b34:	00000014 			@ <UNDEFINED> instruction: 00000014
     b38:	0000000c 			@ <UNDEFINED> instruction: 0000000c
     b3c:	ffffffff 			@ <UNDEFINED> instruction: ffffffff
     b40:	7c020001 			@ <UNDEFINED> instruction: 7c020001
     b44:	000d0c0e 			@ <UNDEFINED> instruction: 000d0c0e
     b48:	0000001c 			@ <UNDEFINED> instruction: 0000001c
     b4c:	00000b38 			@ <UNDEFINED> instruction: 00000b38
     b50:	08003c9c 			@ <UNDEFINED> instruction: 08003c9c
     b54:	00000100 			@ <UNDEFINED> instruction: 00000100
     b58:	84180e44 			@ <UNDEFINED> instruction: 84180e44
     b5c:	86058506 			@ <UNDEFINED> instruction: 86058506
     b60:	88038704 			@ <UNDEFINED> instruction: 88038704
     b64:	00018e02 			@ <UNDEFINED> instruction: 00018e02
     b68:	00000018 			@ <UNDEFINED> instruction: 00000018
     b6c:	00000b38 			@ <UNDEFINED> instruction: 00000b38
     b70:	08003d9c 			@ <UNDEFINED> instruction: 08003d9c
     b74:	00000050 			@ <UNDEFINED> instruction: 00000050
     b78:	83100e41 			@ <UNDEFINED> instruction: 83100e41
     b7c:	85038404 			@ <UNDEFINED> instruction: 85038404
     b80:	00018e02 			@ <UNDEFINED> instruction: 00018e02
     b84:	0000000c 			@ <UNDEFINED> instruction: 0000000c
     b88:	00000b38 			@ <UNDEFINED> instruction: 00000b38
     b8c:	08003dec 			@ <UNDEFINED> instruction: 08003dec
     b90:	00000028 			@ <UNDEFINED> instruction: 00000028
     b94:	0000000c 			@ <UNDEFINED> instruction: 0000000c
     b98:	ffffffff 			@ <UNDEFINED> instruction: ffffffff
     b9c:	7c020001 			@ <UNDEFINED> instruction: 7c020001
     ba0:	000d0c0e 			@ <UNDEFINED> instruction: 000d0c0e
     ba4:	0000001c 			@ <UNDEFINED> instruction: 0000001c
     ba8:	00000b94 			@ <UNDEFINED> instruction: 00000b94
     bac:	08003e14 			@ <UNDEFINED> instruction: 08003e14
     bb0:	0000006c 			@ <UNDEFINED> instruction: 0000006c
     bb4:	84080e42 			@ <UNDEFINED> instruction: 84080e42
     bb8:	66018e02 			@ <UNDEFINED> instruction: 66018e02
     bbc:	0ec4ce0a 			@ <UNDEFINED> instruction: 0ec4ce0a
     bc0:	000b4200 			@ <UNDEFINED> instruction: 000b4200
     bc4:	0000000c 			@ <UNDEFINED> instruction: 0000000c
     bc8:	00000b94 			@ <UNDEFINED> instruction: 00000b94
     bcc:	08003e80 			@ <UNDEFINED> instruction: 08003e80
     bd0:	00000018 			@ <UNDEFINED> instruction: 00000018
     bd4:	0000001c 			@ <UNDEFINED> instruction: 0000001c
     bd8:	00000b94 			@ <UNDEFINED> instruction: 00000b94
     bdc:	08003e98 			@ <UNDEFINED> instruction: 08003e98
     be0:	00000040 			@ <UNDEFINED> instruction: 00000040
     be4:	84080e44 			@ <UNDEFINED> instruction: 84080e44
     be8:	52018e02 			@ <UNDEFINED> instruction: 52018e02
     bec:	0ec4ce0a 			@ <UNDEFINED> instruction: 0ec4ce0a
     bf0:	000b4200 			@ <UNDEFINED> instruction: 000b4200
     bf4:	00000014 			@ <UNDEFINED> instruction: 00000014
     bf8:	00000b94 			@ <UNDEFINED> instruction: 00000b94
     bfc:	08003ed8 			@ <UNDEFINED> instruction: 08003ed8
     c00:	00000018 			@ <UNDEFINED> instruction: 00000018
     c04:	83080e41 	movwhi	r0, #36417	@ 0x8e41
     c08:	00018e02 			@ <UNDEFINED> instruction: 00018e02
     c0c:	00000014 			@ <UNDEFINED> instruction: 00000014
     c10:	00000b94 			@ <UNDEFINED> instruction: 00000b94
     c14:	08003ef0 			@ <UNDEFINED> instruction: 08003ef0
     c18:	00000018 			@ <UNDEFINED> instruction: 00000018
     c1c:	83080e41 	movwhi	r0, #36417	@ 0x8e41
     c20:	00018e02 			@ <UNDEFINED> instruction: 00018e02
     c24:	00000018 			@ <UNDEFINED> instruction: 00000018
     c28:	00000b94 			@ <UNDEFINED> instruction: 00000b94
     c2c:	08003f08 			@ <UNDEFINED> instruction: 08003f08
     c30:	00000040 			@ <UNDEFINED> instruction: 00000040
     c34:	84080e41 			@ <UNDEFINED> instruction: 84080e41
     c38:	4f018e02 			@ <UNDEFINED> instruction: 4f018e02
     c3c:	000ec4ce 			@ <UNDEFINED> instruction: 000ec4ce
     c40:	0000000c 			@ <UNDEFINED> instruction: 0000000c
     c44:	00000b94 			@ <UNDEFINED> instruction: 00000b94
     c48:	08003f48 			@ <UNDEFINED> instruction: 08003f48
     c4c:	0000000c 			@ <UNDEFINED> instruction: 0000000c
     c50:	0000000c 			@ <UNDEFINED> instruction: 0000000c
     c54:	00000b94 			@ <UNDEFINED> instruction: 00000b94
     c58:	08003f54 			@ <UNDEFINED> instruction: 08003f54
     c5c:	0000000c 			@ <UNDEFINED> instruction: 0000000c
     c60:	0000001c 			@ <UNDEFINED> instruction: 0000001c
     c64:	00000b94 			@ <UNDEFINED> instruction: 00000b94
     c68:	08003f60 			@ <UNDEFINED> instruction: 08003f60
     c6c:	000000a4 			@ <UNDEFINED> instruction: 000000a4
     c70:	83180e41 			@ <UNDEFINED> instruction: 83180e41
     c74:	85058406 			@ <UNDEFINED> instruction: 85058406
     c78:	87038604 			@ <UNDEFINED> instruction: 87038604
     c7c:	00018e02 			@ <UNDEFINED> instruction: 00018e02
     c80:	0000001c 			@ <UNDEFINED> instruction: 0000001c
     c84:	00000b94 			@ <UNDEFINED> instruction: 00000b94
     c88:	08004004 			@ <UNDEFINED> instruction: 08004004
     c8c:	00000030 			@ <UNDEFINED> instruction: 00000030
     c90:	84080e41 			@ <UNDEFINED> instruction: 84080e41
     c94:	47018e02 			@ <UNDEFINED> instruction: 47018e02
     c98:	0ec4ce0a 			@ <UNDEFINED> instruction: 0ec4ce0a
     c9c:	000b4200 			@ <UNDEFINED> instruction: 000b4200
     ca0:	00000018 			@ <UNDEFINED> instruction: 00000018
     ca4:	00000b94 			@ <UNDEFINED> instruction: 00000b94
     ca8:	08004034 			@ <UNDEFINED> instruction: 08004034
     cac:	0000001c 			@ <UNDEFINED> instruction: 0000001c
     cb0:	83080e41 	movwhi	r0, #36417	@ 0x8e41
     cb4:	44018e02 			@ <UNDEFINED> instruction: 44018e02
     cb8:	000ec3ce 			@ <UNDEFINED> instruction: 000ec3ce
     cbc:	00000018 			@ <UNDEFINED> instruction: 00000018
     cc0:	00000b94 			@ <UNDEFINED> instruction: 00000b94
     cc4:	08004050 			@ <UNDEFINED> instruction: 08004050
     cc8:	0000001c 			@ <UNDEFINED> instruction: 0000001c
     ccc:	83080e41 	movwhi	r0, #36417	@ 0x8e41
     cd0:	47018e02 			@ <UNDEFINED> instruction: 47018e02
     cd4:	000ec3ce 			@ <UNDEFINED> instruction: 000ec3ce
     cd8:	0000000c 			@ <UNDEFINED> instruction: 0000000c
     cdc:	ffffffff 			@ <UNDEFINED> instruction: ffffffff
     ce0:	7c020001 			@ <UNDEFINED> instruction: 7c020001
     ce4:	000d0c0e 			@ <UNDEFINED> instruction: 000d0c0e
     ce8:	00000028 			@ <UNDEFINED> instruction: 00000028
     cec:	00000cd8 	ldrdeq	r0, [r0], -r8
     cf0:	0800406c 			@ <UNDEFINED> instruction: 0800406c
     cf4:	000002a0 			@ <UNDEFINED> instruction: 000002a0
     cf8:	84300e43 			@ <UNDEFINED> instruction: 84300e43
     cfc:	86088509 			@ <UNDEFINED> instruction: 86088509
     d00:	88068707 			@ <UNDEFINED> instruction: 88068707
     d04:	8a048905 			@ <UNDEFINED> instruction: 8a048905
     d08:	8e028b03 	vmlahi.f64	d8, d2, d3
     d0c:	0e0a4601 			@ <UNDEFINED> instruction: 0e0a4601
     d10:	000b4224 			@ <UNDEFINED> instruction: 000b4224
     d14:	0000000c 			@ <UNDEFINED> instruction: 0000000c
     d18:	ffffffff 			@ <UNDEFINED> instruction: ffffffff
     d1c:	7c020001 			@ <UNDEFINED> instruction: 7c020001
     d20:	000d0c0e 			@ <UNDEFINED> instruction: 000d0c0e
     d24:	00000020 			@ <UNDEFINED> instruction: 00000020
     d28:	00000d14 			@ <UNDEFINED> instruction: 00000d14
     d2c:	0800430c 			@ <UNDEFINED> instruction: 0800430c
     d30:	0000003a 			@ <UNDEFINED> instruction: 0000003a
     d34:	83200e42 			@ <UNDEFINED> instruction: 83200e42
     d38:	85078408 			@ <UNDEFINED> instruction: 85078408
     d3c:	87058606 			@ <UNDEFINED> instruction: 87058606
     d40:	89038804 			@ <UNDEFINED> instruction: 89038804
     d44:	00018e02 			@ <UNDEFINED> instruction: 00018e02
     d48:	0000000c 			@ <UNDEFINED> instruction: 0000000c
     d4c:	ffffffff 			@ <UNDEFINED> instruction: ffffffff
     d50:	7c020001 			@ <UNDEFINED> instruction: 7c020001
     d54:	000d0c0e 			@ <UNDEFINED> instruction: 000d0c0e
     d58:	00000020 			@ <UNDEFINED> instruction: 00000020
     d5c:	00000d48 			@ <UNDEFINED> instruction: 00000d48
     d60:	08004346 			@ <UNDEFINED> instruction: 08004346
     d64:	00000048 			@ <UNDEFINED> instruction: 00000048
     d68:	84100e41 			@ <UNDEFINED> instruction: 84100e41
     d6c:	86038504 			@ <UNDEFINED> instruction: 86038504
     d70:	45018e02 			@ <UNDEFINED> instruction: 45018e02
     d74:	0a4d680e 			@ <UNDEFINED> instruction: 0a4d680e
     d78:	0b41100e 			@ <UNDEFINED> instruction: 0b41100e
     d7c:	00000020 			@ <UNDEFINED> instruction: 00000020
     d80:	00000d48 			@ <UNDEFINED> instruction: 00000d48
     d84:	0800438e 			@ <UNDEFINED> instruction: 0800438e
     d88:	00000072 			@ <UNDEFINED> instruction: 00000072
     d8c:	84180e42 			@ <UNDEFINED> instruction: 84180e42
     d90:	86038504 			@ <UNDEFINED> instruction: 86038504
     d94:	4b018e02 			@ <UNDEFINED> instruction: 4b018e02
     d98:	41100e0a 			@ <UNDEFINED> instruction: 41100e0a
     d9c:	0000000b 			@ <UNDEFINED> instruction: 0000000b
     da0:	0000000c 			@ <UNDEFINED> instruction: 0000000c
     da4:	ffffffff 			@ <UNDEFINED> instruction: ffffffff
     da8:	7c020001 			@ <UNDEFINED> instruction: 7c020001
     dac:	000d0c0e 			@ <UNDEFINED> instruction: 000d0c0e
     db0:	00000014 			@ <UNDEFINED> instruction: 00000014
     db4:	00000da0 			@ <UNDEFINED> instruction: 00000da0
     db8:	08004400 			@ <UNDEFINED> instruction: 08004400
     dbc:	00000022 			@ <UNDEFINED> instruction: 00000022
     dc0:	84080e41 			@ <UNDEFINED> instruction: 84080e41
     dc4:	00018e02 			@ <UNDEFINED> instruction: 00018e02
     dc8:	0000000c 			@ <UNDEFINED> instruction: 0000000c
     dcc:	00000da0 			@ <UNDEFINED> instruction: 00000da0
     dd0:	08004422 			@ <UNDEFINED> instruction: 08004422
     dd4:	00000004 			@ <UNDEFINED> instruction: 00000004
     dd8:	00000024 			@ <UNDEFINED> instruction: 00000024
     ddc:	00000da0 			@ <UNDEFINED> instruction: 00000da0
     de0:	08004426 			@ <UNDEFINED> instruction: 08004426
     de4:	00000038 			@ <UNDEFINED> instruction: 00000038
     de8:	84180e42 			@ <UNDEFINED> instruction: 84180e42
     dec:	86058506 			@ <UNDEFINED> instruction: 86058506
     df0:	88038704 			@ <UNDEFINED> instruction: 88038704
     df4:	58018e02 			@ <UNDEFINED> instruction: 58018e02
     df8:	c6c7c8ce 			@ <UNDEFINED> instruction: c6c7c8ce
     dfc:	000ec4c5 			@ <UNDEFINED> instruction: 000ec4c5
     e00:	00000014 			@ <UNDEFINED> instruction: 00000014
     e04:	00000da0 			@ <UNDEFINED> instruction: 00000da0
     e08:	0800445e 			@ <UNDEFINED> instruction: 0800445e
     e0c:	00000026 			@ <UNDEFINED> instruction: 00000026
     e10:	84080e41 			@ <UNDEFINED> instruction: 84080e41
     e14:	00018e02 			@ <UNDEFINED> instruction: 00018e02
     e18:	0000000c 			@ <UNDEFINED> instruction: 0000000c
     e1c:	00000da0 			@ <UNDEFINED> instruction: 00000da0
     e20:	08004484 			@ <UNDEFINED> instruction: 08004484
     e24:	00000008 			@ <UNDEFINED> instruction: 00000008
     e28:	0000000c 			@ <UNDEFINED> instruction: 0000000c
     e2c:	ffffffff 			@ <UNDEFINED> instruction: ffffffff
     e30:	7c020001 			@ <UNDEFINED> instruction: 7c020001
     e34:	000d0c0e 			@ <UNDEFINED> instruction: 000d0c0e
     e38:	0000001c 			@ <UNDEFINED> instruction: 0000001c
     e3c:	00000e28 			@ <UNDEFINED> instruction: 00000e28
     e40:	0800448c 			@ <UNDEFINED> instruction: 0800448c
     e44:	0000007a 			@ <UNDEFINED> instruction: 0000007a
     e48:	83180e41 			@ <UNDEFINED> instruction: 83180e41
     e4c:	85058406 			@ <UNDEFINED> instruction: 85058406
     e50:	87038604 			@ <UNDEFINED> instruction: 87038604
     e54:	00018e02 			@ <UNDEFINED> instruction: 00018e02
     e58:	0000000c 			@ <UNDEFINED> instruction: 0000000c
     e5c:	00000e28 			@ <UNDEFINED> instruction: 00000e28
     e60:	08004508 			@ <UNDEFINED> instruction: 08004508
     e64:	00000010 			@ <UNDEFINED> instruction: 00000010
     e68:	0000000c 			@ <UNDEFINED> instruction: 0000000c
     e6c:	ffffffff 			@ <UNDEFINED> instruction: ffffffff
     e70:	7c020001 			@ <UNDEFINED> instruction: 7c020001
     e74:	000d0c0e 			@ <UNDEFINED> instruction: 000d0c0e
     e78:	00000018 			@ <UNDEFINED> instruction: 00000018
     e7c:	00000e68 			@ <UNDEFINED> instruction: 00000e68
     e80:	08004518 			@ <UNDEFINED> instruction: 08004518
     e84:	000000a8 			@ <UNDEFINED> instruction: 000000a8
     e88:	83100e41 			@ <UNDEFINED> instruction: 83100e41
     e8c:	85038404 			@ <UNDEFINED> instruction: 85038404
     e90:	00018e02 			@ <UNDEFINED> instruction: 00018e02
     e94:	0000000c 			@ <UNDEFINED> instruction: 0000000c
     e98:	ffffffff 			@ <UNDEFINED> instruction: ffffffff
     e9c:	7c020001 			@ <UNDEFINED> instruction: 7c020001
     ea0:	000d0c0e 			@ <UNDEFINED> instruction: 000d0c0e
     ea4:	00000014 			@ <UNDEFINED> instruction: 00000014
     ea8:	00000e94 			@ <UNDEFINED> instruction: 00000e94
     eac:	080045c0 			@ <UNDEFINED> instruction: 080045c0
     eb0:	00000032 			@ <UNDEFINED> instruction: 00000032
     eb4:	84080e42 			@ <UNDEFINED> instruction: 84080e42
     eb8:	00018e02 			@ <UNDEFINED> instruction: 00018e02
     ebc:	0000000c 			@ <UNDEFINED> instruction: 0000000c
     ec0:	ffffffff 			@ <UNDEFINED> instruction: ffffffff
     ec4:	7c020001 			@ <UNDEFINED> instruction: 7c020001
     ec8:	000d0c0e 			@ <UNDEFINED> instruction: 000d0c0e
     ecc:	0000000c 			@ <UNDEFINED> instruction: 0000000c
     ed0:	00000ebc 			@ <UNDEFINED> instruction: 00000ebc
     ed4:	080045f2 			@ <UNDEFINED> instruction: 080045f2
     ed8:	00000010 			@ <UNDEFINED> instruction: 00000010
     edc:	0000000c 			@ <UNDEFINED> instruction: 0000000c
     ee0:	ffffffff 			@ <UNDEFINED> instruction: ffffffff
     ee4:	7c020001 			@ <UNDEFINED> instruction: 7c020001
     ee8:	000d0c0e 			@ <UNDEFINED> instruction: 000d0c0e
     eec:	00000014 			@ <UNDEFINED> instruction: 00000014
     ef0:	00000edc 	ldrdeq	r0, [r0], -ip
     ef4:	08004604 			@ <UNDEFINED> instruction: 08004604
     ef8:	0000003c 			@ <UNDEFINED> instruction: 0000003c
     efc:	84080e41 			@ <UNDEFINED> instruction: 84080e41
     f00:	00018e02 			@ <UNDEFINED> instruction: 00018e02
     f04:	0000000c 			@ <UNDEFINED> instruction: 0000000c
     f08:	00000edc 	ldrdeq	r0, [r0], -ip
     f0c:	08004640 			@ <UNDEFINED> instruction: 08004640
     f10:	0000000c 			@ <UNDEFINED> instruction: 0000000c
     f14:	0000000c 			@ <UNDEFINED> instruction: 0000000c
     f18:	00000edc 	ldrdeq	r0, [r0], -ip
     f1c:	0800464c 			@ <UNDEFINED> instruction: 0800464c
     f20:	00000010 			@ <UNDEFINED> instruction: 00000010
     f24:	0000000c 			@ <UNDEFINED> instruction: 0000000c
     f28:	ffffffff 			@ <UNDEFINED> instruction: ffffffff
     f2c:	7c020001 			@ <UNDEFINED> instruction: 7c020001
     f30:	000d0c0e 			@ <UNDEFINED> instruction: 000d0c0e
     f34:	00000018 			@ <UNDEFINED> instruction: 00000018
     f38:	00000f24 			@ <UNDEFINED> instruction: 00000f24
     f3c:	0800465c 			@ <UNDEFINED> instruction: 0800465c
     f40:	00000020 			@ <UNDEFINED> instruction: 00000020
     f44:	83100e41 			@ <UNDEFINED> instruction: 83100e41
     f48:	85038404 			@ <UNDEFINED> instruction: 85038404
     f4c:	00018e02 			@ <UNDEFINED> instruction: 00018e02
     f50:	0000000c 			@ <UNDEFINED> instruction: 0000000c
     f54:	ffffffff 			@ <UNDEFINED> instruction: ffffffff
     f58:	7c020001 			@ <UNDEFINED> instruction: 7c020001
     f5c:	000d0c0e 			@ <UNDEFINED> instruction: 000d0c0e
     f60:	00000024 			@ <UNDEFINED> instruction: 00000024
     f64:	00000f50 			@ <UNDEFINED> instruction: 00000f50
     f68:	0800467c 			@ <UNDEFINED> instruction: 0800467c
     f6c:	000000bc 			@ <UNDEFINED> instruction: 000000bc
     f70:	84100e44 			@ <UNDEFINED> instruction: 84100e44
     f74:	86038504 			@ <UNDEFINED> instruction: 86038504
     f78:	02018e02 			@ <UNDEFINED> instruction: 02018e02
     f7c:	c6ce0a55 			@ <UNDEFINED> instruction: c6ce0a55
     f80:	000ec4c5 			@ <UNDEFINED> instruction: 000ec4c5
     f84:	00000b41 			@ <UNDEFINED> instruction: 00000b41
     f88:	0000000c 			@ <UNDEFINED> instruction: 0000000c
     f8c:	ffffffff 			@ <UNDEFINED> instruction: ffffffff
     f90:	7c020001 			@ <UNDEFINED> instruction: 7c020001
     f94:	000d0c0e 			@ <UNDEFINED> instruction: 000d0c0e
     f98:	00000018 			@ <UNDEFINED> instruction: 00000018
     f9c:	00000f88 			@ <UNDEFINED> instruction: 00000f88
     fa0:	08004738 			@ <UNDEFINED> instruction: 08004738
     fa4:	00000024 			@ <UNDEFINED> instruction: 00000024
     fa8:	83100e41 			@ <UNDEFINED> instruction: 83100e41
     fac:	85038404 			@ <UNDEFINED> instruction: 85038404
     fb0:	00018e02 			@ <UNDEFINED> instruction: 00018e02
     fb4:	0000000c 			@ <UNDEFINED> instruction: 0000000c
     fb8:	ffffffff 			@ <UNDEFINED> instruction: ffffffff
     fbc:	7c020001 			@ <UNDEFINED> instruction: 7c020001
     fc0:	000d0c0e 			@ <UNDEFINED> instruction: 000d0c0e
     fc4:	00000018 			@ <UNDEFINED> instruction: 00000018
     fc8:	00000fb4 			@ <UNDEFINED> instruction: 00000fb4
     fcc:	0800475c 			@ <UNDEFINED> instruction: 0800475c
     fd0:	00000020 			@ <UNDEFINED> instruction: 00000020
     fd4:	83100e41 			@ <UNDEFINED> instruction: 83100e41
     fd8:	85038404 			@ <UNDEFINED> instruction: 85038404
     fdc:	00018e02 			@ <UNDEFINED> instruction: 00018e02
     fe0:	0000000c 			@ <UNDEFINED> instruction: 0000000c
     fe4:	ffffffff 			@ <UNDEFINED> instruction: ffffffff
     fe8:	7c020001 			@ <UNDEFINED> instruction: 7c020001
     fec:	000d0c0e 			@ <UNDEFINED> instruction: 000d0c0e
     ff0:	00000018 			@ <UNDEFINED> instruction: 00000018
     ff4:	00000fe0 			@ <UNDEFINED> instruction: 00000fe0
     ff8:	0800477c 			@ <UNDEFINED> instruction: 0800477c
     ffc:	00000024 			@ <UNDEFINED> instruction: 00000024
    1000:	83100e41 			@ <UNDEFINED> instruction: 83100e41
    1004:	85038404 			@ <UNDEFINED> instruction: 85038404
    1008:	00018e02 			@ <UNDEFINED> instruction: 00018e02
    100c:	0000000c 			@ <UNDEFINED> instruction: 0000000c
    1010:	ffffffff 			@ <UNDEFINED> instruction: ffffffff
    1014:	7c020001 			@ <UNDEFINED> instruction: 7c020001
    1018:	000d0c0e 			@ <UNDEFINED> instruction: 000d0c0e
    101c:	00000018 			@ <UNDEFINED> instruction: 00000018
    1020:	0000100c 			@ <UNDEFINED> instruction: 0000100c
    1024:	080047a0 			@ <UNDEFINED> instruction: 080047a0
    1028:	00000024 			@ <UNDEFINED> instruction: 00000024
    102c:	83100e41 			@ <UNDEFINED> instruction: 83100e41
    1030:	85038404 			@ <UNDEFINED> instruction: 85038404
    1034:	00018e02 			@ <UNDEFINED> instruction: 00018e02
    1038:	0000000c 			@ <UNDEFINED> instruction: 0000000c
    103c:	ffffffff 			@ <UNDEFINED> instruction: ffffffff
    1040:	7c020001 			@ <UNDEFINED> instruction: 7c020001
    1044:	000d0c0e 			@ <UNDEFINED> instruction: 000d0c0e
    1048:	00000018 			@ <UNDEFINED> instruction: 00000018
    104c:	00001038 			@ <UNDEFINED> instruction: 00001038
    1050:	080047c4 			@ <UNDEFINED> instruction: 080047c4
    1054:	00000020 			@ <UNDEFINED> instruction: 00000020
    1058:	83100e41 			@ <UNDEFINED> instruction: 83100e41
    105c:	85038404 			@ <UNDEFINED> instruction: 85038404
    1060:	00018e02 			@ <UNDEFINED> instruction: 00018e02
    1064:	0000000c 			@ <UNDEFINED> instruction: 0000000c
    1068:	ffffffff 			@ <UNDEFINED> instruction: ffffffff
    106c:	7c020001 			@ <UNDEFINED> instruction: 7c020001
    1070:	000d0c0e 			@ <UNDEFINED> instruction: 000d0c0e
    1074:	00000018 			@ <UNDEFINED> instruction: 00000018
    1078:	00001064 			@ <UNDEFINED> instruction: 00001064
    107c:	080047e4 			@ <UNDEFINED> instruction: 080047e4
    1080:	00000024 			@ <UNDEFINED> instruction: 00000024
    1084:	83100e41 			@ <UNDEFINED> instruction: 83100e41
    1088:	85038404 			@ <UNDEFINED> instruction: 85038404
    108c:	00018e02 			@ <UNDEFINED> instruction: 00018e02
    1090:	0000000c 			@ <UNDEFINED> instruction: 0000000c
    1094:	ffffffff 			@ <UNDEFINED> instruction: ffffffff
    1098:	7c020001 			@ <UNDEFINED> instruction: 7c020001
    109c:	000d0c0e 			@ <UNDEFINED> instruction: 000d0c0e
    10a0:	0000000c 			@ <UNDEFINED> instruction: 0000000c
    10a4:	00001090 			@ <UNDEFINED> instruction: 00001090
    10a8:	08000750 			@ <UNDEFINED> instruction: 08000750
    10ac:	00000014 			@ <UNDEFINED> instruction: 00000014
    10b0:	0000000c 			@ <UNDEFINED> instruction: 0000000c
    10b4:	ffffffff 			@ <UNDEFINED> instruction: ffffffff
    10b8:	7c020001 			@ <UNDEFINED> instruction: 7c020001
    10bc:	000d0c0e 			@ <UNDEFINED> instruction: 000d0c0e
    10c0:	00000014 			@ <UNDEFINED> instruction: 00000014
    10c4:	000010b0 			@ <UNDEFINED> instruction: 000010b0
    10c8:	08004808 			@ <UNDEFINED> instruction: 08004808
    10cc:	0000001c 			@ <UNDEFINED> instruction: 0000001c
    10d0:	84080e47 			@ <UNDEFINED> instruction: 84080e47
    10d4:	00018e02 			@ <UNDEFINED> instruction: 00018e02
    10d8:	0000000c 			@ <UNDEFINED> instruction: 0000000c
    10dc:	ffffffff 			@ <UNDEFINED> instruction: ffffffff
    10e0:	7c020001 			@ <UNDEFINED> instruction: 7c020001
    10e4:	000d0c0e 			@ <UNDEFINED> instruction: 000d0c0e
    10e8:	00000014 			@ <UNDEFINED> instruction: 00000014
    10ec:	000010d8 	ldrdeq	r1, [r0], -r8
    10f0:	08004824 			@ <UNDEFINED> instruction: 08004824
    10f4:	0000003c 			@ <UNDEFINED> instruction: 0000003c
    10f8:	8e180e41 			@ <UNDEFINED> instruction: 8e180e41
    10fc:	00000001 			@ <UNDEFINED> instruction: 00000001
    1100:	00000014 			@ <UNDEFINED> instruction: 00000014
    1104:	000010d8 	ldrdeq	r1, [r0], -r8
    1108:	08004860 			@ <UNDEFINED> instruction: 08004860
    110c:	0000000a 			@ <UNDEFINED> instruction: 0000000a
    1110:	83080e41 	movwhi	r0, #36417	@ 0x8e41
    1114:	00018e02 			@ <UNDEFINED> instruction: 00018e02
    1118:	0000000c 			@ <UNDEFINED> instruction: 0000000c
    111c:	ffffffff 			@ <UNDEFINED> instruction: ffffffff
    1120:	7c020001 			@ <UNDEFINED> instruction: 7c020001
    1124:	000d0c0e 			@ <UNDEFINED> instruction: 000d0c0e
    1128:	00000018 			@ <UNDEFINED> instruction: 00000018
    112c:	00001118 			@ <UNDEFINED> instruction: 00001118
    1130:	0800486a 			@ <UNDEFINED> instruction: 0800486a
    1134:	00000028 			@ <UNDEFINED> instruction: 00000028
    1138:	84100e41 			@ <UNDEFINED> instruction: 84100e41
    113c:	86038504 			@ <UNDEFINED> instruction: 86038504
    1140:	00018e02 			@ <UNDEFINED> instruction: 00018e02
    1144:	0000000c 			@ <UNDEFINED> instruction: 0000000c
    1148:	ffffffff 			@ <UNDEFINED> instruction: ffffffff
    114c:	7c020001 			@ <UNDEFINED> instruction: 7c020001
    1150:	000d0c0e 			@ <UNDEFINED> instruction: 000d0c0e
    1154:	00000018 			@ <UNDEFINED> instruction: 00000018
    1158:	00001144 			@ <UNDEFINED> instruction: 00001144
    115c:	08004894 			@ <UNDEFINED> instruction: 08004894
    1160:	00000010 			@ <UNDEFINED> instruction: 00000010
    1164:	84040e41 			@ <UNDEFINED> instruction: 84040e41
    1168:	0ec44401 			@ <UNDEFINED> instruction: 0ec44401
    116c:	00000000 			@ <UNDEFINED> instruction: 00000000
    1170:	00000018 			@ <UNDEFINED> instruction: 00000018
    1174:	00001144 			@ <UNDEFINED> instruction: 00001144
    1178:	080048a4 			@ <UNDEFINED> instruction: 080048a4
    117c:	00000024 			@ <UNDEFINED> instruction: 00000024
    1180:	4b080e41 			@ <UNDEFINED> instruction: 4b080e41
    1184:	41000e0a 			@ <UNDEFINED> instruction: 41000e0a
    1188:	0000000b 			@ <UNDEFINED> instruction: 0000000b
    118c:	0000000c 			@ <UNDEFINED> instruction: 0000000c
    1190:	ffffffff 			@ <UNDEFINED> instruction: ffffffff
    1194:	7c020001 			@ <UNDEFINED> instruction: 7c020001
    1198:	000d0c0e 			@ <UNDEFINED> instruction: 000d0c0e
    119c:	00000028 			@ <UNDEFINED> instruction: 00000028
    11a0:	0000118c 			@ <UNDEFINED> instruction: 0000118c
    11a4:	080048c8 			@ <UNDEFINED> instruction: 080048c8
    11a8:	0000005c 			@ <UNDEFINED> instruction: 0000005c
    11ac:	84180e42 			@ <UNDEFINED> instruction: 84180e42
    11b0:	86058506 			@ <UNDEFINED> instruction: 86058506
    11b4:	88038704 			@ <UNDEFINED> instruction: 88038704
    11b8:	46018e02 			@ <UNDEFINED> instruction: 46018e02
    11bc:	c7c8ce0a 			@ <UNDEFINED> instruction: c7c8ce0a
    11c0:	0ec4c5c6 			@ <UNDEFINED> instruction: 0ec4c5c6
    11c4:	000b4300 			@ <UNDEFINED> instruction: 000b4300
    11c8:	0000000c 			@ <UNDEFINED> instruction: 0000000c
    11cc:	ffffffff 			@ <UNDEFINED> instruction: ffffffff
    11d0:	7c020001 			@ <UNDEFINED> instruction: 7c020001
    11d4:	000d0c0e 			@ <UNDEFINED> instruction: 000d0c0e
    11d8:	00000018 			@ <UNDEFINED> instruction: 00000018
    11dc:	000011c8 			@ <UNDEFINED> instruction: 000011c8
    11e0:	08004924 			@ <UNDEFINED> instruction: 08004924
    11e4:	00000010 			@ <UNDEFINED> instruction: 00000010
    11e8:	84040e41 			@ <UNDEFINED> instruction: 84040e41
    11ec:	0ec44401 			@ <UNDEFINED> instruction: 0ec44401
    11f0:	00000000 			@ <UNDEFINED> instruction: 00000000
    11f4:	0000000c 			@ <UNDEFINED> instruction: 0000000c
    11f8:	000011c8 			@ <UNDEFINED> instruction: 000011c8
    11fc:	08004934 			@ <UNDEFINED> instruction: 08004934
    1200:	0000001a 			@ <UNDEFINED> instruction: 0000001a
    1204:	0000000c 			@ <UNDEFINED> instruction: 0000000c
    1208:	ffffffff 			@ <UNDEFINED> instruction: ffffffff
    120c:	7c020001 			@ <UNDEFINED> instruction: 7c020001
    1210:	000d0c0e 			@ <UNDEFINED> instruction: 000d0c0e
    1214:	00000024 			@ <UNDEFINED> instruction: 00000024
    1218:	00001204 			@ <UNDEFINED> instruction: 00001204
    121c:	0800494e 			@ <UNDEFINED> instruction: 0800494e
    1220:	0000001a 			@ <UNDEFINED> instruction: 0000001a
    1224:	82080e41 			@ <UNDEFINED> instruction: 82080e41
    1228:	41018302 			@ <UNDEFINED> instruction: 41018302
    122c:	038e180e 			@ <UNDEFINED> instruction: 038e180e
    1230:	420c0e47 			@ <UNDEFINED> instruction: 420c0e47
    1234:	41080ece 	smlabtmi	r8, lr, lr, r0
    1238:	000ec2c3 			@ <UNDEFINED> instruction: 000ec2c3
    123c:	00000028 			@ <UNDEFINED> instruction: 00000028
    1240:	00001204 			@ <UNDEFINED> instruction: 00001204
    1244:	08004968 			@ <UNDEFINED> instruction: 08004968
    1248:	00000024 			@ <UNDEFINED> instruction: 00000024
    124c:	810c0e41 			@ <UNDEFINED> instruction: 810c0e41
    1250:	83028203 	movwhi	r8, #8707	@ 0x2203
    1254:	180e4101 			@ <UNDEFINED> instruction: 180e4101
    1258:	0e4a048e 			@ <UNDEFINED> instruction: 0e4a048e
    125c:	0ece4210 			@ <UNDEFINED> instruction: 0ece4210
    1260:	c2c3410c 			@ <UNDEFINED> instruction: c2c3410c
    1264:	00000ec1 			@ <UNDEFINED> instruction: 00000ec1
    1268:	0000000c 			@ <UNDEFINED> instruction: 0000000c
    126c:	ffffffff 			@ <UNDEFINED> instruction: ffffffff
    1270:	7c020001 			@ <UNDEFINED> instruction: 7c020001
    1274:	000d0c0e 			@ <UNDEFINED> instruction: 000d0c0e
    1278:	00000014 			@ <UNDEFINED> instruction: 00000014
    127c:	00001268 			@ <UNDEFINED> instruction: 00001268
    1280:	0800498c 			@ <UNDEFINED> instruction: 0800498c
    1284:	0000000e 			@ <UNDEFINED> instruction: 0000000e
    1288:	83080e41 	movwhi	r0, #36417	@ 0x8e41
    128c:	00018e02 			@ <UNDEFINED> instruction: 00018e02
    1290:	0000000c 			@ <UNDEFINED> instruction: 0000000c
    1294:	ffffffff 			@ <UNDEFINED> instruction: ffffffff
    1298:	7c020001 			@ <UNDEFINED> instruction: 7c020001
    129c:	000d0c0e 			@ <UNDEFINED> instruction: 000d0c0e
    12a0:	0000000c 			@ <UNDEFINED> instruction: 0000000c
    12a4:	00001290 			@ <UNDEFINED> instruction: 00001290
    12a8:	0800499a 			@ <UNDEFINED> instruction: 0800499a
    12ac:	00000010 			@ <UNDEFINED> instruction: 00000010
    12b0:	0000000c 			@ <UNDEFINED> instruction: 0000000c
    12b4:	ffffffff 			@ <UNDEFINED> instruction: ffffffff
    12b8:	7c020001 			@ <UNDEFINED> instruction: 7c020001
    12bc:	000d0c0e 			@ <UNDEFINED> instruction: 000d0c0e
    12c0:	00000018 			@ <UNDEFINED> instruction: 00000018
    12c4:	000012b0 			@ <UNDEFINED> instruction: 000012b0
    12c8:	080049aa 			@ <UNDEFINED> instruction: 080049aa
    12cc:	00000028 			@ <UNDEFINED> instruction: 00000028
    12d0:	83100e41 			@ <UNDEFINED> instruction: 83100e41
    12d4:	85038404 			@ <UNDEFINED> instruction: 85038404
    12d8:	00018e02 			@ <UNDEFINED> instruction: 00018e02
    12dc:	00000018 			@ <UNDEFINED> instruction: 00000018
    12e0:	000012b0 			@ <UNDEFINED> instruction: 000012b0
    12e4:	080049d2 			@ <UNDEFINED> instruction: 080049d2
    12e8:	00000030 			@ <UNDEFINED> instruction: 00000030
    12ec:	84100e42 			@ <UNDEFINED> instruction: 84100e42
    12f0:	86038504 			@ <UNDEFINED> instruction: 86038504
    12f4:	00018e02 			@ <UNDEFINED> instruction: 00018e02
    12f8:	00000024 			@ <UNDEFINED> instruction: 00000024
    12fc:	000012b0 			@ <UNDEFINED> instruction: 000012b0
    1300:	08004a02 			@ <UNDEFINED> instruction: 08004a02
    1304:	00000050 			@ <UNDEFINED> instruction: 00000050
    1308:	83100e42 			@ <UNDEFINED> instruction: 83100e42
    130c:	85038404 			@ <UNDEFINED> instruction: 85038404
    1310:	55018e02 			@ <UNDEFINED> instruction: 55018e02
    1314:	c4c5ce0a 			@ <UNDEFINED> instruction: c4c5ce0a
    1318:	42000ec3 			@ <UNDEFINED> instruction: 42000ec3
    131c:	0000000b 			@ <UNDEFINED> instruction: 0000000b
    1320:	00000018 			@ <UNDEFINED> instruction: 00000018
    1324:	000012b0 			@ <UNDEFINED> instruction: 000012b0
    1328:	08004a52 			@ <UNDEFINED> instruction: 08004a52
    132c:	00000048 			@ <UNDEFINED> instruction: 00000048
    1330:	83100e42 			@ <UNDEFINED> instruction: 83100e42
    1334:	85038404 			@ <UNDEFINED> instruction: 85038404
    1338:	00018e02 			@ <UNDEFINED> instruction: 00018e02
    133c:	0000000c 			@ <UNDEFINED> instruction: 0000000c
    1340:	000012b0 			@ <UNDEFINED> instruction: 000012b0
    1344:	08004a9c 			@ <UNDEFINED> instruction: 08004a9c
    1348:	00000010 			@ <UNDEFINED> instruction: 00000010
    134c:	0000000c 			@ <UNDEFINED> instruction: 0000000c
    1350:	000012b0 			@ <UNDEFINED> instruction: 000012b0
    1354:	08004aac 			@ <UNDEFINED> instruction: 08004aac
    1358:	00000010 			@ <UNDEFINED> instruction: 00000010
    135c:	0000000c 			@ <UNDEFINED> instruction: 0000000c
    1360:	000012b0 			@ <UNDEFINED> instruction: 000012b0
    1364:	08004abc 			@ <UNDEFINED> instruction: 08004abc
    1368:	0000000c 			@ <UNDEFINED> instruction: 0000000c
    136c:	0000000c 			@ <UNDEFINED> instruction: 0000000c
    1370:	000012b0 			@ <UNDEFINED> instruction: 000012b0
    1374:	08004ac8 			@ <UNDEFINED> instruction: 08004ac8
    1378:	00000010 			@ <UNDEFINED> instruction: 00000010
    137c:	0000000c 			@ <UNDEFINED> instruction: 0000000c
    1380:	ffffffff 			@ <UNDEFINED> instruction: ffffffff
    1384:	7c020001 			@ <UNDEFINED> instruction: 7c020001
    1388:	000d0c0e 			@ <UNDEFINED> instruction: 000d0c0e
    138c:	00000018 			@ <UNDEFINED> instruction: 00000018
    1390:	0000137c 			@ <UNDEFINED> instruction: 0000137c
    1394:	08004ad8 			@ <UNDEFINED> instruction: 08004ad8
    1398:	00000024 			@ <UNDEFINED> instruction: 00000024
    139c:	83100e41 			@ <UNDEFINED> instruction: 83100e41
    13a0:	85038404 			@ <UNDEFINED> instruction: 85038404
    13a4:	00018e02 			@ <UNDEFINED> instruction: 00018e02
    13a8:	0000000c 			@ <UNDEFINED> instruction: 0000000c
    13ac:	0000137c 			@ <UNDEFINED> instruction: 0000137c
    13b0:	08004afc 			@ <UNDEFINED> instruction: 08004afc
    13b4:	00000004 			@ <UNDEFINED> instruction: 00000004
    13b8:	0000000c 			@ <UNDEFINED> instruction: 0000000c
    13bc:	ffffffff 			@ <UNDEFINED> instruction: ffffffff
    13c0:	7c020001 			@ <UNDEFINED> instruction: 7c020001
    13c4:	000d0c0e 			@ <UNDEFINED> instruction: 000d0c0e
    13c8:	0000001c 			@ <UNDEFINED> instruction: 0000001c
    13cc:	000013b8 			@ <UNDEFINED> instruction: 000013b8
    13d0:	08000764 			@ <UNDEFINED> instruction: 08000764
    13d4:	00000254 			@ <UNDEFINED> instruction: 00000254
    13d8:	100e410a 			@ <UNDEFINED> instruction: 100e410a
    13dc:	03850484 			@ <UNDEFINED> instruction: 03850484
    13e0:	018e0286 			@ <UNDEFINED> instruction: 018e0286
    13e4:	0b012903 			@ <UNDEFINED> instruction: 0b012903
    13e8:	0000000c 			@ <UNDEFINED> instruction: 0000000c
    13ec:	ffffffff 			@ <UNDEFINED> instruction: ffffffff
    13f0:	7c020001 			@ <UNDEFINED> instruction: 7c020001
    13f4:	000d0c0e 			@ <UNDEFINED> instruction: 000d0c0e
    13f8:	0000001c 			@ <UNDEFINED> instruction: 0000001c
    13fc:	000013e8 			@ <UNDEFINED> instruction: 000013e8
    1400:	080009b8 			@ <UNDEFINED> instruction: 080009b8
    1404:	00000282 			@ <UNDEFINED> instruction: 00000282
    1408:	0c0e470a 			@ <UNDEFINED> instruction: 0c0e470a
    140c:	02850384 			@ <UNDEFINED> instruction: 02850384
    1410:	3a03018e 			@ <UNDEFINED> instruction: 3a03018e
    1414:	00000b01 			@ <UNDEFINED> instruction: 00000b01
    1418:	00000018 			@ <UNDEFINED> instruction: 00000018
    141c:	000013e8 			@ <UNDEFINED> instruction: 000013e8
    1420:	08000c3c 			@ <UNDEFINED> instruction: 08000c3c
    1424:	0000001e 			@ <UNDEFINED> instruction: 0000001e
    1428:	0c0e460a 			@ <UNDEFINED> instruction: 0c0e460a
    142c:	02850384 			@ <UNDEFINED> instruction: 02850384
    1430:	0b49018e 			@ <UNDEFINED> instruction: 0b49018e
    1434:	00000018 			@ <UNDEFINED> instruction: 00000018
    1438:	000013e8 			@ <UNDEFINED> instruction: 000013e8
    143c:	08000c5c 			@ <UNDEFINED> instruction: 08000c5c
    1440:	00000022 			@ <UNDEFINED> instruction: 00000022
    1444:	0c0e460a 			@ <UNDEFINED> instruction: 0c0e460a
    1448:	02850384 			@ <UNDEFINED> instruction: 02850384
    144c:	0b4b018e 			@ <UNDEFINED> instruction: 0b4b018e
    1450:	00000018 			@ <UNDEFINED> instruction: 00000018
    1454:	000013e8 			@ <UNDEFINED> instruction: 000013e8
    1458:	08000c80 			@ <UNDEFINED> instruction: 08000c80
    145c:	00000042 			@ <UNDEFINED> instruction: 00000042
    1460:	0c0e5a0a 			@ <UNDEFINED> instruction: 0c0e5a0a
    1464:	02850384 			@ <UNDEFINED> instruction: 02850384
    1468:	0b47018e 			@ <UNDEFINED> instruction: 0b47018e
    146c:	00000024 			@ <UNDEFINED> instruction: 00000024
    1470:	000013e8 			@ <UNDEFINED> instruction: 000013e8
    1474:	08000cc4 			@ <UNDEFINED> instruction: 08000cc4
    1478:	0000006a 			@ <UNDEFINED> instruction: 0000006a
    147c:	0e450a0a 	vmlaeq.f32	s1, s10, s20
    1480:	8503840c 			@ <UNDEFINED> instruction: 8503840c
    1484:	43018e02 	movwmi	r8, #7682	@ 0x1e02
    1488:	0c0e450b 			@ <UNDEFINED> instruction: 0c0e450b
    148c:	02850384 			@ <UNDEFINED> instruction: 02850384
    1490:	0b68018e 			@ <UNDEFINED> instruction: 0b68018e
    1494:	0000000c 			@ <UNDEFINED> instruction: 0000000c
    1498:	ffffffff 			@ <UNDEFINED> instruction: ffffffff
    149c:	7c020001 			@ <UNDEFINED> instruction: 7c020001
    14a0:	000d0c0e 			@ <UNDEFINED> instruction: 000d0c0e
    14a4:	0000001c 			@ <UNDEFINED> instruction: 0000001c
    14a8:	00001494 			@ <UNDEFINED> instruction: 00001494
    14ac:	08000d30 			@ <UNDEFINED> instruction: 08000d30
    14b0:	00000254 			@ <UNDEFINED> instruction: 00000254
    14b4:	100e410a 			@ <UNDEFINED> instruction: 100e410a
    14b8:	03850484 			@ <UNDEFINED> instruction: 03850484
    14bc:	018e0286 			@ <UNDEFINED> instruction: 018e0286
    14c0:	0b012903 			@ <UNDEFINED> instruction: 0b012903
    14c4:	0000001c 			@ <UNDEFINED> instruction: 0000001c
    14c8:	00001494 			@ <UNDEFINED> instruction: 00001494
    14cc:	08000f84 			@ <UNDEFINED> instruction: 08000f84
    14d0:	000001d0 	ldrdeq	r0, [r0], -r0	@ <UNPREDICTABLE>
    14d4:	100e410a 			@ <UNDEFINED> instruction: 100e410a
    14d8:	03850484 			@ <UNDEFINED> instruction: 03850484
    14dc:	018e0286 			@ <UNDEFINED> instruction: 018e0286
    14e0:	000be702 			@ <UNDEFINED> instruction: 000be702
    14e4:	0000000c 			@ <UNDEFINED> instruction: 0000000c
    14e8:	ffffffff 			@ <UNDEFINED> instruction: ffffffff
    14ec:	7c020001 			@ <UNDEFINED> instruction: 7c020001
    14f0:	000d0c0e 			@ <UNDEFINED> instruction: 000d0c0e
    14f4:	0000001c 			@ <UNDEFINED> instruction: 0000001c
    14f8:	000014e4 			@ <UNDEFINED> instruction: 000014e4
    14fc:	08001154 			@ <UNDEFINED> instruction: 08001154
    1500:	0000008a 			@ <UNDEFINED> instruction: 0000008a
    1504:	040e4c0a 			@ <UNDEFINED> instruction: 040e4c0a
    1508:	0e410a4a 	vmlseq.f32	s1, s2, s20
    150c:	520b5b00 			@ <UNDEFINED> instruction: 520b5b00
    1510:	0b41000e 			@ <UNDEFINED> instruction: 0b41000e
    1514:	00000018 			@ <UNDEFINED> instruction: 00000018
    1518:	000014e4 			@ <UNDEFINED> instruction: 000014e4
    151c:	080011e0 			@ <UNDEFINED> instruction: 080011e0
    1520:	00000020 			@ <UNDEFINED> instruction: 00000020
    1524:	080e490a 			@ <UNDEFINED> instruction: 080e490a
    1528:	018e0280 			@ <UNDEFINED> instruction: 018e0280
    152c:	00000b47 			@ <UNDEFINED> instruction: 00000b47
    1530:	00000014 			@ <UNDEFINED> instruction: 00000014
    1534:	000014e4 			@ <UNDEFINED> instruction: 000014e4
    1538:	08001200 			@ <UNDEFINED> instruction: 08001200
    153c:	00000012 			@ <UNDEFINED> instruction: 00000012
    1540:	080e420a 			@ <UNDEFINED> instruction: 080e420a
    1544:	0b47028e 			@ <UNDEFINED> instruction: 0b47028e
    1548:	00000014 			@ <UNDEFINED> instruction: 00000014
    154c:	000014e4 			@ <UNDEFINED> instruction: 000014e4
    1550:	08001214 			@ <UNDEFINED> instruction: 08001214
    1554:	00000012 			@ <UNDEFINED> instruction: 00000012
    1558:	080e420a 			@ <UNDEFINED> instruction: 080e420a
    155c:	0b47028e 			@ <UNDEFINED> instruction: 0b47028e
    1560:	00000014 			@ <UNDEFINED> instruction: 00000014
    1564:	000014e4 			@ <UNDEFINED> instruction: 000014e4
    1568:	08001228 			@ <UNDEFINED> instruction: 08001228
    156c:	00000012 			@ <UNDEFINED> instruction: 00000012
    1570:	080e420a 			@ <UNDEFINED> instruction: 080e420a
    1574:	0b47028e 			@ <UNDEFINED> instruction: 0b47028e
    1578:	00000014 			@ <UNDEFINED> instruction: 00000014
    157c:	000014e4 			@ <UNDEFINED> instruction: 000014e4
    1580:	0800123c 			@ <UNDEFINED> instruction: 0800123c
    1584:	00000012 			@ <UNDEFINED> instruction: 00000012
    1588:	080e420a 			@ <UNDEFINED> instruction: 080e420a
    158c:	0b47028e 			@ <UNDEFINED> instruction: 0b47028e
    1590:	00000014 			@ <UNDEFINED> instruction: 00000014
    1594:	000014e4 			@ <UNDEFINED> instruction: 000014e4
    1598:	08001250 			@ <UNDEFINED> instruction: 08001250
    159c:	00000012 			@ <UNDEFINED> instruction: 00000012
    15a0:	080e420a 			@ <UNDEFINED> instruction: 080e420a
    15a4:	0b47028e 			@ <UNDEFINED> instruction: 0b47028e
    15a8:	0000000c 			@ <UNDEFINED> instruction: 0000000c
    15ac:	ffffffff 			@ <UNDEFINED> instruction: ffffffff
    15b0:	7c020001 			@ <UNDEFINED> instruction: 7c020001
    15b4:	000d0c0e 			@ <UNDEFINED> instruction: 000d0c0e
    15b8:	0000000c 			@ <UNDEFINED> instruction: 0000000c
    15bc:	000015a8 			@ <UNDEFINED> instruction: 000015a8
    15c0:	08001264 			@ <UNDEFINED> instruction: 08001264
    15c4:	0000002c 			@ <UNDEFINED> instruction: 0000002c
    15c8:	0000000c 			@ <UNDEFINED> instruction: 0000000c
    15cc:	ffffffff 			@ <UNDEFINED> instruction: ffffffff
    15d0:	7c020001 			@ <UNDEFINED> instruction: 7c020001
    15d4:	000d0c0e 			@ <UNDEFINED> instruction: 000d0c0e
    15d8:	00000010 			@ <UNDEFINED> instruction: 00000010
    15dc:	000015c8 			@ <UNDEFINED> instruction: 000015c8
    15e0:	08001290 			@ <UNDEFINED> instruction: 08001290
    15e4:	0000004e 			@ <UNDEFINED> instruction: 0000004e
    15e8:	000b670a 			@ <UNDEFINED> instruction: 000b670a
    15ec:	0000000c 			@ <UNDEFINED> instruction: 0000000c
    15f0:	ffffffff 			@ <UNDEFINED> instruction: ffffffff
    15f4:	7c020001 			@ <UNDEFINED> instruction: 7c020001
    15f8:	000d0c0e 			@ <UNDEFINED> instruction: 000d0c0e
    15fc:	0000000c 			@ <UNDEFINED> instruction: 0000000c
    1600:	000015ec 			@ <UNDEFINED> instruction: 000015ec
    1604:	08004b00 			@ <UNDEFINED> instruction: 08004b00
    1608:	00000002 			@ <UNDEFINED> instruction: 00000002

Disassembly of section .debug_loclists:

00000000 <.debug_loclists>:
   0:	00000044 			@ <UNDEFINED> instruction: 00000044
   4:	00040005 			@ <UNDEFINED> instruction: 00040005
	...
  10:	0001d806 			@ <UNDEFINED> instruction: 0001d806
  14:	11000408 			@ <UNDEFINED> instruction: 11000408
  18:	1c045201 			@ <UNDEFINED> instruction: 1c045201
  1c:	00761a1e 			@ <UNDEFINED> instruction: 00761a1e
  20:	a81c0070 			@ <UNDEFINED> instruction: a81c0070
  24:	a426a82d 			@ <UNDEFINED> instruction: a426a82d
  28:	e2a50826 			@ <UNDEFINED> instruction: e2a50826
  2c:	d867c3ec 			@ <UNDEFINED> instruction: d867c3ec
  30:	a81e3f15 			@ <UNDEFINED> instruction: a81e3f15
  34:	9f00a834 			@ <UNDEFINED> instruction: 9f00a834
  38:	08000300 			@ <UNDEFINED> instruction: 08000300
  3c:	08000178 			@ <UNDEFINED> instruction: 08000178
  40:	e1080532 			@ <UNDEFINED> instruction: e1080532
  44:	009f2439 			@ <UNDEFINED> instruction: 009f2439
  48:	0000014c 			@ <UNDEFINED> instruction: 0000014c
  4c:	00040005 			@ <UNDEFINED> instruction: 00040005
	...
  58:	017d7804 			@ <UNDEFINED> instruction: 017d7804
  5c:	887d0450 			@ <UNDEFINED> instruction: 887d0450
  60:	03a30a01 			@ <UNDEFINED> instruction: 03a30a01
  64:	a82600a5 			@ <UNDEFINED> instruction: a82600a5
  68:	9f00a82d 			@ <UNDEFINED> instruction: 9f00a82d
  6c:	00000000 			@ <UNDEFINED> instruction: 00000000
  70:	7d780400 			@ <UNDEFINED> instruction: 7d780400
  74:	7d045101 			@ <UNDEFINED> instruction: 7d045101
  78:	a30a0188 	movwge	r0, #41352	@ 0xa188
  7c:	2601a503 			@ <UNDEFINED> instruction: 2601a503
  80:	00a82da8 			@ <UNDEFINED> instruction: 00a82da8
  84:	0000009f 			@ <UNDEFINED> instruction: 0000009f
  88:	70040000 			@ <UNDEFINED> instruction: 70040000
  8c:	04500172 			@ <UNDEFINED> instruction: 04500172
  90:	a30a7472 	movwge	r7, #42098	@ 0xa472
  94:	2600a503 			@ <UNDEFINED> instruction: 2600a503
  98:	00a82da8 			@ <UNDEFINED> instruction: 00a82da8
  9c:	0000009f 			@ <UNDEFINED> instruction: 0000009f
  a0:	64040000 			@ <UNDEFINED> instruction: 64040000
  a4:	0450016c 			@ <UNDEFINED> instruction: 0450016c
  a8:	a30a6e6c 	movwge	r6, #44652	@ 0xae6c
  ac:	2600a503 			@ <UNDEFINED> instruction: 2600a503
  b0:	00a82da8 			@ <UNDEFINED> instruction: 00a82da8
  b4:	0000009f 			@ <UNDEFINED> instruction: 0000009f
  b8:	5c040000 			@ <UNDEFINED> instruction: 5c040000
  bc:	04500160 			@ <UNDEFINED> instruction: 04500160
  c0:	a30a6260 	movwge	r6, #41568	@ 0xa260
  c4:	2600a503 			@ <UNDEFINED> instruction: 2600a503
  c8:	00a82da8 			@ <UNDEFINED> instruction: 00a82da8
  cc:	0000009f 			@ <UNDEFINED> instruction: 0000009f
  d0:	58040000 			@ <UNDEFINED> instruction: 58040000
  d4:	0450015a 			@ <UNDEFINED> instruction: 0450015a
  d8:	a30a5c5a 	movwge	r5, #44122	@ 0xac5a
  dc:	2600a503 			@ <UNDEFINED> instruction: 2600a503
  e0:	00a82da8 			@ <UNDEFINED> instruction: 00a82da8
  e4:	0000009f 			@ <UNDEFINED> instruction: 0000009f
  e8:	54040000 			@ <UNDEFINED> instruction: 54040000
  ec:	04500156 			@ <UNDEFINED> instruction: 04500156
  f0:	a30a5856 	movwge	r5, #43094	@ 0xa856
  f4:	2600a503 			@ <UNDEFINED> instruction: 2600a503
  f8:	00a82da8 			@ <UNDEFINED> instruction: 00a82da8
  fc:	0000009f 			@ <UNDEFINED> instruction: 0000009f
 100:	38040000 			@ <UNDEFINED> instruction: 38040000
 104:	04500142 			@ <UNDEFINED> instruction: 04500142
 108:	a30a5242 	movwge	r5, #41538	@ 0xa242
 10c:	2600a503 			@ <UNDEFINED> instruction: 2600a503
 110:	00a82da8 			@ <UNDEFINED> instruction: 00a82da8
 114:	0000009f 			@ <UNDEFINED> instruction: 0000009f
 118:	00010100 			@ <UNDEFINED> instruction: 00010100
 11c:	38040000 			@ <UNDEFINED> instruction: 38040000
 120:	04510142 			@ <UNDEFINED> instruction: 04510142
 124:	54014242 			@ <UNDEFINED> instruction: 54014242
 128:	03464204 	movteq	r4, #25092	@ 0x6204
 12c:	049f0174 			@ <UNDEFINED> instruction: 049f0174
 130:	54014e46 			@ <UNDEFINED> instruction: 54014e46
 134:	00000000 			@ <UNDEFINED> instruction: 00000000
 138:	42380400 			@ <UNDEFINED> instruction: 42380400
 13c:	42045201 			@ <UNDEFINED> instruction: 42045201
 140:	00560152 			@ <UNDEFINED> instruction: 00560152
	...
 14c:	01100004 			@ <UNDEFINED> instruction: 01100004
 150:	12100450 			@ <UNDEFINED> instruction: 12100450
 154:	9f797003 			@ <UNDEFINED> instruction: 9f797003
 158:	0a261204 			@ <UNDEFINED> instruction: 0a261204
 15c:	00a503a3 			@ <UNDEFINED> instruction: 00a503a3
 160:	a82da826 			@ <UNDEFINED> instruction: a82da826
 164:	26049f00 			@ <UNDEFINED> instruction: 26049f00
 168:	00500138 			@ <UNDEFINED> instruction: 00500138
 16c:	0e040001 			@ <UNDEFINED> instruction: 0e040001
 170:	cc030522 			@ <UNDEFINED> instruction: cc030522
 174:	00200001 			@ <UNDEFINED> instruction: 00200001
 178:	00000000 			@ <UNDEFINED> instruction: 00000000
 17c:	01241604 			@ <UNDEFINED> instruction: 01241604
 180:	26240450 			@ <UNDEFINED> instruction: 26240450
 184:	a3007c12 	movwge	r7, #3090	@ 0xc12
 188:	2600a503 			@ <UNDEFINED> instruction: 2600a503
 18c:	00a82da8 			@ <UNDEFINED> instruction: 00a82da8
 190:	09072322 			@ <UNDEFINED> instruction: 09072322
 194:	009f1af8 			@ <UNDEFINED> instruction: 009f1af8
 198:	00000066 			@ <UNDEFINED> instruction: 00000066
 19c:	00040005 			@ <UNDEFINED> instruction: 00040005
	...
 1ac:	01261c04 			@ <UNDEFINED> instruction: 01261c04
 1b0:	322c0453 			@ <UNDEFINED> instruction: 322c0453
 1b4:	34007212 			@ <UNDEFINED> instruction: 34007212
 1b8:	031a3f25 			@ <UNDEFINED> instruction: 031a3f25
 1bc:	08004b10 			@ <UNDEFINED> instruction: 08004b10
 1c0:	08019422 			@ <UNDEFINED> instruction: 08019422
 1c4:	049f1aff 			@ <UNDEFINED> instruction: 049f1aff
 1c8:	53013c3a 	movwpl	r3, #7226	@ 0x1c3a
 1cc:	016e6c04 			@ <UNDEFINED> instruction: 016e6c04
 1d0:	00000053 			@ <UNDEFINED> instruction: 00000053
 1d4:	016a5a04 			@ <UNDEFINED> instruction: 016a5a04
 1d8:	00000053 			@ <UNDEFINED> instruction: 00000053
 1dc:	0b625e04 			@ <UNDEFINED> instruction: 0b625e04
 1e0:	25400072 			@ <UNDEFINED> instruction: 25400072
 1e4:	01231a33 			@ <UNDEFINED> instruction: 01231a33
 1e8:	009f2431 			@ <UNDEFINED> instruction: 009f2431
 1ec:	3c040000 			@ <UNDEFINED> instruction: 3c040000
 1f0:	00730744 			@ <UNDEFINED> instruction: 00730744
 1f4:	1a312546 			@ <UNDEFINED> instruction: 1a312546
 1f8:	0000009f 			@ <UNDEFINED> instruction: 0000009f
 1fc:	016c5204 			@ <UNDEFINED> instruction: 016c5204
 200:	00200051 			@ <UNDEFINED> instruction: 00200051
 204:	00050000 			@ <UNDEFINED> instruction: 00050000
 208:	00000004 			@ <UNDEFINED> instruction: 00000004
 20c:	00000000 			@ <UNDEFINED> instruction: 00000000
 210:	00040000 			@ <UNDEFINED> instruction: 00040000
 214:	04500116 			@ <UNDEFINED> instruction: 04500116
 218:	a30a2816 	movwge	r2, #43030	@ 0xa816
 21c:	2600a503 			@ <UNDEFINED> instruction: 2600a503
 220:	00a82da8 			@ <UNDEFINED> instruction: 00a82da8
 224:	0182009f 			@ <UNDEFINED> instruction: 0182009f
 228:	00050000 			@ <UNDEFINED> instruction: 00050000
 22c:	00000004 			@ <UNDEFINED> instruction: 00000004
 230:	00000000 			@ <UNDEFINED> instruction: 00000000
 234:	e804c804 			@ <UNDEFINED> instruction: e804c804
 238:	70910204 			@ <UNDEFINED> instruction: 70910204
 23c:	00000100 			@ <UNDEFINED> instruction: 00000100
 240:	00000200 			@ <UNDEFINED> instruction: 00000200
 244:	04000000 			@ <UNDEFINED> instruction: 04000000
 248:	04e604dc 			@ <UNDEFINED> instruction: 04e604dc
 24c:	7dc89104 			@ <UNDEFINED> instruction: 7dc89104
 250:	04e6049f 			@ <UNDEFINED> instruction: 04e6049f
 254:	500104e8 			@ <UNDEFINED> instruction: 500104e8
 258:	f804e804 			@ <UNDEFINED> instruction: f804e804
 25c:	01700304 			@ <UNDEFINED> instruction: 01700304
 260:	04f8049f 			@ <UNDEFINED> instruction: 04f8049f
 264:	500104fc 	strdpl	r0, [r1], -ip
 268:	94058604 			@ <UNDEFINED> instruction: 94058604
 26c:	01700305 			@ <UNDEFINED> instruction: 01700305
 270:	0002009f 			@ <UNDEFINED> instruction: 0002009f
 274:	e8040000 			@ <UNDEFINED> instruction: e8040000
 278:	0104f404 			@ <UNDEFINED> instruction: 0104f404
 27c:	05860451 			@ <UNDEFINED> instruction: 05860451
 280:	51010594 			@ <UNDEFINED> instruction: 51010594
 284:	00000000 			@ <UNDEFINED> instruction: 00000000
 288:	02900400 			@ <UNDEFINED> instruction: 02900400
 28c:	500102f3 	strdpl	r0, [r1], -r3
 290:	f402f304 	vst2.8	{d15-d18}, [r2], r4
 294:	03a30a03 			@ <UNDEFINED> instruction: 03a30a03
 298:	a82600a5 			@ <UNDEFINED> instruction: a82600a5
 29c:	9f00a82d 			@ <UNDEFINED> instruction: 9f00a82d
 2a0:	04000000 			@ <UNDEFINED> instruction: 04000000
 2a4:	03d8038e 			@ <UNDEFINED> instruction: 03d8038e
 2a8:	04935406 			@ <UNDEFINED> instruction: 04935406
 2ac:	00049355 			@ <UNDEFINED> instruction: 00049355
 2b0:	01000000 			@ <UNDEFINED> instruction: 01000000
 2b4:	00000001 			@ <UNDEFINED> instruction: 00000001
 2b8:	97039404 			@ <UNDEFINED> instruction: 97039404
 2bc:	04500103 			@ <UNDEFINED> instruction: 04500103
 2c0:	03b80397 			@ <UNDEFINED> instruction: 03b80397
 2c4:	b8045601 			@ <UNDEFINED> instruction: b8045601
 2c8:	0803be03 			@ <UNDEFINED> instruction: 0803be03
 2cc:	25340070 			@ <UNDEFINED> instruction: 25340070
 2d0:	9f220076 			@ <UNDEFINED> instruction: 9f220076
 2d4:	cc03be04 			@ <UNDEFINED> instruction: cc03be04
 2d8:	00520103 			@ <UNDEFINED> instruction: 00520103
 2dc:	00020200 			@ <UNDEFINED> instruction: 00020200
 2e0:	b8040000 			@ <UNDEFINED> instruction: b8040000
 2e4:	0103b803 			@ <UNDEFINED> instruction: 0103b803
 2e8:	03b80450 			@ <UNDEFINED> instruction: 03b80450
 2ec:	700503c2 			@ <UNDEFINED> instruction: 700503c2
 2f0:	9f1a3f00 			@ <UNDEFINED> instruction: 9f1a3f00
 2f4:	c803c204 			@ <UNDEFINED> instruction: c803c204
 2f8:	00500103 			@ <UNDEFINED> instruction: 00500103
 2fc:	00000000 			@ <UNDEFINED> instruction: 00000000
 300:	016b0004 			@ <UNDEFINED> instruction: 016b0004
 304:	ec6b0450 			@ <UNDEFINED> instruction: ec6b0450
 308:	03a30a01 			@ <UNDEFINED> instruction: 03a30a01
 30c:	a82600a5 			@ <UNDEFINED> instruction: a82600a5
 310:	9f00a82d 			@ <UNDEFINED> instruction: 9f00a82d
 314:	04000000 			@ <UNDEFINED> instruction: 04000000
 318:	01d00186 			@ <UNDEFINED> instruction: 01d00186
 31c:	04935406 			@ <UNDEFINED> instruction: 04935406
 320:	00049355 			@ <UNDEFINED> instruction: 00049355
 324:	01000000 			@ <UNDEFINED> instruction: 01000000
 328:	00000001 			@ <UNDEFINED> instruction: 00000001
 32c:	8f018c04 			@ <UNDEFINED> instruction: 8f018c04
 330:	04500101 			@ <UNDEFINED> instruction: 04500101
 334:	01b0018f 			@ <UNDEFINED> instruction: 01b0018f
 338:	b0045601 			@ <UNDEFINED> instruction: b0045601
 33c:	0801b601 			@ <UNDEFINED> instruction: 0801b601
 340:	25340070 			@ <UNDEFINED> instruction: 25340070
 344:	9f220076 			@ <UNDEFINED> instruction: 9f220076
 348:	c401b604 			@ <UNDEFINED> instruction: c401b604
 34c:	00520101 			@ <UNDEFINED> instruction: 00520101
 350:	00020200 			@ <UNDEFINED> instruction: 00020200
 354:	b0040000 			@ <UNDEFINED> instruction: b0040000
 358:	0101b001 			@ <UNDEFINED> instruction: 0101b001
 35c:	01b00450 			@ <UNDEFINED> instruction: 01b00450
 360:	700501ba 			@ <UNDEFINED> instruction: 700501ba
 364:	9f1a3f00 			@ <UNDEFINED> instruction: 9f1a3f00
 368:	c001ba04 			@ <UNDEFINED> instruction: c001ba04
 36c:	00500101 			@ <UNDEFINED> instruction: 00500101
 370:	00020000 			@ <UNDEFINED> instruction: 00020000
 374:	00000000 			@ <UNDEFINED> instruction: 00000000
 378:	a2049804 			@ <UNDEFINED> instruction: a2049804
 37c:	04500104 			@ <UNDEFINED> instruction: 04500104
 380:	04b204a2 			@ <UNDEFINED> instruction: 04b204a2
 384:	9f017003 			@ <UNDEFINED> instruction: 9f017003
 388:	b604b204 			@ <UNDEFINED> instruction: b604b204
 38c:	04500104 			@ <UNDEFINED> instruction: 04500104
 390:	04c804b8 			@ <UNDEFINED> instruction: 04c804b8
 394:	9f017003 			@ <UNDEFINED> instruction: 9f017003
 398:	00000200 			@ <UNDEFINED> instruction: 00000200
 39c:	04a20400 			@ <UNDEFINED> instruction: 04a20400
 3a0:	510104ae 	smlatbpl	r1, lr, r4, r0
 3a4:	c804b804 			@ <UNDEFINED> instruction: c804b804
 3a8:	00510104 			@ <UNDEFINED> instruction: 00510104

Disassembly of section .debug_rnglists:

00000000 <.debug_rnglists>:
   0:	0000001f 			@ <UNDEFINED> instruction: 0000001f
   4:	00040005 			@ <UNDEFINED> instruction: 00040005
   8:	00000000 			@ <UNDEFINED> instruction: 00000000
   c:	00017805 			@ <UNDEFINED> instruction: 00017805
  10:	00000408 			@ <UNDEFINED> instruction: 00000408
  14:	040c0204 			@ <UNDEFINED> instruction: 040c0204
  18:	0700320e 			@ <UNDEFINED> instruction: 0700320e
  1c:	08000178 			@ <UNDEFINED> instruction: 08000178
  20:	0f000280 			@ <UNDEFINED> instruction: 0f000280
  24:	05000000 			@ <UNDEFINED> instruction: 05000000
  28:	00000400 			@ <UNDEFINED> instruction: 00000400
  2c:	04000000 			@ <UNDEFINED> instruction: 04000000
  30:	3a043838 			@ <UNDEFINED> instruction: 3a043838
  34:	0033004e 			@ <UNDEFINED> instruction: 0033004e
  38:	00050000 			@ <UNDEFINED> instruction: 00050000
  3c:	00000004 			@ <UNDEFINED> instruction: 00000004
  40:	9c040000 			@ <UNDEFINED> instruction: 9c040000
  44:	0404a204 			@ <UNDEFINED> instruction: 0404a204
  48:	04ae04a2 			@ <UNDEFINED> instruction: 04ae04a2
  4c:	c804b804 			@ <UNDEFINED> instruction: c804b804
  50:	dc040004 			@ <UNDEFINED> instruction: dc040004
  54:	0404fc04 			@ <UNDEFINED> instruction: 0404fc04
  58:	05940586 			@ <UNDEFINED> instruction: 05940586
  5c:	04e20400 			@ <UNDEFINED> instruction: 04e20400
  60:	e80404e8 			@ <UNDEFINED> instruction: e80404e8
  64:	0404f404 			@ <UNDEFINED> instruction: 0404f404
  68:	05940586 			@ <UNDEFINED> instruction: 05940586
	...

Disassembly of section .debug_line_str:

00000000 <.debug_line_str>:
   0:	555c3a43 			@ <UNDEFINED> instruction: 555c3a43
   4:	73726573 			@ <UNDEFINED> instruction: 73726573
   8:	63636b5c 			@ <UNDEFINED> instruction: 63636b5c
   c:	63747369 			@ <UNDEFINED> instruction: 63747369
  10:	7365445c 			@ <UNDEFINED> instruction: 7365445c
  14:	706f746b 			@ <UNDEFINED> instruction: 706f746b
  18:	726f635c 			@ <UNDEFINED> instruction: 726f635c
  1c:	5f786574 			@ <UNDEFINED> instruction: 5f786574
  20:	c7c0adb0 			@ <UNDEFINED> instruction: c7c0adb0
  24:	e1b7dac0 			@ <UNDEFINED> instruction: e1b7dac0
  28:	bdc7bd5c 			@ <UNDEFINED> instruction: bdc7bd5c
  2c:	b7dac0c0 			@ <UNDEFINED> instruction: b7dac0c0
  30:	31315ce1 			@ <UNDEFINED> instruction: 31315ce1
  34:	532e3130 			@ <UNDEFINED> instruction: 532e3130
  38:	49545359 			@ <UNDEFINED> instruction: 49545359
  3c:	545f4b43 			@ <UNDEFINED> instruction: 545f4b43
  40:	52454d49 			@ <UNDEFINED> instruction: 52454d49
  44:	42414c5f 			@ <UNDEFINED> instruction: 42414c5f
  48:	74726300 			@ <UNDEFINED> instruction: 74726300
  4c:	00732e30 			@ <UNDEFINED> instruction: 00732e30
  50:	7461642f 			@ <UNDEFINED> instruction: 7461642f
  54:	656a2f61 			@ <UNDEFINED> instruction: 656a2f61
  58:	6e696b6e 	vnmulvs.f64	d22, d9, d30
  5c:	6f772f73 			@ <UNDEFINED> instruction: 6f772f73
  60:	70736b72 			@ <UNDEFINED> instruction: 70736b72
  64:	2f656361 			@ <UNDEFINED> instruction: 2f656361
  68:	2d554e47 			@ <UNDEFINED> instruction: 2d554e47
  6c:	6c6f6f74 			@ <UNDEFINED> instruction: 6c6f6f74
  70:	69616863 			@ <UNDEFINED> instruction: 69616863
  74:	72612f6e 			@ <UNDEFINED> instruction: 72612f6e
  78:	35312d6d 			@ <UNDEFINED> instruction: 35312d6d
  7c:	6975622f 			@ <UNDEFINED> instruction: 6975622f
  80:	6e2d646c 			@ <UNDEFINED> instruction: 6e2d646c
  84:	696c7765 			@ <UNDEFINED> instruction: 696c7765
  88:	72612d62 			@ <UNDEFINED> instruction: 72612d62
  8c:	6f6e2d6d 			@ <UNDEFINED> instruction: 6f6e2d6d
  90:	652d656e 			@ <UNDEFINED> instruction: 652d656e
  94:	2f696261 			@ <UNDEFINED> instruction: 2f696261
  98:	2f6a626f 			@ <UNDEFINED> instruction: 2f6a626f
  9c:	6c77656e 			@ <UNDEFINED> instruction: 6c77656e
  a0:	6e2d6269 			@ <UNDEFINED> instruction: 6e2d6269
  a4:	2f6f6e61 			@ <UNDEFINED> instruction: 2f6f6e61
  a8:	2d6d7261 			@ <UNDEFINED> instruction: 2d6d7261
  ac:	656e6f6e 			@ <UNDEFINED> instruction: 656e6f6e
  b0:	6261652d 			@ <UNDEFINED> instruction: 6261652d
  b4:	68742f69 			@ <UNDEFINED> instruction: 68742f69
  b8:	2f626d75 			@ <UNDEFINED> instruction: 2f626d75
  bc:	2d653776 			@ <UNDEFINED> instruction: 2d653776
  c0:	70662b6d 			@ <UNDEFINED> instruction: 70662b6d
  c4:	7261682f 			@ <UNDEFINED> instruction: 7261682f
  c8:	656e2f64 			@ <UNDEFINED> instruction: 656e2f64
  cc:	62696c77 			@ <UNDEFINED> instruction: 62696c77
  d0:	61642f00 			@ <UNDEFINED> instruction: 61642f00
  d4:	6a2f6174 			@ <UNDEFINED> instruction: 6a2f6174
  d8:	696b6e65 			@ <UNDEFINED> instruction: 696b6e65
  dc:	772f736e 			@ <UNDEFINED> instruction: 772f736e
  e0:	736b726f 			@ <UNDEFINED> instruction: 736b726f
  e4:	65636170 			@ <UNDEFINED> instruction: 65636170
  e8:	554e472f 			@ <UNDEFINED> instruction: 554e472f
  ec:	6f6f742d 			@ <UNDEFINED> instruction: 6f6f742d
  f0:	6168636c 			@ <UNDEFINED> instruction: 6168636c
  f4:	612f6e69 			@ <UNDEFINED> instruction: 612f6e69
  f8:	312d6d72 			@ <UNDEFINED> instruction: 312d6d72
  fc:	72732f35 			@ <UNDEFINED> instruction: 72732f35
 100:	656e2f63 			@ <UNDEFINED> instruction: 656e2f63
 104:	62696c77 			@ <UNDEFINED> instruction: 62696c77
 108:	6779632d 			@ <UNDEFINED> instruction: 6779632d
 10c:	2f6e6977 			@ <UNDEFINED> instruction: 2f6e6977
 110:	6c77656e 			@ <UNDEFINED> instruction: 6c77656e
 114:	6c2f6269 			@ <UNDEFINED> instruction: 6c2f6269
 118:	2f636269 			@ <UNDEFINED> instruction: 2f636269
 11c:	6863616d 			@ <UNDEFINED> instruction: 6863616d
 120:	2f656e69 			@ <UNDEFINED> instruction: 2f656e69
 124:	006d7261 			@ <UNDEFINED> instruction: 006d7261
 128:	636d656d 			@ <UNDEFINED> instruction: 636d656d
 12c:	532e7268 			@ <UNDEFINED> instruction: 532e7268
 130:	72747300 			@ <UNDEFINED> instruction: 72747300
 134:	2d6e656c 			@ <UNDEFINED> instruction: 2d6e656c
 138:	6d756874 			@ <UNDEFINED> instruction: 6d756874
 13c:	4f2d3262 			@ <UNDEFINED> instruction: 4f2d3262
 140:	00532e73 			@ <UNDEFINED> instruction: 00532e73
 144:	63727473 			@ <UNDEFINED> instruction: 63727473
 148:	612d706d 			@ <UNDEFINED> instruction: 612d706d
 14c:	742d6d72 			@ <UNDEFINED> instruction: 742d6d72
 150:	2e796e69 			@ <UNDEFINED> instruction: 2e796e69
 154:	642f0053 			@ <UNDEFINED> instruction: 642f0053
 158:	2f617461 			@ <UNDEFINED> instruction: 2f617461
 15c:	6b6e656a 			@ <UNDEFINED> instruction: 6b6e656a
 160:	2f736e69 			@ <UNDEFINED> instruction: 2f736e69
 164:	6b726f77 			@ <UNDEFINED> instruction: 6b726f77
 168:	63617073 			@ <UNDEFINED> instruction: 63617073
 16c:	4e472f65 			@ <UNDEFINED> instruction: 4e472f65
 170:	6f742d55 			@ <UNDEFINED> instruction: 6f742d55
 174:	68636c6f 			@ <UNDEFINED> instruction: 68636c6f
 178:	2f6e6961 			@ <UNDEFINED> instruction: 2f6e6961
 17c:	2d6d7261 			@ <UNDEFINED> instruction: 2d6d7261
 180:	622f3531 			@ <UNDEFINED> instruction: 622f3531
 184:	646c6975 			@ <UNDEFINED> instruction: 646c6975
 188:	77656e2d 			@ <UNDEFINED> instruction: 77656e2d
 18c:	2d62696c 			@ <UNDEFINED> instruction: 2d62696c
 190:	2d6d7261 			@ <UNDEFINED> instruction: 2d6d7261
 194:	656e6f6e 			@ <UNDEFINED> instruction: 656e6f6e
 198:	6261652d 			@ <UNDEFINED> instruction: 6261652d
 19c:	626f2f69 			@ <UNDEFINED> instruction: 626f2f69
 1a0:	63672f6a 			@ <UNDEFINED> instruction: 63672f6a
 1a4:	612f3263 			@ <UNDEFINED> instruction: 612f3263
 1a8:	6e2d6d72 			@ <UNDEFINED> instruction: 6e2d6d72
 1ac:	2d656e6f 			@ <UNDEFINED> instruction: 2d656e6f
 1b0:	69626165 			@ <UNDEFINED> instruction: 69626165
 1b4:	7568742f 			@ <UNDEFINED> instruction: 7568742f
 1b8:	762f626d 			@ <UNDEFINED> instruction: 762f626d
 1bc:	6d2d6537 			@ <UNDEFINED> instruction: 6d2d6537
 1c0:	2f70662b 			@ <UNDEFINED> instruction: 2f70662b
 1c4:	64726168 			@ <UNDEFINED> instruction: 64726168
 1c8:	62696c2f 			@ <UNDEFINED> instruction: 62696c2f
 1cc:	00636367 			@ <UNDEFINED> instruction: 00636367
 1d0:	7461642f 			@ <UNDEFINED> instruction: 7461642f
 1d4:	656a2f61 			@ <UNDEFINED> instruction: 656a2f61
 1d8:	6e696b6e 	vnmulvs.f64	d22, d9, d30
 1dc:	6f772f73 			@ <UNDEFINED> instruction: 6f772f73
 1e0:	70736b72 			@ <UNDEFINED> instruction: 70736b72
 1e4:	2f656361 			@ <UNDEFINED> instruction: 2f656361
 1e8:	2d554e47 			@ <UNDEFINED> instruction: 2d554e47
 1ec:	6c6f6f74 			@ <UNDEFINED> instruction: 6c6f6f74
 1f0:	69616863 			@ <UNDEFINED> instruction: 69616863
 1f4:	72612f6e 			@ <UNDEFINED> instruction: 72612f6e
 1f8:	35312d6d 			@ <UNDEFINED> instruction: 35312d6d
 1fc:	6372732f 			@ <UNDEFINED> instruction: 6372732f
 200:	6363672f 			@ <UNDEFINED> instruction: 6363672f
 204:	62696c2f 			@ <UNDEFINED> instruction: 62696c2f
 208:	2f636367 			@ <UNDEFINED> instruction: 2f636367
 20c:	666e6f63 			@ <UNDEFINED> instruction: 666e6f63
 210:	612f6769 			@ <UNDEFINED> instruction: 612f6769
 214:	69006d72 			@ <UNDEFINED> instruction: 69006d72
 218:	37656565 			@ <UNDEFINED> instruction: 37656565
 21c:	642d3435 			@ <UNDEFINED> instruction: 642d3435
 220:	00532e66 			@ <UNDEFINED> instruction: 00532e66
