
.\rom_0x08000000.elf:     file format elf32-littlearm
.\rom_0x08000000.elf
architecture: armv7e-m, flags 0x00000112:
EXEC_P, HAS_SYMS, D_PAGED
start address 0x08000000

Program Header:
0x70000001 off    0x00005b04 vaddr 0x08004b04 paddr 0x08004b04 align 2**2
         filesz 0x00000008 memsz 0x00000008 flags r--
    LOAD off    0x00001000 vaddr 0x08000000 paddr 0x08000000 align 2**12
         filesz 0x00004f20 memsz 0x00004f20 flags r-x
    LOAD off    0x00006000 vaddr 0x20000000 paddr 0x08004f20 align 2**12
         filesz 0x000001cc memsz 0x00000324 flags rw-
private flags = 0x5000400: [Version5 EABI] [hard-float ABI]

Sections:
Idx Name          Size      VMA       LMA       File off  Algn
  0 .text         000012e0  08000000  08000000  00001000  2**4
                  CONTENTS, ALLOC, LOAD, READONLY, CODE
  1 .text.__cvt   000000be  080012e0  080012e0  000022e0  2**1
                  CONTENTS, ALLOC, LOAD, READONLY, CODE
  2 .text.__exponent 00000076  0800139e  0800139e  0000239e  2**1
                  CONTENTS, ALLOC, LOAD, READONLY, CODE
  3 .text._printf_float 00000448  08001414  08001414  00002414  2**2
                  CONTENTS, ALLOC, LOAD, READONLY, CODE
  4 .text._printf_common 000000ea  0800185c  0800185c  0000285c  2**1
                  CONTENTS, ALLOC, LOAD, READONLY, CODE
  5 .text._printf_i 00000254  08001948  08001948  00002948  2**2
                  CONTENTS, ALLOC, LOAD, READONLY, CODE
  6 .text._printf_r 0000001c  08001b9c  08001b9c  00002b9c  2**1
                  CONTENTS, ALLOC, LOAD, READONLY, CODE
  7 .text.printf  00000024  08001bb8  08001bb8  00002bb8  2**2
                  CONTENTS, ALLOC, LOAD, READONLY, CODE
  8 .text.setvbuf 00000168  08001bdc  08001bdc  00002bdc  2**2
                  CONTENTS, ALLOC, LOAD, READONLY, CODE
  9 .text._vsprintf_r 0000002c  08001d44  08001d44  00002d44  2**2
                  CONTENTS, ALLOC, LOAD, READONLY, CODE
 10 .text.vsprintf 00000014  08001d70  08001d70  00002d70  2**2
                  CONTENTS, ALLOC, LOAD, READONLY, CODE
 11 .text.__localeconv_l 00000004  08001d84  08001d84  00002d84  2**1
                  CONTENTS, ALLOC, LOAD, READONLY, CODE
 12 .text._localeconv_r 00000008  08001d88  08001d88  00002d88  2**2
                  CONTENTS, ALLOC, LOAD, READONLY, CODE
 13 .text.localeconv 00000008  08001d90  08001d90  00002d90  2**2
                  CONTENTS, ALLOC, LOAD, READONLY, CODE
 14 .text.__errno 0000000c  08001d98  08001d98  00002d98  2**2
                  CONTENTS, ALLOC, LOAD, READONLY, CODE
 15 .text.__retarget_lock_init 00000002  08001da4  08001da4  00002da4  2**1
                  CONTENTS, ALLOC, LOAD, READONLY, CODE
 16 .text.__retarget_lock_init_recursive 00000002  08001da6  08001da6  00002da6  2**1
                  CONTENTS, ALLOC, LOAD, READONLY, CODE
 17 .text.__retarget_lock_close 00000002  08001da8  08001da8  00002da8  2**1
                  CONTENTS, ALLOC, LOAD, READONLY, CODE
 18 .text.__retarget_lock_close_recursive 00000002  08001daa  08001daa  00002daa  2**1
                  CONTENTS, ALLOC, LOAD, READONLY, CODE
 19 .text.__retarget_lock_acquire 00000002  08001dac  08001dac  00002dac  2**1
                  CONTENTS, ALLOC, LOAD, READONLY, CODE
 20 .text.__retarget_lock_acquire_recursive 00000002  08001dae  08001dae  00002dae  2**1
                  CONTENTS, ALLOC, LOAD, READONLY, CODE
 21 .text.__retarget_lock_try_acquire 00000004  08001db0  08001db0  00002db0  2**1
                  CONTENTS, ALLOC, LOAD, READONLY, CODE
 22 .text.__retarget_lock_try_acquire_recursive 00000004  08001db4  08001db4  00002db4  2**1
                  CONTENTS, ALLOC, LOAD, READONLY, CODE
 23 .text.__retarget_lock_release 00000002  08001db8  08001db8  00002db8  2**1
                  CONTENTS, ALLOC, LOAD, READONLY, CODE
 24 .text.__retarget_lock_release_recursive 00000002  08001dba  08001dba  00002dba  2**1
                  CONTENTS, ALLOC, LOAD, READONLY, CODE
 25 .text.quorem  00000110  08001dbc  08001dbc  00002dbc  2**1
                  CONTENTS, ALLOC, LOAD, READONLY, CODE
 26 .text._dtoa_r 00000bac  08001ed0  08001ed0  00002ed0  2**3
                  CONTENTS, ALLOC, LOAD, READONLY, CODE
 27 .text._free_r 00000098  08002a7c  08002a7c  00003a7c  2**2
                  CONTENTS, ALLOC, LOAD, READONLY, CODE
 28 .text.malloc  00000010  08002b14  08002b14  00003b14  2**2
                  CONTENTS, ALLOC, LOAD, READONLY, CODE
 29 .text.free    00000010  08002b24  08002b24  00003b24  2**2
                  CONTENTS, ALLOC, LOAD, READONLY, CODE
 30 .text.sbrk_aligned 00000044  08002b34  08002b34  00003b34  2**2
                  CONTENTS, ALLOC, LOAD, READONLY, CODE
 31 .text._malloc_r 000000f8  08002b78  08002b78  00003b78  2**2
                  CONTENTS, ALLOC, LOAD, READONLY, CODE
 32 .text.__malloc_lock 0000000c  08002c70  08002c70  00003c70  2**2
                  CONTENTS, ALLOC, LOAD, READONLY, CODE
 33 .text.__malloc_unlock 0000000c  08002c7c  08002c7c  00003c7c  2**2
                  CONTENTS, ALLOC, LOAD, READONLY, CODE
 34 .text._Balloc 0000007c  08002c88  08002c88  00003c88  2**2
                  CONTENTS, ALLOC, LOAD, READONLY, CODE
 35 .text._Bfree  00000044  08002d04  08002d04  00003d04  2**2
                  CONTENTS, ALLOC, LOAD, READONLY, CODE
 36 .text.__multadd 0000008c  08002d48  08002d48  00003d48  2**2
                  CONTENTS, ALLOC, LOAD, READONLY, CODE
 37 .text.__s2b   00000094  08002dd4  08002dd4  00003dd4  2**2
                  CONTENTS, ALLOC, LOAD, READONLY, CODE
 38 .text.__hi0bits 0000003c  08002e68  08002e68  00003e68  2**1
                  CONTENTS, ALLOC, LOAD, READONLY, CODE
 39 .text.__lo0bits 0000005c  08002ea4  08002ea4  00003ea4  2**1
                  CONTENTS, ALLOC, LOAD, READONLY, CODE
 40 .text.__i2b   0000002c  08002f00  08002f00  00003f00  2**2
                  CONTENTS, ALLOC, LOAD, READONLY, CODE
 41 .text.__multiply 0000016c  08002f2c  08002f2c  00003f2c  2**2
                  CONTENTS, ALLOC, LOAD, READONLY, CODE
 42 .text.__pow5mult 000000b8  08003098  08003098  00004098  2**2
                  CONTENTS, ALLOC, LOAD, READONLY, CODE
 43 .text.__lshift 000000e4  08003150  08003150  00004150  2**2
                  CONTENTS, ALLOC, LOAD, READONLY, CODE
 44 .text.__mcmp  00000036  08003234  08003234  00004234  2**1
                  CONTENTS, ALLOC, LOAD, READONLY, CODE
 45 .text.__mdiff 00000130  0800326c  0800326c  0000426c  2**2
                  CONTENTS, ALLOC, LOAD, READONLY, CODE
 46 .text.__ulp   0000004c  0800339c  0800339c  0000439c  2**2
                  CONTENTS, ALLOC, LOAD, READONLY, CODE
 47 .text.__b2d   00000092  080033e8  080033e8  000043e8  2**1
                  CONTENTS, ALLOC, LOAD, READONLY, CODE
 48 .text.__d2b   000000b0  0800347c  0800347c  0000447c  2**2
                  CONTENTS, ALLOC, LOAD, READONLY, CODE
 49 .text.__ratio 00000062  0800352c  0800352c  0000452c  2**1
                  CONTENTS, ALLOC, LOAD, READONLY, CODE
 50 .text._mprec_log10 0000003c  08003590  08003590  00004590  2**2
                  CONTENTS, ALLOC, LOAD, READONLY, CODE
 51 .text.__copybits 00000046  080035cc  080035cc  000045cc  2**1
                  CONTENTS, ALLOC, LOAD, READONLY, CODE
 52 .text.__any_on 00000042  08003612  08003612  00004612  2**1
                  CONTENTS, ALLOC, LOAD, READONLY, CODE
 53 .text.__ssputs_r 000000c0  08003654  08003654  00004654  2**1
                  CONTENTS, ALLOC, LOAD, READONLY, CODE
 54 .text.__ssprint_r 000000f4  08003714  08003714  00004714  2**1
                  CONTENTS, ALLOC, LOAD, READONLY, CODE
 55 .text._svfprintf_r 000001f0  08003808  08003808  00004808  2**2
                  CONTENTS, ALLOC, LOAD, READONLY, CODE
 56 .text.__sfputc_r 0000002a  080039f8  080039f8  000049f8  2**1
                  CONTENTS, ALLOC, LOAD, READONLY, CODE
 57 .text.__sfputs_r 00000024  08003a22  08003a22  00004a22  2**1
                  CONTENTS, ALLOC, LOAD, READONLY, CODE
 58 .text.__sprint_r 0000001a  08003a46  08003a46  00004a46  2**1
                  CONTENTS, ALLOC, LOAD, READONLY, CODE
 59 .text._vfprintf_r 00000228  08003a60  08003a60  00004a60  2**2
                  CONTENTS, ALLOC, LOAD, READONLY, CODE
 60 .text.vfprintf 00000014  08003c88  08003c88  00004c88  2**2
                  CONTENTS, ALLOC, LOAD, READONLY, CODE
 61 .text.__sflush_r 00000100  08003c9c  08003c9c  00004c9c  2**2
                  CONTENTS, ALLOC, LOAD, READONLY, CODE
 62 .text._fflush_r 00000050  08003d9c  08003d9c  00004d9c  2**1
                  CONTENTS, ALLOC, LOAD, READONLY, CODE
 63 .text.fflush  00000028  08003dec  08003dec  00004dec  2**2
                  CONTENTS, ALLOC, LOAD, READONLY, CODE
 64 .text.std     0000006c  08003e14  08003e14  00004e14  2**2
                  CONTENTS, ALLOC, LOAD, READONLY, CODE
 65 .text.stdio_exit_handler 00000018  08003e80  08003e80  00004e80  2**2
                  CONTENTS, ALLOC, LOAD, READONLY, CODE
 66 .text.cleanup_stdio 00000040  08003e98  08003e98  00004e98  2**2
                  CONTENTS, ALLOC, LOAD, READONLY, CODE
 67 .text.__fp_lock 00000018  08003ed8  08003ed8  00004ed8  2**1
                  CONTENTS, ALLOC, LOAD, READONLY, CODE
 68 .text.__fp_unlock 00000018  08003ef0  08003ef0  00004ef0  2**1
                  CONTENTS, ALLOC, LOAD, READONLY, CODE
 69 .text.global_stdio_init.part.0 00000040  08003f08  08003f08  00004f08  2**2
                  CONTENTS, ALLOC, LOAD, READONLY, CODE
 70 .text.__sfp_lock_acquire 0000000c  08003f48  08003f48  00004f48  2**2
                  CONTENTS, ALLOC, LOAD, READONLY, CODE
 71 .text.__sfp_lock_release 0000000c  08003f54  08003f54  00004f54  2**2
                  CONTENTS, ALLOC, LOAD, READONLY, CODE
 72 .text.__sfp   000000a4  08003f60  08003f60  00004f60  2**2
                  CONTENTS, ALLOC, LOAD, READONLY, CODE
 73 .text.__sinit 00000030  08004004  08004004  00005004  2**2
                  CONTENTS, ALLOC, LOAD, READONLY, CODE
 74 .text.__fp_lock_all 0000001c  08004034  08004034  00005034  2**2
                  CONTENTS, ALLOC, LOAD, READONLY, CODE
 75 .text.__fp_unlock_all 0000001c  08004050  08004050  00005050  2**2
                  CONTENTS, ALLOC, LOAD, READONLY, CODE
 76 .text.__sfvwrite_r 000002a0  0800406c  0800406c  0000506c  2**2
                  CONTENTS, ALLOC, LOAD, READONLY, CODE
 77 .text._fwalk_sglue 0000003a  0800430c  0800430c  0000530c  2**1
                  CONTENTS, ALLOC, LOAD, READONLY, CODE
 78 .text.__swhatbuf_r 00000048  08004346  08004346  00005346  2**1
                  CONTENTS, ALLOC, LOAD, READONLY, CODE
 79 .text.__smakebuf_r 00000072  0800438e  0800438e  0000538e  2**1
                  CONTENTS, ALLOC, LOAD, READONLY, CODE
 80 .text.__sread 00000022  08004400  08004400  00005400  2**1
                  CONTENTS, ALLOC, LOAD, READONLY, CODE
 81 .text.__seofread 00000004  08004422  08004422  00005422  2**1
                  CONTENTS, ALLOC, LOAD, READONLY, CODE
 82 .text.__swrite 00000038  08004426  08004426  00005426  2**1
                  CONTENTS, ALLOC, LOAD, READONLY, CODE
 83 .text.__sseek 00000026  0800445e  0800445e  0000545e  2**1
                  CONTENTS, ALLOC, LOAD, READONLY, CODE
 84 .text.__sclose 00000008  08004484  08004484  00005484  2**1
                  CONTENTS, ALLOC, LOAD, READONLY, CODE
 85 .text.__swbuf_r 0000007a  0800448c  0800448c  0000548c  2**1
                  CONTENTS, ALLOC, LOAD, READONLY, CODE
 86 .text.__swbuf 00000010  08004508  08004508  00005508  2**2
                  CONTENTS, ALLOC, LOAD, READONLY, CODE
 87 .text.__swsetup_r 000000a8  08004518  08004518  00005518  2**2
                  CONTENTS, ALLOC, LOAD, READONLY, CODE
 88 .text.memmove 00000032  080045c0  080045c0  000055c0  2**1
                  CONTENTS, ALLOC, LOAD, READONLY, CODE
 89 .text.memset  00000010  080045f2  080045f2  000055f2  2**1
                  CONTENTS, ALLOC, LOAD, READONLY, CODE
 90 .text._setlocale_r 0000003c  08004604  08004604  00005604  2**2
                  CONTENTS, ALLOC, LOAD, READONLY, CODE
 91 .text.__locale_mb_cur_max 0000000c  08004640  08004640  00005640  2**2
                  CONTENTS, ALLOC, LOAD, READONLY, CODE
 92 .text.setlocale 00000010  0800464c  0800464c  0000564c  2**2
                  CONTENTS, ALLOC, LOAD, READONLY, CODE
 93 .text._close_r 00000020  0800465c  0800465c  0000565c  2**2
                  CONTENTS, ALLOC, LOAD, READONLY, CODE
 94 .text._reclaim_reent 000000bc  0800467c  0800467c  0000567c  2**2
                  CONTENTS, ALLOC, LOAD, READONLY, CODE
 95 .text._fstat_r 00000024  08004738  08004738  00005738  2**2
                  CONTENTS, ALLOC, LOAD, READONLY, CODE
 96 .text._isatty_r 00000020  0800475c  0800475c  0000575c  2**2
                  CONTENTS, ALLOC, LOAD, READONLY, CODE
 97 .text._lseek_r 00000024  0800477c  0800477c  0000577c  2**2
                  CONTENTS, ALLOC, LOAD, READONLY, CODE
 98 .text._read_r 00000024  080047a0  080047a0  000057a0  2**2
                  CONTENTS, ALLOC, LOAD, READONLY, CODE
 99 .text._sbrk_r 00000020  080047c4  080047c4  000057c4  2**2
                  CONTENTS, ALLOC, LOAD, READONLY, CODE
100 .text._write_r 00000024  080047e4  080047e4  000057e4  2**2
                  CONTENTS, ALLOC, LOAD, READONLY, CODE
101 .text.memcpy  0000001c  08004808  08004808  00005808  2**1
                  CONTENTS, ALLOC, LOAD, READONLY, CODE
102 .text.__assert_func 0000003c  08004824  08004824  00005824  2**2
                  CONTENTS, ALLOC, LOAD, READONLY, CODE
103 .text.__assert 0000000a  08004860  08004860  00005860  2**1
                  CONTENTS, ALLOC, LOAD, READONLY, CODE
104 .text._calloc_r 00000028  0800486a  0800486a  0000586a  2**1
                  CONTENTS, ALLOC, LOAD, READONLY, CODE
105 .text._mbtowc_r 00000010  08004894  08004894  00005894  2**2
                  CONTENTS, ALLOC, LOAD, READONLY, CODE
106 .text.__ascii_mbtowc 00000024  080048a4  080048a4  000058a4  2**1
                  CONTENTS, ALLOC, LOAD, READONLY, CODE
107 .text._realloc_r 0000005c  080048c8  080048c8  000058c8  2**1
                  CONTENTS, ALLOC, LOAD, READONLY, CODE
108 .text._wctomb_r 00000010  08004924  08004924  00005924  2**2
                  CONTENTS, ALLOC, LOAD, READONLY, CODE
109 .text.__ascii_wctomb 0000001a  08004934  08004934  00005934  2**1
                  CONTENTS, ALLOC, LOAD, READONLY, CODE
110 .text._fprintf_r 0000001a  0800494e  0800494e  0000594e  2**1
                  CONTENTS, ALLOC, LOAD, READONLY, CODE
111 .text.fprintf 00000024  08004968  08004968  00005968  2**2
                  CONTENTS, ALLOC, LOAD, READONLY, CODE
112 .text.abort   0000000e  0800498c  0800498c  0000598c  2**1
                  CONTENTS, ALLOC, LOAD, READONLY, CODE
113 .text._malloc_usable_size_r 00000010  0800499a  0800499a  0000599a  2**1
                  CONTENTS, ALLOC, LOAD, READONLY, CODE
114 .text._init_signal_r 00000028  080049aa  080049aa  000059aa  2**1
                  CONTENTS, ALLOC, LOAD, READONLY, CODE
115 .text._signal_r 00000030  080049d2  080049d2  000059d2  2**1
                  CONTENTS, ALLOC, LOAD, READONLY, CODE
116 .text._raise_r 00000050  08004a02  08004a02  00005a02  2**1
                  CONTENTS, ALLOC, LOAD, READONLY, CODE
117 .text.__sigtramp_r 00000048  08004a52  08004a52  00005a52  2**1
                  CONTENTS, ALLOC, LOAD, READONLY, CODE
118 .text.raise   00000010  08004a9c  08004a9c  00005a9c  2**2
                  CONTENTS, ALLOC, LOAD, READONLY, CODE
119 .text.signal  00000010  08004aac  08004aac  00005aac  2**2
                  CONTENTS, ALLOC, LOAD, READONLY, CODE
120 .text._init_signal 0000000c  08004abc  08004abc  00005abc  2**2
                  CONTENTS, ALLOC, LOAD, READONLY, CODE
121 .text.__sigtramp 00000010  08004ac8  08004ac8  00005ac8  2**2
                  CONTENTS, ALLOC, LOAD, READONLY, CODE
122 .text._kill_r 00000024  08004ad8  08004ad8  00005ad8  2**2
                  CONTENTS, ALLOC, LOAD, READONLY, CODE
123 .text._getpid_r 00000004  08004afc  08004afc  00005afc  2**1
                  CONTENTS, ALLOC, LOAD, READONLY, CODE
124 .text._exit   00000004  08004b00  08004b00  00005b00  2**2
                  CONTENTS, ALLOC, LOAD, READONLY, CODE
125 .ARM.extab    00000000  08004b04  08004b04  00005b04  2**0
                  CONTENTS, ALLOC, LOAD, READONLY, DATA
126 .ARM.exidx    00000008  08004b04  08004b04  00005b04  2**2
                  CONTENTS, ALLOC, LOAD, READONLY, DATA
127 .rodata       00000410  08004b10  08004b10  00005b10  2**3
                  CONTENTS, ALLOC, LOAD, READONLY, DATA
128 .data         000001cc  20000000  08004f20  00006000  2**2
                  CONTENTS, ALLOC, LOAD, DATA
129 .bss          00000158  200001cc  080050ec  000061cc  2**2
                  ALLOC
130 .debug_info   00002732  00000000  00000000  000061cc  2**0
                  CONTENTS, READONLY, DEBUGGING, OCTETS
131 .debug_abbrev 00000b47  00000000  00000000  000088fe  2**0
                  CONTENTS, READONLY, DEBUGGING, OCTETS
132 .debug_aranges 00000120  00000000  00000000  00009448  2**3
                  CONTENTS, READONLY, DEBUGGING, OCTETS
133 .debug_line   00001353  00000000  00000000  00009568  2**0
                  CONTENTS, READONLY, DEBUGGING, OCTETS
134 .debug_str    00000a97  00000000  00000000  0000a8bb  2**0
                  CONTENTS, READONLY, DEBUGGING, OCTETS
135 .comment      00000045  00000000  00000000  0000b352  2**0
                  CONTENTS, READONLY
136 .ARM.attributes 00000032  00000000  00000000  0000b397  2**0
                  CONTENTS, READONLY
137 .debug_frame  0000160c  00000000  00000000  0000b3cc  2**2
                  CONTENTS, READONLY, DEBUGGING, OCTETS
138 .debug_loclists 000003ac  00000000  00000000  0000c9d8  2**0
                  CONTENTS, READONLY, DEBUGGING, OCTETS
139 .debug_rnglists 0000006d  00000000  00000000  0000cd84  2**0
                  CONTENTS, READONLY, DEBUGGING, OCTETS
140 .debug_line_str 00000224  00000000  00000000  0000cdf1  2**0
                  CONTENTS, READONLY, DEBUGGING, OCTETS
SYMBOL TABLE:
08000000 l    d  .text	00000000 .text
080012e0 l    d  .text.__cvt	00000000 .text.__cvt
0800139e l    d  .text.__exponent	00000000 .text.__exponent
08001414 l    d  .text._printf_float	00000000 .text._printf_float
0800185c l    d  .text._printf_common	00000000 .text._printf_common
08001948 l    d  .text._printf_i	00000000 .text._printf_i
08001b9c l    d  .text._printf_r	00000000 .text._printf_r
08001bb8 l    d  .text.printf	00000000 .text.printf
08001bdc l    d  .text.setvbuf	00000000 .text.setvbuf
08001d44 l    d  .text._vsprintf_r	00000000 .text._vsprintf_r
08001d70 l    d  .text.vsprintf	00000000 .text.vsprintf
08001d84 l    d  .text.__localeconv_l	00000000 .text.__localeconv_l
08001d88 l    d  .text._localeconv_r	00000000 .text._localeconv_r
08001d90 l    d  .text.localeconv	00000000 .text.localeconv
08001d98 l    d  .text.__errno	00000000 .text.__errno
08001da4 l    d  .text.__retarget_lock_init	00000000 .text.__retarget_lock_init
08001da6 l    d  .text.__retarget_lock_init_recursive	00000000 .text.__retarget_lock_init_recursive
08001da8 l    d  .text.__retarget_lock_close	00000000 .text.__retarget_lock_close
08001daa l    d  .text.__retarget_lock_close_recursive	00000000 .text.__retarget_lock_close_recursive
08001dac l    d  .text.__retarget_lock_acquire	00000000 .text.__retarget_lock_acquire
08001dae l    d  .text.__retarget_lock_acquire_recursive	00000000 .text.__retarget_lock_acquire_recursive
08001db0 l    d  .text.__retarget_lock_try_acquire	00000000 .text.__retarget_lock_try_acquire
08001db4 l    d  .text.__retarget_lock_try_acquire_recursive	00000000 .text.__retarget_lock_try_acquire_recursive
08001db8 l    d  .text.__retarget_lock_release	00000000 .text.__retarget_lock_release
08001dba l    d  .text.__retarget_lock_release_recursive	00000000 .text.__retarget_lock_release_recursive
08001dbc l    d  .text.quorem	00000000 .text.quorem
08001ed0 l    d  .text._dtoa_r	00000000 .text._dtoa_r
08002a7c l    d  .text._free_r	00000000 .text._free_r
08002b14 l    d  .text.malloc	00000000 .text.malloc
08002b24 l    d  .text.free	00000000 .text.free
08002b34 l    d  .text.sbrk_aligned	00000000 .text.sbrk_aligned
08002b78 l    d  .text._malloc_r	00000000 .text._malloc_r
08002c70 l    d  .text.__malloc_lock	00000000 .text.__malloc_lock
08002c7c l    d  .text.__malloc_unlock	00000000 .text.__malloc_unlock
08002c88 l    d  .text._Balloc	00000000 .text._Balloc
08002d04 l    d  .text._Bfree	00000000 .text._Bfree
08002d48 l    d  .text.__multadd	00000000 .text.__multadd
08002dd4 l    d  .text.__s2b	00000000 .text.__s2b
08002e68 l    d  .text.__hi0bits	00000000 .text.__hi0bits
08002ea4 l    d  .text.__lo0bits	00000000 .text.__lo0bits
08002f00 l    d  .text.__i2b	00000000 .text.__i2b
08002f2c l    d  .text.__multiply	00000000 .text.__multiply
08003098 l    d  .text.__pow5mult	00000000 .text.__pow5mult
08003150 l    d  .text.__lshift	00000000 .text.__lshift
08003234 l    d  .text.__mcmp	00000000 .text.__mcmp
0800326c l    d  .text.__mdiff	00000000 .text.__mdiff
0800339c l    d  .text.__ulp	00000000 .text.__ulp
080033e8 l    d  .text.__b2d	00000000 .text.__b2d
0800347c l    d  .text.__d2b	00000000 .text.__d2b
0800352c l    d  .text.__ratio	00000000 .text.__ratio
08003590 l    d  .text._mprec_log10	00000000 .text._mprec_log10
080035cc l    d  .text.__copybits	00000000 .text.__copybits
08003612 l    d  .text.__any_on	00000000 .text.__any_on
08003654 l    d  .text.__ssputs_r	00000000 .text.__ssputs_r
08003714 l    d  .text.__ssprint_r	00000000 .text.__ssprint_r
08003808 l    d  .text._svfprintf_r	00000000 .text._svfprintf_r
080039f8 l    d  .text.__sfputc_r	00000000 .text.__sfputc_r
08003a22 l    d  .text.__sfputs_r	00000000 .text.__sfputs_r
08003a46 l    d  .text.__sprint_r	00000000 .text.__sprint_r
08003a60 l    d  .text._vfprintf_r	00000000 .text._vfprintf_r
08003c88 l    d  .text.vfprintf	00000000 .text.vfprintf
08003c9c l    d  .text.__sflush_r	00000000 .text.__sflush_r
08003d9c l    d  .text._fflush_r	00000000 .text._fflush_r
08003dec l    d  .text.fflush	00000000 .text.fflush
08003e14 l    d  .text.std	00000000 .text.std
08003e80 l    d  .text.stdio_exit_handler	00000000 .text.stdio_exit_handler
08003e98 l    d  .text.cleanup_stdio	00000000 .text.cleanup_stdio
08003ed8 l    d  .text.__fp_lock	00000000 .text.__fp_lock
08003ef0 l    d  .text.__fp_unlock	00000000 .text.__fp_unlock
08003f08 l    d  .text.global_stdio_init.part.0	00000000 .text.global_stdio_init.part.0
08003f48 l    d  .text.__sfp_lock_acquire	00000000 .text.__sfp_lock_acquire
08003f54 l    d  .text.__sfp_lock_release	00000000 .text.__sfp_lock_release
08003f60 l    d  .text.__sfp	00000000 .text.__sfp
08004004 l    d  .text.__sinit	00000000 .text.__sinit
08004034 l    d  .text.__fp_lock_all	00000000 .text.__fp_lock_all
08004050 l    d  .text.__fp_unlock_all	00000000 .text.__fp_unlock_all
0800406c l    d  .text.__sfvwrite_r	00000000 .text.__sfvwrite_r
0800430c l    d  .text._fwalk_sglue	00000000 .text._fwalk_sglue
08004346 l    d  .text.__swhatbuf_r	00000000 .text.__swhatbuf_r
0800438e l    d  .text.__smakebuf_r	00000000 .text.__smakebuf_r
08004400 l    d  .text.__sread	00000000 .text.__sread
08004422 l    d  .text.__seofread	00000000 .text.__seofread
08004426 l    d  .text.__swrite	00000000 .text.__swrite
0800445e l    d  .text.__sseek	00000000 .text.__sseek
08004484 l    d  .text.__sclose	00000000 .text.__sclose
0800448c l    d  .text.__swbuf_r	00000000 .text.__swbuf_r
08004508 l    d  .text.__swbuf	00000000 .text.__swbuf
08004518 l    d  .text.__swsetup_r	00000000 .text.__swsetup_r
080045c0 l    d  .text.memmove	00000000 .text.memmove
080045f2 l    d  .text.memset	00000000 .text.memset
08004604 l    d  .text._setlocale_r	00000000 .text._setlocale_r
08004640 l    d  .text.__locale_mb_cur_max	00000000 .text.__locale_mb_cur_max
0800464c l    d  .text.setlocale	00000000 .text.setlocale
0800465c l    d  .text._close_r	00000000 .text._close_r
0800467c l    d  .text._reclaim_reent	00000000 .text._reclaim_reent
08004738 l    d  .text._fstat_r	00000000 .text._fstat_r
0800475c l    d  .text._isatty_r	00000000 .text._isatty_r
0800477c l    d  .text._lseek_r	00000000 .text._lseek_r
080047a0 l    d  .text._read_r	00000000 .text._read_r
080047c4 l    d  .text._sbrk_r	00000000 .text._sbrk_r
080047e4 l    d  .text._write_r	00000000 .text._write_r
08004808 l    d  .text.memcpy	00000000 .text.memcpy
08004824 l    d  .text.__assert_func	00000000 .text.__assert_func
08004860 l    d  .text.__assert	00000000 .text.__assert
0800486a l    d  .text._calloc_r	00000000 .text._calloc_r
08004894 l    d  .text._mbtowc_r	00000000 .text._mbtowc_r
080048a4 l    d  .text.__ascii_mbtowc	00000000 .text.__ascii_mbtowc
080048c8 l    d  .text._realloc_r	00000000 .text._realloc_r
08004924 l    d  .text._wctomb_r	00000000 .text._wctomb_r
08004934 l    d  .text.__ascii_wctomb	00000000 .text.__ascii_wctomb
0800494e l    d  .text._fprintf_r	00000000 .text._fprintf_r
08004968 l    d  .text.fprintf	00000000 .text.fprintf
0800498c l    d  .text.abort	00000000 .text.abort
0800499a l    d  .text._malloc_usable_size_r	00000000 .text._malloc_usable_size_r
080049aa l    d  .text._init_signal_r	00000000 .text._init_signal_r
080049d2 l    d  .text._signal_r	00000000 .text._signal_r
08004a02 l    d  .text._raise_r	00000000 .text._raise_r
08004a52 l    d  .text.__sigtramp_r	00000000 .text.__sigtramp_r
08004a9c l    d  .text.raise	00000000 .text.raise
08004aac l    d  .text.signal	00000000 .text.signal
08004abc l    d  .text._init_signal	00000000 .text._init_signal
08004ac8 l    d  .text.__sigtramp	00000000 .text.__sigtramp
08004ad8 l    d  .text._kill_r	00000000 .text._kill_r
08004afc l    d  .text._getpid_r	00000000 .text._getpid_r
08004b00 l    d  .text._exit	00000000 .text._exit
08004b04 l    d  .ARM.extab	00000000 .ARM.extab
08004b04 l    d  .ARM.exidx	00000000 .ARM.exidx
08004b10 l    d  .rodata	00000000 .rodata
20000000 l    d  .data	00000000 .data
200001cc l    d  .bss	00000000 .bss
00000000 l    d  .debug_info	00000000 .debug_info
00000000 l    d  .debug_abbrev	00000000 .debug_abbrev
00000000 l    d  .debug_aranges	00000000 .debug_aranges
00000000 l    d  .debug_line	00000000 .debug_line
00000000 l    d  .debug_str	00000000 .debug_str
00000000 l    d  .comment	00000000 .comment
00000000 l    d  .ARM.attributes	00000000 .ARM.attributes
00000000 l    d  .debug_frame	00000000 .debug_frame
00000000 l    d  .debug_loclists	00000000 .debug_loclists
00000000 l    d  .debug_rnglists	00000000 .debug_rnglists
00000000 l    d  .debug_line_str	00000000 .debug_line_str
00000000 l    df *ABS*	00000000 crt0.o
4002001c l       *ABS*	00000000 GPIOA_LCKR
40023830 l       *ABS*	00000000 RCC_AHB1ENR
00000000 l    df *ABS*	00000000 clock.c
00000000 l    df *ABS*	00000000 key.c
00000000 l    df *ABS*	00000000 led.c
00000000 l    df *ABS*	00000000 main.c
00000000 l    df *ABS*	00000000 runtime.c
200001cc l     O .bss	00000004 heap.0
00000000 l    df *ABS*	00000000 system_stm32f4xx.c
00000000 l    df *ABS*	00000000 systick.c
00000000 l    df *ABS*	00000000 uart.c
00000000 l    df *ABS*	00000000 nano-vfprintf_float.c
00000000 l    df *ABS*	00000000 nano-vfprintf_i.c
00000000 l    df *ABS*	00000000 printf.c
00000000 l    df *ABS*	00000000 setvbuf.c
00000000 l    df *ABS*	00000000 vsprintf.c
00000000 l    df *ABS*	00000000 localeconv.c
00000000 l    df *ABS*	00000000 impure.c
00000000 l    df *ABS*	00000000 errno.c
00000000 l    df *ABS*	00000000 lock.c
00000000 l    df *ABS*	00000000 libc_a-memchr.o
00000000 l    df *ABS*	00000000 libc_a-strlen.o
00000000 l    df *ABS*	00000000 dtoa.c
08001dbc l     F .text.quorem	00000110 quorem
00000000 l    df *ABS*	00000000 freer.c
00000000 l    df *ABS*	00000000 malloc.c
00000000 l    df *ABS*	00000000 mallocr.c
08002b34 l     F .text.sbrk_aligned	00000044 sbrk_aligned
00000000 l    df *ABS*	00000000 mlock.c
00000000 l    df *ABS*	00000000 mprec.c
08004cf0 l     O .rodata	0000000c p05.0
00000000 l    df *ABS*	00000000 nano-svfprintf.c
00000000 l    df *ABS*	00000000 nano-vfprintf.c
080039f8 l     F .text.__sfputc_r	0000002a __sfputc_r
00000000 l    df *ABS*	00000000 fflush.c
00000000 l    df *ABS*	00000000 findfp.c
08003e14 l     F .text.std	0000006c std
08003e80 l     F .text.stdio_exit_handler	00000018 stdio_exit_handler
08003e98 l     F .text.cleanup_stdio	00000040 cleanup_stdio
08003ed8 l     F .text.__fp_lock	00000018 __fp_lock
08003ef0 l     F .text.__fp_unlock	00000018 __fp_unlock
08003f08 l     F .text.global_stdio_init.part.0	00000040 global_stdio_init.part.0
00000000 l    df *ABS*	00000000 fvwrite.c
00000000 l    df *ABS*	00000000 fwalk.c
00000000 l    df *ABS*	00000000 makebuf.c
00000000 l    df *ABS*	00000000 stdio.c
00000000 l    df *ABS*	00000000 wbuf.c
00000000 l    df *ABS*	00000000 wsetup.c
00000000 l    df *ABS*	00000000 memmove.c
00000000 l    df *ABS*	00000000 memset.c
00000000 l    df *ABS*	00000000 locale.c
00000000 l    df *ABS*	00000000 closer.c
00000000 l    df *ABS*	00000000 reent.c
00000000 l    df *ABS*	00000000 fstatr.c
00000000 l    df *ABS*	00000000 isattyr.c
00000000 l    df *ABS*	00000000 lseekr.c
00000000 l    df *ABS*	00000000 readr.c
00000000 l    df *ABS*	00000000 sbrkr.c
00000000 l    df *ABS*	00000000 writer.c
00000000 l    df *ABS*	00000000 libc_a-strcmp.o
00000000 l    df *ABS*	00000000 memcpy-stub.c
00000000 l    df *ABS*	00000000 assert.c
00000000 l    df *ABS*	00000000 callocr.c
00000000 l    df *ABS*	00000000 mbtowc_r.c
00000000 l    df *ABS*	00000000 reallocr.c
00000000 l    df *ABS*	00000000 wctomb_r.c
00000000 l    df *ABS*	00000000 ctype_.c
00000000 l    df *ABS*	00000000 fprintf.c
00000000 l    df *ABS*	00000000 abort.c
00000000 l    df *ABS*	00000000 msizer.c
00000000 l    df *ABS*	00000000 signal.c
00000000 l    df *ABS*	00000000 signalr.c
00000000 l    df *ABS*	00000000 _arm_muldf3.o
00000000 l    df *ABS*	00000000 _arm_addsubdf3.o
00000000 l    df *ABS*	00000000 _arm_muldivdf3.o
00000000 l    df *ABS*	00000000 _arm_cmpdf2.o
00000000 l    df *ABS*	00000000 _arm_unorddf2.o
00000000 l    df *ABS*	00000000 _arm_fixdfsi.o
00000000 l    df *ABS*	00000000 _exit.c
0800499a g     F .text._malloc_usable_size_r	00000010 _malloc_usable_size_r
080012e0 g     F .text.__cvt	000000be __cvt
08004b20 g     O .rodata	00000008 APBPrescTable
08003590 g     F .text._mprec_log10	0000003c _mprec_log10
08001264 g     F .text	0000002c .hidden __aeabi_dcmpun
08003612 g     F .text.__any_on	00000042 __any_on
0800475c g     F .text._isatty_r	00000020 _isatty_r
08004d00 g     O .rodata	00000028 __mprec_tinytens
08001228 g     F .text	00000012 .hidden __aeabi_dcmple
080000d0 g     F .text	00000020 Key_Poll_Init
080002ec g     F .text	00000004 _getpid
08001164 g     F .text	0000007a .hidden __cmpdf2
0800477c g     F .text._lseek_r	00000024 _lseek_r
08001164 g     F .text	0000007a .hidden __eqdf2
08000cd4 g     F .text	0000005a .hidden __floatdidf
08004ad8 g     F .text._kill_r	00000024 _kill_r
08001bb8 g     F .text.printf	00000024 printf
200001d6 g     O .bss	00000001 __lock___atexit_recursive_mutex
08001d70 g     F .text.vsprintf	00000014 vsprintf
080049d2 g     F .text._signal_r	00000030 _signal_r
0800445e g     F .text.__sseek	00000026 __sseek
08004004 g     F .text.__sinit	00000030 __sinit
0800448c g     F .text.__swbuf_r	0000007a __swbuf_r
08004604 g     F .text._setlocale_r	0000003c _setlocale_r
08002c7c g     F .text.__malloc_unlock	0000000c __malloc_unlock
200001d0 g     O .bss	00000001 __lock___arc4random_mutex
080045c0 g     F .text.memmove	00000032 memmove
08002c88 g     F .text._Balloc	0000007c _Balloc
08001154 g     F .text	0000008a .hidden __gtdf2
08001d98 g     F .text.__errno	0000000c __errno
08001da8 g     F .text.__retarget_lock_close	00000002 __retarget_lock_close
08001d84 g     F .text.__localeconv_l	00000004 __localeconv_l
20000318 g     O .bss	00000004 __stdio_exit_handler
08004738 g     F .text._fstat_r	00000024 _fstat_r
20000320 g     O .bss	00000004 errno
08004422 g     F .text.__seofread	00000004 __seofread
080011f0 g     F .text	00000010 .hidden __aeabi_cdcmple
080003c0 g     F .text	00000008 SysTick_Get_Load_Time
08000178 g     F .text	00000100 Main
08004808 g     F .text.memcpy	0000001c memcpy
080011e0 g     F .text	00000020 .hidden __aeabi_cdrcmple
08001bdc g     F .text.setvbuf	00000168 setvbuf
08003808 g     F .text._svfprintf_r	000001f0 _svfprintf_r
08000c5c g     F .text	00000022 .hidden __floatsidf
0800115c g     F .text	00000082 .hidden __ltdf2
20000000 g     O .data	00000004 SystemCoreClock
0800352c g     F .text.__ratio	00000062 __ratio
08001d44 g     F .text._vsprintf_r	0000002c _vsiprintf_r
20000000 g       .data	00000000 __RW_BASE__
08002b14 g     F .text.malloc	00000010 malloc
08001b9c g     F .text._printf_r	0000001c _printf_r
08004a02 g     F .text._raise_r	00000050 _raise_r
080002dc g     F .text	0000000a _fstat
08004824 g     F .text.__assert_func	0000003c __assert_func
08004d50 g     O .rodata	000000c8 __mprec_tens
08004afc g     F .text._getpid_r	00000004 _getpid_r
08000c3c g     F .text	0000001e .hidden __aeabi_ui2d
08001d88 g     F .text._localeconv_r	00000008 _localeconv_r
0800406c g     F .text.__sfvwrite_r	000002a0 __sfvwrite_r
08002f00 g     F .text.__i2b	0000002c __i2b
08004a52 g     F .text.__sigtramp_r	00000048 __sigtramp_r
080009b8 g     F .text	00000000 .hidden __aeabi_drsub
080047c4 g     F .text._sbrk_r	00000020 _sbrk_r
08000124 g     F .text	00000034 LED_Init
080047a0 g     F .text._read_r	00000024 _read_r
08001214 g     F .text	00000012 .hidden __aeabi_dcmplt
08000070 g     F .text	00000060 Clock_Init
08003dec g     F .text.fflush	00000028 fflush
08000c80 g     F .text	00000042 .hidden __extendsfdf2
08000f84 g     F .text	000001d0 .hidden __aeabi_ddiv
080009c4 g     F .text	00000276 .hidden __adddf3
200001cc g       .data	00000000 __RW_LIMIT__
08000620 g     F .text	0000004c Uart1_Printf
080033e8 g     F .text.__b2d	00000092 __b2d
200001d3 g     O .bss	00000001 __lock___env_recursive_mutex
08000d30 g     F .text	00000254 .hidden __aeabi_dmul
080002e8 g     F .text	00000004 _isatty
080048c8 g     F .text._realloc_r	0000005c _realloc_r
08001d70 g     F .text.vsprintf	00000014 vsiprintf
08004d28 g     O .rodata	00000028 __mprec_bigtens
08002dd4 g     F .text.__s2b	00000094 __s2b
0800498c g     F .text.abort	0000000e abort
08000c3c g     F .text	0000001e .hidden __floatunsidf
08000278 g     F .text	00000038 _sbrk
08003234 g     F .text.__mcmp	00000036 __mcmp
0800066c g     F .text	00000014 Uart1_Get_Pressed
08004034 g     F .text.__fp_lock_all	0000001c __fp_lock_all
0800467c g     F .text._reclaim_reent	000000bc _reclaim_reent
08002e68 g     F .text.__hi0bits	0000003c __hi0bits
08001290 g     F .text	0000004e .hidden __fixdfsi
200001d4 g     O .bss	00000001 __lock___malloc_recursive_mutex
200001e0 g     O .bss	00000138 __sf
08004968 g     F .text.fprintf	00000024 fprintf
080009c4 g     F .text	00000276 .hidden __aeabi_dadd
0800115c g     F .text	00000082 .hidden __ledf2
08003098 g     F .text.__pow5mult	000000b8 __pow5mult
08000cc4 g     F .text	0000006a .hidden __aeabi_ul2d
08000008 g     F .text	00000000 __start
08001dba g     F .text.__retarget_lock_release_recursive	00000002 __retarget_lock_release_recursive
08003654 g     F .text.__ssputs_r	000000c0 __ssputs_r
08001db4 g     F .text.__retarget_lock_try_acquire_recursive	00000004 __retarget_lock_try_acquire_recursive
08001250 g     F .text	00000012 .hidden __aeabi_dcmpgt
08003a22 g     F .text.__sfputs_r	00000024 __sfputs_r
08003f48 g     F .text.__sfp_lock_acquire	0000000c __sfp_lock_acquire
080006a0 g     F .text	00000000 memchr
08001414  w    F .text._printf_float	00000448 _printf_float
08002a7c g     F .text._free_r	00000098 _free_r
08004640 g     F .text.__locale_mb_cur_max	0000000c __locale_mb_cur_max
0800123c g     F .text	00000012 .hidden __aeabi_dcmpge
080009c0 g     F .text	0000027a .hidden __aeabi_dsub
000001cc g       *ABS*	00000000 __RW_SIZE__
08004b10 g     O .rodata	00000010 AHBPrescTable
08001db0 g     F .text.__retarget_lock_try_acquire	00000004 __retarget_lock_try_acquire
08000cc4 g     F .text	0000006a .hidden __floatundidf
080002d0 g     F .text	00000004 _lseek
08003150 g     F .text.__lshift	000000e4 __lshift
08004aac g     F .text.signal	00000010 signal
08003714 g     F .text.__ssprint_r	000000f4 __ssprint_r
08004f20 g       *ABS*	00000000 __RW_LOAD_ADDR__
08000384 g     F .text	00000028 SysTick_Run
08002f2c g     F .text.__multiply	0000016c __multiply
0800347c g     F .text.__d2b	000000b0 __d2b
08001b9c g     F .text._printf_r	0000001c _iprintf_r
08000114 g     F .text	00000010 Key_Wait_Key_Released
0800465c g     F .text._close_r	00000020 _close_r
08000c5c g     F .text	00000022 .hidden __aeabi_i2d
08000000 g       .text	00000000 __RO_BASE__
08001daa g     F .text.__retarget_lock_close_recursive	00000002 __retarget_lock_close_recursive
08004518 g     F .text.__swsetup_r	000000a8 __swsetup_r
08000f84 g     F .text	000001d0 .hidden __divdf3
08003f60 g     F .text.__sfp	000000a4 __sfp
080035cc g     F .text.__copybits	00000046 __copybits
08000d30 g     F .text	00000254 .hidden __muldf3
08004400 g     F .text.__sread	00000022 __sread
0800494e g     F .text._fprintf_r	0000001a _fprintf_r
08002c70 g     F .text.__malloc_lock	0000000c __malloc_lock
08003d9c g     F .text._fflush_r	00000050 _fflush_r
0800486a g     F .text._calloc_r	00000028 _calloc_r
08001dae g     F .text.__retarget_lock_acquire_recursive	00000002 __retarget_lock_acquire_recursive
080045f2 g     F .text.memset	00000010 memset
08001da6 g     F .text.__retarget_lock_init_recursive	00000002 __retarget_lock_init_recursive
08004508 g     F .text.__swbuf	00000010 __swbuf
20000324 g       .bss	00000000 __ZI_LIMIT__
08004484 g     F .text.__sclose	00000008 __sclose
08001ed0 g     F .text._dtoa_r	00000bac _dtoa_r
08002b78 g     F .text._malloc_r	000000f8 _malloc_r
08004934 g     F .text.__ascii_wctomb	0000001a __ascii_wctomb
08000cd4 g     F .text	0000005a .hidden __aeabi_l2d
080005f0 g     F .text	00000030 Uart1_Send_String
080005cc g     F .text	00000024 Uart1_Send_Byte
0800494e g     F .text._fprintf_r	0000001a _fiprintf_r
08004abc g     F .text._init_signal	0000000c _init_signal
080000f0 g     F .text	00000014 Key_Get_Pressed
080004c4 g     F .text	00000024 Uart2_Send_Byte
08004894 g     F .text._mbtowc_r	00000010 _mbtowc_r
08000750 g     F .text	00000014 strcmp
08004f20 g       .rodata	00000000 __RO_LIMIT__
08003c88 g     F .text.vfprintf	00000014 vfiprintf
08000300 g     F .text	00000014 SystemInit
08001da4 g     F .text.__retarget_lock_init	00000002 __retarget_lock_init
08001164 g     F .text	0000007a .hidden __nedf2
08001bb8 g     F .text.printf	00000024 iprintf
0800139e g     F .text.__exponent	00000076 __exponent
2000031c g     O .bss	00000004 _PathLocale
080047e4 g     F .text._write_r	00000024 _write_r
08001d44 g     F .text._vsprintf_r	0000002c _vsprintf_r
0800464c g     F .text.setlocale	00000010 setlocale
080003d8 g     F .text	000000ec Uart2_Init
0800185c g     F .text._printf_common	000000ea _printf_common
20000004 g     O .data	00000004 _impure_ptr
08003c9c g     F .text.__sflush_r	00000100 __sflush_r
0800430c g     F .text._fwalk_sglue	0000003a _fwalk_sglue
08003808 g     F .text._svfprintf_r	000001f0 _svfiprintf_r
00000158 g       *ABS*	00000000 __ZI_SIZE__
080048a4 g     F .text.__ascii_mbtowc	00000024 __ascii_mbtowc
0800339c g     F .text.__ulp	0000004c __ulp
08004050 g     F .text.__fp_unlock_all	0000001c __fp_unlock_all
080003c8 g     F .text	0000000e SysTick_Stop
08000168 g     F .text	00000010 LED_Off
200001cc g       .bss	00000000 __ZI_BASE__
08001d90 g     F .text.localeconv	00000008 localeconv
08004346 g     F .text.__swhatbuf_r	00000048 __swhatbuf_r
08001200 g     F .text	00000012 .hidden __aeabi_dcmpeq
20000054 g     O .data	0000000c __sglue
080002b0 g     F .text	0000001a _write
08000104 g     F .text	00000010 Key_Wait_Key_Pressed
080004e8 g     F .text	000000e4 Uart1_Init
200001d5 g     O .bss	00000001 __lock___at_quick_exit_mutex
08004426 g     F .text.__swrite	00000038 __swrite
08004968 g     F .text.fprintf	00000024 fiprintf
08003a60 g     F .text._vfprintf_r	00000228 _vfiprintf_r
08000314 g     F .text	00000070 SystemCoreClockUpdate
0800326c g     F .text.__mdiff	00000130 __mdiff
08001290 g     F .text	0000004e .hidden __aeabi_d2iz
080002f0 g     F .text	00000010 _kill
20000008 g     O .data	0000004c _impure_data
08003f54 g     F .text.__sfp_lock_release	0000000c __sfp_lock_release
08004e18 g     O .rodata	00000101 _ctype_
080002cc g     F .text	00000004 _read
08001dac g     F .text.__retarget_lock_acquire	00000002 __retarget_lock_acquire
08001264 g     F .text	0000002c .hidden __unorddf2
08001db8 g     F .text.__retarget_lock_release	00000002 __retarget_lock_release
08004b00 g     F .text._exit	00000002 _exit
200001d1 g     O .bss	00000001 __lock___dd_hash_mutex
0800438e g     F .text.__smakebuf_r	00000072 __smakebuf_r
200001d2 g     O .bss	00000001 __lock___tz_mutex
080003b8 g     F .text	00000008 SysTick_Get_Time
08000740 g     F .text	00000010 strlen
08001948 g     F .text._printf_i	00000254 _printf_i
080049aa g     F .text._init_signal_r	00000028 _init_signal_r
080011f0 g     F .text	00000010 .hidden __aeabi_cdcmpeq
08001154 g     F .text	0000008a .hidden __gedf2
200001d8 g     O .bss	00000004 __malloc_sbrk_start
08000680 g     F .text	00000014 Uart1_Get_Char
08004860 g     F .text.__assert	0000000a __assert
08000158 g     F .text	00000010 LED_On
08003a46 g     F .text.__sprint_r	0000001a __sprint_r
08000c80 g     F .text	00000042 .hidden __aeabi_f2d
200001dc g     O .bss	00000004 __malloc_free_list
08004924 g     F .text._wctomb_r	00000010 _wctomb_r
080009c0 g     F .text	0000027a .hidden __subdf3
08003a60 g     F .text._vfprintf_r	00000228 _vfprintf_r
08002ea4 g     F .text.__lo0bits	0000005c __lo0bits
08004ac8 g     F .text.__sigtramp	00000010 __sigtramp
20000060 g     O .data	0000016c __global_locale
080003ac g     F .text	0000000c SysTick_Check_Timeout
08003c88 g     F .text.vfprintf	00000014 vfprintf
200001d7 g     O .bss	00000001 __lock___sfp_recursive_mutex
08004a9c g     F .text.raise	00000010 raise
080002d4 g     F .text	00000006 _close
08002b24 g     F .text.free	00000010 free
08002d48 g     F .text.__multadd	0000008c __multadd
08002d04 g     F .text._Bfree	00000044 _Bfree



Disassembly of section .text:

08000000 <__RO_BASE__>:
 8000000:	20020000 			@ <UNDEFINED> instruction: 20020000
 8000004:	08000009 			@ <UNDEFINED> instruction: 08000009

08000008 <__start>:

	.equ GPIOA_LCKR,	0x4002001C @ Lock PA[14:13] for ST-LINK
	.equ RCC_AHB1ENR,  	0x40023830 @ PA : [0] = 1, PC : [2] = 1

	@ GPIOA, GPIOC clock on
	LDR   	r0, =RCC_AHB1ENR
 8000008:	4813      	ldr	r0, [pc, #76]	@ (8000058 <__start+0x50>)
	LDR   	r1, [r0]
 800000a:	6801      	ldr	r1, [r0, #0]
	ORR	  	r1, r1, #(0x1<<2)|(0x1<<0)
 800000c:	f041 0105 	orr.w	r1, r1, #5
	STR   	r1, [r0]
 8000010:	6001      	str	r1, [r0, #0]

	@ Lock PA[14:13] pin configuration for ST-LINK
	LDR		r0, =GPIOA_LCKR
 8000012:	4812      	ldr	r0, [pc, #72]	@ (800005c <__start+0x54>)
	LDR		r1, =(0x1<<16)|(0x3<<13)
 8000014:	f44f 31b0 	mov.w	r1, #90112	@ 0x16000
	STR		r1, [r0]
 8000018:	6001      	str	r1, [r0, #0]
	LDR		r1, =(0x0<<16)|(0x3<<13)
 800001a:	f44f 41c0 	mov.w	r1, #24576	@ 0x6000
	STR		r1, [r0]
 800001e:	6001      	str	r1, [r0, #0]
	LDR		r1, =(0x1<<16)|(0x3<<13)
 8000020:	f44f 31b0 	mov.w	r1, #90112	@ 0x16000
	STR		r1, [r0]
 8000024:	6001      	str	r1, [r0, #0]
	LDR		r1, [r0]
 8000026:	6801      	ldr	r1, [r0, #0]
	.extern __RO_LIMIT__
	.extern __RW_BASE__
	.extern __ZI_BASE__
	.extern __ZI_LIMIT__

	LDR		r0, =__RO_LIMIT__
 8000028:	480d      	ldr	r0, [pc, #52]	@ (8000060 <__start+0x58>)
	LDR		r1, =__RW_BASE__
 800002a:	490e      	ldr	r1, [pc, #56]	@ (8000064 <__start+0x5c>)
	LDR		r3, =__ZI_BASE__
 800002c:	4b0e      	ldr	r3, [pc, #56]	@ (8000068 <__start+0x60>)

	CMP		r0, r1
 800002e:	4288      	cmp	r0, r1
	BEQ		2f
 8000030:	d006      	beq.n	8000040 <__start+0x38>

1:
	CMP		r1, r3
 8000032:	4299      	cmp	r1, r3
	ITT		LO
 8000034:	bf3c      	itt	cc
	LDRLO	r2, [r0], #4
 8000036:	f850 2b04 	ldrcc.w	r2, [r0], #4
	STRLO	r2, [r1], #4
 800003a:	f841 2b04 	strcc.w	r2, [r1], #4
	BLO		1b
 800003e:	d3f8      	bcc.n	8000032 <__start+0x2a>

2:
	LDR		r1, =__ZI_LIMIT__
 8000040:	490a      	ldr	r1, [pc, #40]	@ (800006c <__start+0x64>)
	MOV		r2, #0x0
 8000042:	f04f 0200 	mov.w	r2, #0
3:
	CMP		r3, r1
 8000046:	428b      	cmp	r3, r1
	ITT		lo
 8000048:	bf3c      	itt	cc
	STRLO	r2, [r3], #4
 800004a:	f843 2b04 	strcc.w	r2, [r3], #4
	BLO		3b
 800004e:	e7fa      	bcc.n	8000046 <__start+0x3e>

	.extern Main

	BL		Main
 8000050:	f000 f892 	bl	8000178 <Main>

	B		.
 8000054:	e7fe      	b.n	8000054 <__start+0x4c>
 8000056:	38300000 			@ <UNDEFINED> instruction: 38300000
	LDR   	r0, =RCC_AHB1ENR
 800005a:	001c4002 			@ <UNDEFINED> instruction: 001c4002
	LDR		r0, =GPIOA_LCKR
 800005e:	4f204002 			@ <UNDEFINED> instruction: 4f204002
	LDR		r0, =__RO_LIMIT__
 8000062:	00000800 			@ <UNDEFINED> instruction: 00000800
	LDR		r1, =__RW_BASE__
 8000066:	01cc2000 			@ <UNDEFINED> instruction: 01cc2000
	LDR		r3, =__ZI_BASE__
 800006a:	03242000 			@ <UNDEFINED> instruction: 03242000
	LDR		r1, =__ZI_LIMIT__
 800006e:	 			@ <UNDEFINED> instruction: 4a142000

08000070 <Clock_Init>:
 8000070:	4a14      	ldr	r2, [pc, #80]	@ (80000c4 <Clock_Init+0x54>)
 8000072:	6813      	ldr	r3, [r2, #0]
 8000074:	f043 0301 	orr.w	r3, r3, #1
 8000078:	6013      	str	r3, [r2, #0]
 800007a:	6813      	ldr	r3, [r2, #0]
 800007c:	0799      	lsls	r1, r3, #30
 800007e:	d5fc      	bpl.n	800007a <Clock_Init+0xa>
 8000080:	4b11      	ldr	r3, [pc, #68]	@ (80000c8 <Clock_Init+0x58>)
 8000082:	4912      	ldr	r1, [pc, #72]	@ (80000cc <Clock_Init+0x5c>)
 8000084:	f44f 5cc0 	mov.w	ip, #6144	@ 0x1800
 8000088:	f240 7003 	movw	r0, #1795	@ 0x703
 800008c:	f8c3 c000 	str.w	ip, [r3]
 8000090:	6018      	str	r0, [r3, #0]
 8000092:	6051      	str	r1, [r2, #4]
 8000094:	6813      	ldr	r3, [r2, #0]
 8000096:	490b      	ldr	r1, [pc, #44]	@ (80000c4 <Clock_Init+0x54>)
 8000098:	f043 7380 	orr.w	r3, r3, #16777216	@ 0x1000000
 800009c:	6013      	str	r3, [r2, #0]
 800009e:	680b      	ldr	r3, [r1, #0]
 80000a0:	019b      	lsls	r3, r3, #6
 80000a2:	d5fc      	bpl.n	800009e <Clock_Init+0x2e>
 80000a4:	f44f 5380 	mov.w	r3, #4096	@ 0x1000
 80000a8:	608b      	str	r3, [r1, #8]
 80000aa:	688b      	ldr	r3, [r1, #8]
 80000ac:	4a05      	ldr	r2, [pc, #20]	@ (80000c4 <Clock_Init+0x54>)
 80000ae:	f023 0303 	bic.w	r3, r3, #3
 80000b2:	f043 0302 	orr.w	r3, r3, #2
 80000b6:	608b      	str	r3, [r1, #8]
 80000b8:	6893      	ldr	r3, [r2, #8]
 80000ba:	f003 030c 	and.w	r3, r3, #12
 80000be:	2b08      	cmp	r3, #8
 80000c0:	d1fa      	bne.n	80000b8 <Clock_Init+0x48>
 80000c2:	4770      	bx	lr
 80000c4:	40023800 			@ <UNDEFINED> instruction: 40023800
 80000c8:	40023c00 			@ <UNDEFINED> instruction: 40023c00
 80000cc:	08013008 			@ <UNDEFINED> instruction: 08013008

080000d0 <Key_Poll_Init>:
 80000d0:	4905      	ldr	r1, [pc, #20]	@ (80000e8 <Key_Poll_Init+0x18>)
 80000d2:	4a06      	ldr	r2, [pc, #24]	@ (80000ec <Key_Poll_Init+0x1c>)
 80000d4:	6b0b      	ldr	r3, [r1, #48]	@ 0x30
 80000d6:	f043 0304 	orr.w	r3, r3, #4
 80000da:	630b      	str	r3, [r1, #48]	@ 0x30
 80000dc:	6813      	ldr	r3, [r2, #0]
 80000de:	f023 6340 	bic.w	r3, r3, #201326592	@ 0xc000000
 80000e2:	6013      	str	r3, [r2, #0]
 80000e4:	4770      	bx	lr
 80000e6:	bf00      	nop
 80000e8:	40023800 			@ <UNDEFINED> instruction: 40023800
 80000ec:	40020800 			@ <UNDEFINED> instruction: 40020800

080000f0 <Key_Get_Pressed>:
 80000f0:	4b03      	ldr	r3, [pc, #12]	@ (8000100 <Key_Get_Pressed+0x10>)
 80000f2:	6918      	ldr	r0, [r3, #16]
 80000f4:	f3c0 3040 	ubfx	r0, r0, #13, #1
 80000f8:	f080 0001 	eor.w	r0, r0, #1
 80000fc:	4770      	bx	lr
 80000fe:	bf00      	nop
 8000100:	40020800 			@ <UNDEFINED> instruction: 40020800

08000104 <Key_Wait_Key_Pressed>:
 8000104:	4a02      	ldr	r2, [pc, #8]	@ (8000110 <Key_Wait_Key_Pressed+0xc>)
 8000106:	6913      	ldr	r3, [r2, #16]
 8000108:	049b      	lsls	r3, r3, #18
 800010a:	d4fc      	bmi.n	8000106 <Key_Wait_Key_Pressed+0x2>
 800010c:	4770      	bx	lr
 800010e:	bf00      	nop
 8000110:	40020800 			@ <UNDEFINED> instruction: 40020800

08000114 <Key_Wait_Key_Released>:
 8000114:	4a02      	ldr	r2, [pc, #8]	@ (8000120 <Key_Wait_Key_Released+0xc>)
 8000116:	6913      	ldr	r3, [r2, #16]
 8000118:	049b      	lsls	r3, r3, #18
 800011a:	d5fc      	bpl.n	8000116 <Key_Wait_Key_Released+0x2>
 800011c:	4770      	bx	lr
 800011e:	bf00      	nop
 8000120:	40020800 			@ <UNDEFINED> instruction: 40020800

08000124 <LED_Init>:
 8000124:	490a      	ldr	r1, [pc, #40]	@ (8000150 <LED_Init+0x2c>)
 8000126:	4b0b      	ldr	r3, [pc, #44]	@ (8000154 <LED_Init+0x30>)
 8000128:	6b0a      	ldr	r2, [r1, #48]	@ 0x30
 800012a:	f042 0201 	orr.w	r2, r2, #1
 800012e:	630a      	str	r2, [r1, #48]	@ 0x30
 8000130:	681a      	ldr	r2, [r3, #0]
 8000132:	f422 6240 	bic.w	r2, r2, #3072	@ 0xc00
 8000136:	f442 6280 	orr.w	r2, r2, #1024	@ 0x400
 800013a:	601a      	str	r2, [r3, #0]
 800013c:	685a      	ldr	r2, [r3, #4]
 800013e:	f022 0220 	bic.w	r2, r2, #32
 8000142:	605a      	str	r2, [r3, #4]
 8000144:	695a      	ldr	r2, [r3, #20]
 8000146:	f022 0220 	bic.w	r2, r2, #32
 800014a:	615a      	str	r2, [r3, #20]
 800014c:	4770      	bx	lr
 800014e:	bf00      	nop
 8000150:	40023800 			@ <UNDEFINED> instruction: 40023800
 8000154:	40020000 			@ <UNDEFINED> instruction: 40020000

08000158 <LED_On>:
 8000158:	4a02      	ldr	r2, [pc, #8]	@ (8000164 <LED_On+0xc>)
 800015a:	6953      	ldr	r3, [r2, #20]
 800015c:	f043 0320 	orr.w	r3, r3, #32
 8000160:	6153      	str	r3, [r2, #20]
 8000162:	4770      	bx	lr
 8000164:	40020000 			@ <UNDEFINED> instruction: 40020000

08000168 <LED_Off>:
 8000168:	4a02      	ldr	r2, [pc, #8]	@ (8000174 <LED_Off+0xc>)
 800016a:	6953      	ldr	r3, [r2, #20]
 800016c:	f023 0320 	bic.w	r3, r3, #32
 8000170:	6153      	str	r3, [r2, #20]
 8000172:	4770      	bx	lr
 8000174:	40020000 			@ <UNDEFINED> instruction: 40020000

08000178 <Main>:
 8000178:	b570      	push	{r4, r5, r6, lr}
 800017a:	4a39      	ldr	r2, [pc, #228]	@ (8000260 <Main+0xe8>)
 800017c:	f8d2 3088 	ldr.w	r3, [r2, #136]	@ 0x88
 8000180:	f443 0370 	orr.w	r3, r3, #15728640	@ 0xf00000
 8000184:	b082      	sub	sp, #8
 8000186:	f8c2 3088 	str.w	r3, [r2, #136]	@ 0x88
 800018a:	f7ff ff71 	bl	8000070 <Clock_Init>
 800018e:	f44f 30e1 	mov.w	r0, #115200	@ 0x1c200
 8000192:	f000 f921 	bl	80003d8 <Uart2_Init>
 8000196:	4a33      	ldr	r2, [pc, #204]	@ (8000264 <Main+0xec>)
 8000198:	6811      	ldr	r1, [r2, #0]
 800019a:	2300      	movs	r3, #0
 800019c:	2202      	movs	r2, #2
 800019e:	6888      	ldr	r0, [r1, #8]
 80001a0:	4619      	mov	r1, r3
 80001a2:	f001 fd1b 	bl	8001bdc <setvbuf>
 80001a6:	f7ff ffbd 	bl	8000124 <LED_Init>
 80001aa:	482f      	ldr	r0, [pc, #188]	@ (8000268 <Main+0xf0>)
 80001ac:	f001 fd04 	bl	8001bb8 <iprintf>
 80001b0:	2301      	movs	r3, #1
 80001b2:	9300      	str	r3, [sp, #0]
 80001b4:	9b00      	ldr	r3, [sp, #0]
 80001b6:	2b04      	cmp	r3, #4
 80001b8:	dc2f      	bgt.n	800021a <Main+0xa2>
 80001ba:	a527      	add	r5, pc, #156	@ (adr r5, 8000258 <Main+0xe0>)
 80001bc:	e9d5 4500 	ldrd	r4, r5, [r5]
 80001c0:	f44f 707a 	mov.w	r0, #1000	@ 0x3e8
 80001c4:	f000 f8de 	bl	8000384 <SysTick_Run>
 80001c8:	2200      	movs	r2, #0
 80001ca:	9b00      	ldr	r3, [sp, #0]
 80001cc:	9201      	str	r2, [sp, #4]
 80001ce:	9901      	ldr	r1, [sp, #4]
 80001d0:	ebb1 4f83 	cmp.w	r1, r3, lsl #18
 80001d4:	ea4f 4283 	mov.w	r2, r3, lsl #18
 80001d8:	d205      	bcs.n	80001e6 <Main+0x6e>
 80001da:	9b01      	ldr	r3, [sp, #4]
 80001dc:	3301      	adds	r3, #1
 80001de:	9301      	str	r3, [sp, #4]
 80001e0:	9b01      	ldr	r3, [sp, #4]
 80001e2:	4293      	cmp	r3, r2
 80001e4:	d3f9      	bcc.n	80001da <Main+0x62>
 80001e6:	f000 f8ef 	bl	80003c8 <SysTick_Stop>
 80001ea:	f000 f8e9 	bl	80003c0 <SysTick_Get_Load_Time>
 80001ee:	4606      	mov	r6, r0
 80001f0:	f000 f8e2 	bl	80003b8 <SysTick_Get_Time>
 80001f4:	1a30      	subs	r0, r6, r0
 80001f6:	f000 fd21 	bl	8000c3c <__aeabi_ui2d>
 80001fa:	462b      	mov	r3, r5
 80001fc:	4622      	mov	r2, r4
 80001fe:	f000 fd97 	bl	8000d30 <__aeabi_dmul>
 8000202:	f001 f845 	bl	8001290 <__aeabi_d2iz>
 8000206:	4601      	mov	r1, r0
 8000208:	4818      	ldr	r0, [pc, #96]	@ (800026c <Main+0xf4>)
 800020a:	f001 fcd5 	bl	8001bb8 <iprintf>
 800020e:	9b00      	ldr	r3, [sp, #0]
 8000210:	3301      	adds	r3, #1
 8000212:	9300      	str	r3, [sp, #0]
 8000214:	9b00      	ldr	r3, [sp, #0]
 8000216:	2b04      	cmp	r3, #4
 8000218:	ddd2      	ble.n	80001c0 <Main+0x48>
 800021a:	4815      	ldr	r0, [pc, #84]	@ (8000270 <Main+0xf8>)
 800021c:	f001 fccc 	bl	8001bb8 <iprintf>
 8000220:	2300      	movs	r3, #0
 8000222:	f44f 707a 	mov.w	r0, #1000	@ 0x3e8
 8000226:	9300      	str	r3, [sp, #0]
 8000228:	f000 f8ac 	bl	8000384 <SysTick_Run>
 800022c:	f000 f8be 	bl	80003ac <SysTick_Check_Timeout>
 8000230:	2800      	cmp	r0, #0
 8000232:	d0fb      	beq.n	800022c <Main+0xb4>
 8000234:	9b00      	ldr	r3, [sp, #0]
 8000236:	f083 0201 	eor.w	r2, r3, #1
 800023a:	2b01      	cmp	r3, #1
 800023c:	9200      	str	r2, [sp, #0]
 800023e:	d005      	beq.n	800024c <Main+0xd4>
 8000240:	f7ff ff8a 	bl	8000158 <LED_On>
 8000244:	480b      	ldr	r0, [pc, #44]	@ (8000274 <Main+0xfc>)
 8000246:	f001 fcb7 	bl	8001bb8 <iprintf>
 800024a:	e7ef      	b.n	800022c <Main+0xb4>
 800024c:	f7ff ff8c 	bl	8000168 <LED_Off>
 8000250:	e7f8      	b.n	8000244 <Main+0xcc>
 8000252:	bf00      	nop
 8000254:	f3af 8000 	nop.w
 8000258:	c3ece2a5 			@ <UNDEFINED> instruction: c3ece2a5
 800025c:	3f15d867 			@ <UNDEFINED> instruction: 3f15d867
 8000260:	e000ed00 			@ <UNDEFINED> instruction: e000ed00
 8000264:	20000004 			@ <UNDEFINED> instruction: 20000004
 8000268:	08004b28 			@ <UNDEFINED> instruction: 08004b28
 800026c:	08004b44 			@ <UNDEFINED> instruction: 08004b44
 8000270:	08004b5c 			@ <UNDEFINED> instruction: 08004b5c
 8000274:	08004b78 			@ <UNDEFINED> instruction: 08004b78

08000278 <_sbrk>:
 8000278:	490b      	ldr	r1, [pc, #44]	@ (80002a8 <_sbrk+0x30>)
 800027a:	4b0c      	ldr	r3, [pc, #48]	@ (80002ac <_sbrk+0x34>)
 800027c:	680a      	ldr	r2, [r1, #0]
 800027e:	f023 0307 	bic.w	r3, r3, #7
 8000282:	b162      	cbz	r2, 800029e <_sbrk+0x26>
 8000284:	4694      	mov	ip, r2
 8000286:	3007      	adds	r0, #7
 8000288:	4460      	add	r0, ip
 800028a:	f020 0007 	bic.w	r0, r0, #7
 800028e:	f503 5380 	add.w	r3, r3, #4096	@ 0x1000
 8000292:	4298      	cmp	r0, r3
 8000294:	bf2c      	ite	cs
 8000296:	2200      	movcs	r2, #0
 8000298:	6008      	strcc	r0, [r1, #0]
 800029a:	4610      	mov	r0, r2
 800029c:	4770      	bx	lr
 800029e:	461a      	mov	r2, r3
 80002a0:	600b      	str	r3, [r1, #0]
 80002a2:	469c      	mov	ip, r3
 80002a4:	e7ef      	b.n	8000286 <_sbrk+0xe>
 80002a6:	bf00      	nop
 80002a8:	200001cc 			@ <UNDEFINED> instruction: 200001cc
 80002ac:	2000032b 			@ <UNDEFINED> instruction: 2000032b

080002b0 <_write>:
 80002b0:	b570      	push	{r4, r5, r6, lr}
 80002b2:	1e16      	subs	r6, r2, #0
 80002b4:	dd07      	ble.n	80002c6 <_write+0x16>
 80002b6:	460c      	mov	r4, r1
 80002b8:	198d      	adds	r5, r1, r6
 80002ba:	f814 0b01 	ldrb.w	r0, [r4], #1
 80002be:	f000 f901 	bl	80004c4 <Uart2_Send_Byte>
 80002c2:	42a5      	cmp	r5, r4
 80002c4:	d1f9      	bne.n	80002ba <_write+0xa>
 80002c6:	4630      	mov	r0, r6
 80002c8:	bd70      	pop	{r4, r5, r6, pc}
 80002ca:	bf00      	nop

080002cc <_read>:
 80002cc:	2000      	movs	r0, #0
 80002ce:	4770      	bx	lr

080002d0 <_lseek>:
 80002d0:	2000      	movs	r0, #0
 80002d2:	4770      	bx	lr

080002d4 <_close>:
 80002d4:	f04f 30ff 	mov.w	r0, #4294967295
 80002d8:	4770      	bx	lr
 80002da:	bf00      	nop

080002dc <_fstat>:
 80002dc:	f44f 5300 	mov.w	r3, #8192	@ 0x2000
 80002e0:	604b      	str	r3, [r1, #4]
 80002e2:	2000      	movs	r0, #0
 80002e4:	4770      	bx	lr
 80002e6:	bf00      	nop

080002e8 <_isatty>:
 80002e8:	2001      	movs	r0, #1
 80002ea:	4770      	bx	lr

080002ec <_getpid>:
 80002ec:	2001      	movs	r0, #1
 80002ee:	4770      	bx	lr

080002f0 <_kill>:
 80002f0:	b508      	push	{r3, lr}
 80002f2:	f001 fd51 	bl	8001d98 <__errno>
 80002f6:	2316      	movs	r3, #22
 80002f8:	6003      	str	r3, [r0, #0]
 80002fa:	f04f 30ff 	mov.w	r0, #4294967295
 80002fe:	bd08      	pop	{r3, pc}

08000300 <SystemInit>:
 8000300:	4a03      	ldr	r2, [pc, #12]	@ (8000310 <SystemInit+0x10>)
 8000302:	f8d2 3088 	ldr.w	r3, [r2, #136]	@ 0x88
 8000306:	f443 0370 	orr.w	r3, r3, #15728640	@ 0xf00000
 800030a:	f8c2 3088 	str.w	r3, [r2, #136]	@ 0x88
 800030e:	4770      	bx	lr
 8000310:	e000ed00 			@ <UNDEFINED> instruction: e000ed00

08000314 <SystemCoreClockUpdate>:
 8000314:	4a16      	ldr	r2, [pc, #88]	@ (8000370 <SystemCoreClockUpdate+0x5c>)
 8000316:	6893      	ldr	r3, [r2, #8]
 8000318:	f003 030c 	and.w	r3, r3, #12
 800031c:	2b04      	cmp	r3, #4
 800031e:	d025      	beq.n	800036c <SystemCoreClockUpdate+0x58>
 8000320:	2b08      	cmp	r3, #8
 8000322:	d00a      	beq.n	800033a <SystemCoreClockUpdate+0x26>
 8000324:	4b13      	ldr	r3, [pc, #76]	@ (8000374 <SystemCoreClockUpdate+0x60>)
 8000326:	4a12      	ldr	r2, [pc, #72]	@ (8000370 <SystemCoreClockUpdate+0x5c>)
 8000328:	4813      	ldr	r0, [pc, #76]	@ (8000378 <SystemCoreClockUpdate+0x64>)
 800032a:	6892      	ldr	r2, [r2, #8]
 800032c:	4913      	ldr	r1, [pc, #76]	@ (800037c <SystemCoreClockUpdate+0x68>)
 800032e:	f3c2 1203 	ubfx	r2, r2, #4, #4
 8000332:	5c82      	ldrb	r2, [r0, r2]
 8000334:	40d3      	lsrs	r3, r2
 8000336:	600b      	str	r3, [r1, #0]
 8000338:	4770      	bx	lr
 800033a:	6853      	ldr	r3, [r2, #4]
 800033c:	6851      	ldr	r1, [r2, #4]
 800033e:	f413 0f80 	tst.w	r3, #4194304	@ 0x400000
 8000342:	6853      	ldr	r3, [r2, #4]
 8000344:	bf14      	ite	ne
 8000346:	4a0e      	ldrne	r2, [pc, #56]	@ (8000380 <SystemCoreClockUpdate+0x6c>)
 8000348:	4a0a      	ldreq	r2, [pc, #40]	@ (8000374 <SystemCoreClockUpdate+0x60>)
 800034a:	f3c3 1388 	ubfx	r3, r3, #6, #9
 800034e:	f001 013f 	and.w	r1, r1, #63	@ 0x3f
 8000352:	fbb2 f2f1 	udiv	r2, r2, r1
 8000356:	fb02 f303 	mul.w	r3, r2, r3
 800035a:	4a05      	ldr	r2, [pc, #20]	@ (8000370 <SystemCoreClockUpdate+0x5c>)
 800035c:	6852      	ldr	r2, [r2, #4]
 800035e:	f3c2 4201 	ubfx	r2, r2, #16, #2
 8000362:	3201      	adds	r2, #1
 8000364:	0052      	lsls	r2, r2, #1
 8000366:	fbb3 f3f2 	udiv	r3, r3, r2
 800036a:	e7dc      	b.n	8000326 <SystemCoreClockUpdate+0x12>
 800036c:	4b04      	ldr	r3, [pc, #16]	@ (8000380 <SystemCoreClockUpdate+0x6c>)
 800036e:	e7da      	b.n	8000326 <SystemCoreClockUpdate+0x12>
 8000370:	40023800 			@ <UNDEFINED> instruction: 40023800
 8000374:	00f42400 			@ <UNDEFINED> instruction: 00f42400
 8000378:	08004b10 			@ <UNDEFINED> instruction: 08004b10
 800037c:	20000000 			@ <UNDEFINED> instruction: 20000000
 8000380:	017d7840 			@ <UNDEFINED> instruction: 017d7840

08000384 <SysTick_Run>:
 8000384:	f04f 23e0 	mov.w	r3, #3758153728	@ 0xe000e000
 8000388:	f642 61e0 	movw	r1, #12000	@ 0x2ee0
 800038c:	691a      	ldr	r2, [r3, #16]
 800038e:	f022 0207 	bic.w	r2, r2, #7
 8000392:	f042 0201 	orr.w	r2, r2, #1
 8000396:	fb01 f000 	mul.w	r0, r1, r0
 800039a:	2100      	movs	r1, #0
 800039c:	611a      	str	r2, [r3, #16]
 800039e:	6158      	str	r0, [r3, #20]
 80003a0:	6199      	str	r1, [r3, #24]
 80003a2:	691a      	ldr	r2, [r3, #16]
 80003a4:	f042 0201 	orr.w	r2, r2, #1
 80003a8:	611a      	str	r2, [r3, #16]
 80003aa:	4770      	bx	lr

080003ac <SysTick_Check_Timeout>:
 80003ac:	f04f 23e0 	mov.w	r3, #3758153728	@ 0xe000e000
 80003b0:	6918      	ldr	r0, [r3, #16]
 80003b2:	f3c0 4000 	ubfx	r0, r0, #16, #1
 80003b6:	4770      	bx	lr

080003b8 <SysTick_Get_Time>:
 80003b8:	f04f 23e0 	mov.w	r3, #3758153728	@ 0xe000e000
 80003bc:	6998      	ldr	r0, [r3, #24]
 80003be:	4770      	bx	lr

080003c0 <SysTick_Get_Load_Time>:
 80003c0:	f04f 23e0 	mov.w	r3, #3758153728	@ 0xe000e000
 80003c4:	6958      	ldr	r0, [r3, #20]
 80003c6:	4770      	bx	lr

080003c8 <SysTick_Stop>:
 80003c8:	f04f 22e0 	mov.w	r2, #3758153728	@ 0xe000e000
 80003cc:	6913      	ldr	r3, [r2, #16]
 80003ce:	f023 0301 	bic.w	r3, r3, #1
 80003d2:	6113      	str	r3, [r2, #16]
 80003d4:	4770      	bx	lr
 80003d6:	bf00      	nop

080003d8 <Uart2_Init>:
 80003d8:	b570      	push	{r4, r5, r6, lr}
 80003da:	4a35      	ldr	r2, [pc, #212]	@ (80004b0 <Uart2_Init+0xd8>)
 80003dc:	4b35      	ldr	r3, [pc, #212]	@ (80004b4 <Uart2_Init+0xdc>)
 80003de:	6b11      	ldr	r1, [r2, #48]	@ 0x30
 80003e0:	f041 0101 	orr.w	r1, r1, #1
 80003e4:	b082      	sub	sp, #8
 80003e6:	6311      	str	r1, [r2, #48]	@ 0x30
 80003e8:	6c11      	ldr	r1, [r2, #64]	@ 0x40
 80003ea:	f441 3100 	orr.w	r1, r1, #131072	@ 0x20000
 80003ee:	6411      	str	r1, [r2, #64]	@ 0x40
 80003f0:	681a      	ldr	r2, [r3, #0]
 80003f2:	f022 02f0 	bic.w	r2, r2, #240	@ 0xf0
 80003f6:	f042 02a0 	orr.w	r2, r2, #160	@ 0xa0
 80003fa:	601a      	str	r2, [r3, #0]
 80003fc:	6a1a      	ldr	r2, [r3, #32]
 80003fe:	f422 427f 	bic.w	r2, r2, #65280	@ 0xff00
 8000402:	f442 42ee 	orr.w	r2, r2, #30464	@ 0x7700
 8000406:	621a      	str	r2, [r3, #32]
 8000408:	68da      	ldr	r2, [r3, #12]
 800040a:	f022 02f0 	bic.w	r2, r2, #240	@ 0xf0
 800040e:	f042 0250 	orr.w	r2, r2, #80	@ 0x50
 8000412:	60da      	str	r2, [r3, #12]
 8000414:	69da      	ldr	r2, [r3, #28]
 8000416:	f3c2 020e 	ubfx	r2, r2, #0, #15
 800041a:	9201      	str	r2, [sp, #4]
 800041c:	9a01      	ldr	r2, [sp, #4]
 800041e:	f442 3280 	orr.w	r2, r2, #65536	@ 0x10000
 8000422:	f042 020c 	orr.w	r2, r2, #12
 8000426:	61da      	str	r2, [r3, #28]
 8000428:	9a01      	ldr	r2, [sp, #4]
 800042a:	f042 020c 	orr.w	r2, r2, #12
 800042e:	61da      	str	r2, [r3, #28]
 8000430:	9a01      	ldr	r2, [sp, #4]
 8000432:	f442 3280 	orr.w	r2, r2, #65536	@ 0x10000
 8000436:	f042 020c 	orr.w	r2, r2, #12
 800043a:	61da      	str	r2, [r3, #28]
 800043c:	69db      	ldr	r3, [r3, #28]
 800043e:	9301      	str	r3, [sp, #4]
 8000440:	f000 fc0c 	bl	8000c5c <__aeabi_i2d>
 8000444:	4b1c      	ldr	r3, [pc, #112]	@ (80004b8 <Uart2_Init+0xe0>)
 8000446:	2200      	movs	r2, #0
 8000448:	f000 fc72 	bl	8000d30 <__aeabi_dmul>
 800044c:	4602      	mov	r2, r0
 800044e:	460b      	mov	r3, r1
 8000450:	a115      	add	r1, pc, #84	@ (adr r1, 80004a8 <Uart2_Init+0xd0>)
 8000452:	e9d1 0100 	ldrd	r0, r1, [r1]
 8000456:	f000 fd95 	bl	8000f84 <__aeabi_ddiv>
 800045a:	460d      	mov	r5, r1
 800045c:	4604      	mov	r4, r0
 800045e:	f000 ff17 	bl	8001290 <__aeabi_d2iz>
 8000462:	4606      	mov	r6, r0
 8000464:	f000 fbea 	bl	8000c3c <__aeabi_ui2d>
 8000468:	4602      	mov	r2, r0
 800046a:	460b      	mov	r3, r1
 800046c:	4620      	mov	r0, r4
 800046e:	4629      	mov	r1, r5
 8000470:	f000 faa6 	bl	80009c0 <__aeabi_dsub>
 8000474:	4b10      	ldr	r3, [pc, #64]	@ (80004b8 <Uart2_Init+0xe0>)
 8000476:	2200      	movs	r2, #0
 8000478:	f000 fc5a 	bl	8000d30 <__aeabi_dmul>
 800047c:	4b0f      	ldr	r3, [pc, #60]	@ (80004bc <Uart2_Init+0xe4>)
 800047e:	2200      	movs	r2, #0
 8000480:	f000 faa0 	bl	80009c4 <__adddf3>
 8000484:	f000 ff04 	bl	8001290 <__aeabi_d2iz>
 8000488:	4b0d      	ldr	r3, [pc, #52]	@ (80004c0 <Uart2_Init+0xe8>)
 800048a:	eb06 1210 	add.w	r2, r6, r0, lsr #4
 800048e:	f000 000f 	and.w	r0, r0, #15
 8000492:	2100      	movs	r1, #0
 8000494:	ea40 1002 	orr.w	r0, r0, r2, lsl #4
 8000498:	f242 020c 	movw	r2, #8204	@ 0x200c
 800049c:	6098      	str	r0, [r3, #8]
 800049e:	60da      	str	r2, [r3, #12]
 80004a0:	6119      	str	r1, [r3, #16]
 80004a2:	6159      	str	r1, [r3, #20]
 80004a4:	b002      	add	sp, #8
 80004a6:	bd70      	pop	{r4, r5, r6, pc}
 80004a8:	00000000 			@ <UNDEFINED> instruction: 00000000
 80004ac:	4186e360 			@ <UNDEFINED> instruction: 4186e360
 80004b0:	40023800 			@ <UNDEFINED> instruction: 40023800
 80004b4:	40020000 			@ <UNDEFINED> instruction: 40020000
 80004b8:	40300000 			@ <UNDEFINED> instruction: 40300000
 80004bc:	3fe00000 			@ <UNDEFINED> instruction: 3fe00000
 80004c0:	40004400 			@ <UNDEFINED> instruction: 40004400

080004c4 <Uart2_Send_Byte>:
 80004c4:	280a      	cmp	r0, #10
 80004c6:	d005      	beq.n	80004d4 <Uart2_Send_Byte+0x10>
 80004c8:	4a06      	ldr	r2, [pc, #24]	@ (80004e4 <Uart2_Send_Byte+0x20>)
 80004ca:	6813      	ldr	r3, [r2, #0]
 80004cc:	061b      	lsls	r3, r3, #24
 80004ce:	d5fc      	bpl.n	80004ca <Uart2_Send_Byte+0x6>
 80004d0:	6050      	str	r0, [r2, #4]
 80004d2:	4770      	bx	lr
 80004d4:	4a03      	ldr	r2, [pc, #12]	@ (80004e4 <Uart2_Send_Byte+0x20>)
 80004d6:	6813      	ldr	r3, [r2, #0]
 80004d8:	0619      	lsls	r1, r3, #24
 80004da:	d5fc      	bpl.n	80004d6 <Uart2_Send_Byte+0x12>
 80004dc:	230d      	movs	r3, #13
 80004de:	6053      	str	r3, [r2, #4]
 80004e0:	e7f2      	b.n	80004c8 <Uart2_Send_Byte+0x4>
 80004e2:	bf00      	nop
 80004e4:	40004400 			@ <UNDEFINED> instruction: 40004400

080004e8 <Uart1_Init>:
 80004e8:	b570      	push	{r4, r5, r6, lr}
 80004ea:	4a33      	ldr	r2, [pc, #204]	@ (80005b8 <Uart1_Init+0xd0>)
 80004ec:	4b33      	ldr	r3, [pc, #204]	@ (80005bc <Uart1_Init+0xd4>)
 80004ee:	6b11      	ldr	r1, [r2, #48]	@ 0x30
 80004f0:	f041 0101 	orr.w	r1, r1, #1
 80004f4:	b082      	sub	sp, #8
 80004f6:	6311      	str	r1, [r2, #48]	@ 0x30
 80004f8:	6c51      	ldr	r1, [r2, #68]	@ 0x44
 80004fa:	f041 0110 	orr.w	r1, r1, #16
 80004fe:	6451      	str	r1, [r2, #68]	@ 0x44
 8000500:	681a      	ldr	r2, [r3, #0]
 8000502:	f422 1270 	bic.w	r2, r2, #3932160	@ 0x3c0000
 8000506:	f442 1220 	orr.w	r2, r2, #2621440	@ 0x280000
 800050a:	601a      	str	r2, [r3, #0]
 800050c:	6a5a      	ldr	r2, [r3, #36]	@ 0x24
 800050e:	f422 627f 	bic.w	r2, r2, #4080	@ 0xff0
 8000512:	f442 62ee 	orr.w	r2, r2, #1904	@ 0x770
 8000516:	625a      	str	r2, [r3, #36]	@ 0x24
 8000518:	68da      	ldr	r2, [r3, #12]
 800051a:	f422 1270 	bic.w	r2, r2, #3932160	@ 0x3c0000
 800051e:	f442 12a0 	orr.w	r2, r2, #1310720	@ 0x140000
 8000522:	60da      	str	r2, [r3, #12]
 8000524:	69da      	ldr	r2, [r3, #28]
 8000526:	f3c2 020e 	ubfx	r2, r2, #0, #15
 800052a:	9201      	str	r2, [sp, #4]
 800052c:	9a01      	ldr	r2, [sp, #4]
 800052e:	f442 3283 	orr.w	r2, r2, #67072	@ 0x10600
 8000532:	61da      	str	r2, [r3, #28]
 8000534:	9a01      	ldr	r2, [sp, #4]
 8000536:	f442 62c0 	orr.w	r2, r2, #1536	@ 0x600
 800053a:	61da      	str	r2, [r3, #28]
 800053c:	9a01      	ldr	r2, [sp, #4]
 800053e:	f442 3283 	orr.w	r2, r2, #67072	@ 0x10600
 8000542:	61da      	str	r2, [r3, #28]
 8000544:	69db      	ldr	r3, [r3, #28]
 8000546:	9301      	str	r3, [sp, #4]
 8000548:	f000 fb88 	bl	8000c5c <__aeabi_i2d>
 800054c:	4b1c      	ldr	r3, [pc, #112]	@ (80005c0 <Uart1_Init+0xd8>)
 800054e:	2200      	movs	r2, #0
 8000550:	f000 fbee 	bl	8000d30 <__aeabi_dmul>
 8000554:	4602      	mov	r2, r0
 8000556:	460b      	mov	r3, r1
 8000558:	a115      	add	r1, pc, #84	@ (adr r1, 80005b0 <Uart1_Init+0xc8>)
 800055a:	e9d1 0100 	ldrd	r0, r1, [r1]
 800055e:	f000 fd11 	bl	8000f84 <__aeabi_ddiv>
 8000562:	460d      	mov	r5, r1
 8000564:	4604      	mov	r4, r0
 8000566:	f000 fe93 	bl	8001290 <__aeabi_d2iz>
 800056a:	4606      	mov	r6, r0
 800056c:	f000 fb66 	bl	8000c3c <__aeabi_ui2d>
 8000570:	4602      	mov	r2, r0
 8000572:	460b      	mov	r3, r1
 8000574:	4620      	mov	r0, r4
 8000576:	4629      	mov	r1, r5
 8000578:	f000 fa22 	bl	80009c0 <__aeabi_dsub>
 800057c:	4b10      	ldr	r3, [pc, #64]	@ (80005c0 <Uart1_Init+0xd8>)
 800057e:	2200      	movs	r2, #0
 8000580:	f000 fbd6 	bl	8000d30 <__aeabi_dmul>
 8000584:	4b0f      	ldr	r3, [pc, #60]	@ (80005c4 <Uart1_Init+0xdc>)
 8000586:	2200      	movs	r2, #0
 8000588:	f000 fa1c 	bl	80009c4 <__adddf3>
 800058c:	f000 fe80 	bl	8001290 <__aeabi_d2iz>
 8000590:	4b0d      	ldr	r3, [pc, #52]	@ (80005c8 <Uart1_Init+0xe0>)
 8000592:	eb06 1210 	add.w	r2, r6, r0, lsr #4
 8000596:	f000 000f 	and.w	r0, r0, #15
 800059a:	2100      	movs	r1, #0
 800059c:	ea40 1002 	orr.w	r0, r0, r2, lsl #4
 80005a0:	f242 020c 	movw	r2, #8204	@ 0x200c
 80005a4:	6098      	str	r0, [r3, #8]
 80005a6:	60da      	str	r2, [r3, #12]
 80005a8:	6119      	str	r1, [r3, #16]
 80005aa:	6159      	str	r1, [r3, #20]
 80005ac:	b002      	add	sp, #8
 80005ae:	bd70      	pop	{r4, r5, r6, pc}
 80005b0:	00000000 			@ <UNDEFINED> instruction: 00000000
 80005b4:	4196e360 			@ <UNDEFINED> instruction: 4196e360
 80005b8:	40023800 			@ <UNDEFINED> instruction: 40023800
 80005bc:	40020000 			@ <UNDEFINED> instruction: 40020000
 80005c0:	40300000 			@ <UNDEFINED> instruction: 40300000
 80005c4:	3fe00000 			@ <UNDEFINED> instruction: 3fe00000
 80005c8:	40011000 			@ <UNDEFINED> instruction: 40011000

080005cc <Uart1_Send_Byte>:
 80005cc:	280a      	cmp	r0, #10
 80005ce:	d005      	beq.n	80005dc <Uart1_Send_Byte+0x10>
 80005d0:	4a06      	ldr	r2, [pc, #24]	@ (80005ec <Uart1_Send_Byte+0x20>)
 80005d2:	6813      	ldr	r3, [r2, #0]
 80005d4:	061b      	lsls	r3, r3, #24
 80005d6:	d5fc      	bpl.n	80005d2 <Uart1_Send_Byte+0x6>
 80005d8:	6050      	str	r0, [r2, #4]
 80005da:	4770      	bx	lr
 80005dc:	4a03      	ldr	r2, [pc, #12]	@ (80005ec <Uart1_Send_Byte+0x20>)
 80005de:	6813      	ldr	r3, [r2, #0]
 80005e0:	0619      	lsls	r1, r3, #24
 80005e2:	d5fc      	bpl.n	80005de <Uart1_Send_Byte+0x12>
 80005e4:	230d      	movs	r3, #13
 80005e6:	6053      	str	r3, [r2, #4]
 80005e8:	e7f2      	b.n	80005d0 <Uart1_Send_Byte+0x4>
 80005ea:	bf00      	nop
 80005ec:	40011000 			@ <UNDEFINED> instruction: 40011000

080005f0 <Uart1_Send_String>:
 80005f0:	7801      	ldrb	r1, [r0, #0]
 80005f2:	b161      	cbz	r1, 800060e <Uart1_Send_String+0x1e>
 80005f4:	4a09      	ldr	r2, [pc, #36]	@ (800061c <Uart1_Send_String+0x2c>)
 80005f6:	f04f 0c0d 	mov.w	ip, #13
 80005fa:	290a      	cmp	r1, #10
 80005fc:	d008      	beq.n	8000610 <Uart1_Send_String+0x20>
 80005fe:	6813      	ldr	r3, [r2, #0]
 8000600:	061b      	lsls	r3, r3, #24
 8000602:	d5fc      	bpl.n	80005fe <Uart1_Send_String+0xe>
 8000604:	6051      	str	r1, [r2, #4]
 8000606:	f810 1f01 	ldrb.w	r1, [r0, #1]!
 800060a:	2900      	cmp	r1, #0
 800060c:	d1f5      	bne.n	80005fa <Uart1_Send_String+0xa>
 800060e:	4770      	bx	lr
 8000610:	6813      	ldr	r3, [r2, #0]
 8000612:	061b      	lsls	r3, r3, #24
 8000614:	d5fc      	bpl.n	8000610 <Uart1_Send_String+0x20>
 8000616:	f8c2 c004 	str.w	ip, [r2, #4]
 800061a:	e7f0      	b.n	80005fe <Uart1_Send_String+0xe>
 800061c:	40011000 			@ <UNDEFINED> instruction: 40011000

08000620 <Uart1_Printf>:
 8000620:	b40f      	push	{r0, r1, r2, r3}
 8000622:	b510      	push	{r4, lr}
 8000624:	b0c2      	sub	sp, #264	@ 0x108
 8000626:	aa44      	add	r2, sp, #272	@ 0x110
 8000628:	a802      	add	r0, sp, #8
 800062a:	f852 1b04 	ldr.w	r1, [r2], #4
 800062e:	9201      	str	r2, [sp, #4]
 8000630:	f001 fb9e 	bl	8001d70 <vsiprintf>
 8000634:	f89d 1008 	ldrb.w	r1, [sp, #8]
 8000638:	b161      	cbz	r1, 8000654 <Uart1_Printf+0x34>
 800063a:	4a0b      	ldr	r2, [pc, #44]	@ (8000668 <Uart1_Printf+0x48>)
 800063c:	a802      	add	r0, sp, #8
 800063e:	240d      	movs	r4, #13
 8000640:	290a      	cmp	r1, #10
 8000642:	d00c      	beq.n	800065e <Uart1_Printf+0x3e>
 8000644:	6813      	ldr	r3, [r2, #0]
 8000646:	061b      	lsls	r3, r3, #24
 8000648:	d5fc      	bpl.n	8000644 <Uart1_Printf+0x24>
 800064a:	6051      	str	r1, [r2, #4]
 800064c:	f810 1f01 	ldrb.w	r1, [r0, #1]!
 8000650:	2900      	cmp	r1, #0
 8000652:	d1f5      	bne.n	8000640 <Uart1_Printf+0x20>
 8000654:	b042      	add	sp, #264	@ 0x108
 8000656:	e8bd 4010 	ldmia.w	sp!, {r4, lr}
 800065a:	b004      	add	sp, #16
 800065c:	4770      	bx	lr
 800065e:	6813      	ldr	r3, [r2, #0]
 8000660:	061b      	lsls	r3, r3, #24
 8000662:	d5fc      	bpl.n	800065e <Uart1_Printf+0x3e>
 8000664:	6054      	str	r4, [r2, #4]
 8000666:	e7ed      	b.n	8000644 <Uart1_Printf+0x24>
 8000668:	40011000 			@ <UNDEFINED> instruction: 40011000

0800066c <Uart1_Get_Pressed>:
 800066c:	4b03      	ldr	r3, [pc, #12]	@ (800067c <Uart1_Get_Pressed+0x10>)
 800066e:	6818      	ldr	r0, [r3, #0]
 8000670:	f010 0020 	ands.w	r0, r0, #32
 8000674:	bf1c      	itt	ne
 8000676:	6858      	ldrne	r0, [r3, #4]
 8000678:	b2c0      	uxtbne	r0, r0
 800067a:	4770      	bx	lr
 800067c:	40011000 			@ <UNDEFINED> instruction: 40011000

08000680 <Uart1_Get_Char>:
 8000680:	4a03      	ldr	r2, [pc, #12]	@ (8000690 <Uart1_Get_Char+0x10>)
 8000682:	6813      	ldr	r3, [r2, #0]
 8000684:	069b      	lsls	r3, r3, #26
 8000686:	d5fc      	bpl.n	8000682 <Uart1_Get_Char+0x2>
 8000688:	6850      	ldr	r0, [r2, #4]
 800068a:	b2c0      	uxtb	r0, r0
 800068c:	4770      	bx	lr
 800068e:	bf00      	nop
 8000690:	40011000 			@ <UNDEFINED> instruction: 40011000
	...

080006a0 <memchr>:
 80006a0:	f001 01ff 	and.w	r1, r1, #255	@ 0xff
 80006a4:	2a10      	cmp	r2, #16
 80006a6:	db2b      	blt.n	8000700 <memchr+0x60>
 80006a8:	f010 0f07 	tst.w	r0, #7
 80006ac:	d008      	beq.n	80006c0 <memchr+0x20>
 80006ae:	f810 3b01 	ldrb.w	r3, [r0], #1
 80006b2:	3a01      	subs	r2, #1
 80006b4:	428b      	cmp	r3, r1
 80006b6:	d02d      	beq.n	8000714 <memchr+0x74>
 80006b8:	f010 0f07 	tst.w	r0, #7
 80006bc:	b342      	cbz	r2, 8000710 <memchr+0x70>
 80006be:	d1f6      	bne.n	80006ae <memchr+0xe>
 80006c0:	b4f0      	push	{r4, r5, r6, r7}
 80006c2:	ea41 2101 	orr.w	r1, r1, r1, lsl #8
 80006c6:	ea41 4101 	orr.w	r1, r1, r1, lsl #16
 80006ca:	f022 0407 	bic.w	r4, r2, #7
 80006ce:	f07f 0700 	mvns.w	r7, #0
 80006d2:	2300      	movs	r3, #0
 80006d4:	e8f0 5602 	ldrd	r5, r6, [r0], #8
 80006d8:	3c08      	subs	r4, #8
 80006da:	ea85 0501 	eor.w	r5, r5, r1
 80006de:	ea86 0601 	eor.w	r6, r6, r1
 80006e2:	fa85 f547 	uadd8	r5, r5, r7
 80006e6:	faa3 f587 	sel	r5, r3, r7
 80006ea:	fa86 f647 	uadd8	r6, r6, r7
 80006ee:	faa5 f687 	sel	r6, r5, r7
 80006f2:	b98e      	cbnz	r6, 8000718 <memchr+0x78>
 80006f4:	d1ee      	bne.n	80006d4 <memchr+0x34>
 80006f6:	bcf0      	pop	{r4, r5, r6, r7}
 80006f8:	f001 01ff 	and.w	r1, r1, #255	@ 0xff
 80006fc:	f002 0207 	and.w	r2, r2, #7
 8000700:	b132      	cbz	r2, 8000710 <memchr+0x70>
 8000702:	f810 3b01 	ldrb.w	r3, [r0], #1
 8000706:	3a01      	subs	r2, #1
 8000708:	ea83 0301 	eor.w	r3, r3, r1
 800070c:	b113      	cbz	r3, 8000714 <memchr+0x74>
 800070e:	d1f8      	bne.n	8000702 <memchr+0x62>
 8000710:	2000      	movs	r0, #0
 8000712:	4770      	bx	lr
 8000714:	3801      	subs	r0, #1
 8000716:	4770      	bx	lr
 8000718:	2d00      	cmp	r5, #0
 800071a:	bf06      	itte	eq
 800071c:	4635      	moveq	r5, r6
 800071e:	3803      	subeq	r0, #3
 8000720:	3807      	subne	r0, #7
 8000722:	f015 0f01 	tst.w	r5, #1
 8000726:	d107      	bne.n	8000738 <memchr+0x98>
 8000728:	3001      	adds	r0, #1
 800072a:	f415 7f80 	tst.w	r5, #256	@ 0x100
 800072e:	bf02      	ittt	eq
 8000730:	3001      	addeq	r0, #1
 8000732:	f415 3fc0 	tsteq.w	r5, #98304	@ 0x18000
 8000736:	3001      	addeq	r0, #1
 8000738:	bcf0      	pop	{r4, r5, r6, r7}
 800073a:	3801      	subs	r0, #1
 800073c:	4770      	bx	lr
 800073e:	bf00      	nop

08000740 <strlen>:
 8000740:	4603      	mov	r3, r0
 8000742:	f813 2b01 	ldrb.w	r2, [r3], #1
 8000746:	2a00      	cmp	r2, #0
 8000748:	d1fb      	bne.n	8000742 <strlen+0x2>
 800074a:	1a18      	subs	r0, r3, r0
 800074c:	3801      	subs	r0, #1
 800074e:	4770      	bx	lr

08000750 <strcmp>:
 8000750:	f810 2b01 	ldrb.w	r2, [r0], #1
 8000754:	f811 3b01 	ldrb.w	r3, [r1], #1
 8000758:	2a01      	cmp	r2, #1
 800075a:	bf28      	it	cs
 800075c:	429a      	cmpcs	r2, r3
 800075e:	d0f7      	beq.n	8000750 <strcmp>
 8000760:	1ad0      	subs	r0, r2, r3
 8000762:	4770      	bx	lr
 8000764:	b570      	push	{r4, r5, r6, lr}
 8000766:	f04f 0cff 	mov.w	ip, #255	@ 0xff
 800076a:	f44c 6ce0 	orr.w	ip, ip, #1792	@ 0x700
 800076e:	ea1c 5411 	ands.w	r4, ip, r1, lsr #20
 8000772:	bf1d      	ittte	ne
 8000774:	ea1c 5513 	andsne.w	r5, ip, r3, lsr #20
 8000778:	ea94 0f0c 	teqne	r4, ip
 800077c:	ea95 0f0c 	teqne	r5, ip
 8000780:	f000 f8de 	bleq	8000940 <strcmp+0x1f0>
 8000784:	442c      	add	r4, r5
 8000786:	ea81 0603 	eor.w	r6, r1, r3
 800078a:	ea21 514c 	bic.w	r1, r1, ip, lsl #21
 800078e:	ea23 534c 	bic.w	r3, r3, ip, lsl #21
 8000792:	ea50 3501 	orrs.w	r5, r0, r1, lsl #12
 8000796:	bf18      	it	ne
 8000798:	ea52 3503 	orrsne.w	r5, r2, r3, lsl #12
 800079c:	f441 1180 	orr.w	r1, r1, #1048576	@ 0x100000
 80007a0:	f443 1380 	orr.w	r3, r3, #1048576	@ 0x100000
 80007a4:	d038      	beq.n	8000818 <strcmp+0xc8>
 80007a6:	fba0 ce02 	umull	ip, lr, r0, r2
 80007aa:	f04f 0500 	mov.w	r5, #0
 80007ae:	fbe1 e502 	umlal	lr, r5, r1, r2
 80007b2:	f006 4200 	and.w	r2, r6, #2147483648	@ 0x80000000
 80007b6:	fbe0 e503 	umlal	lr, r5, r0, r3
 80007ba:	f04f 0600 	mov.w	r6, #0
 80007be:	fbe1 5603 	umlal	r5, r6, r1, r3
 80007c2:	f09c 0f00 	teq	ip, #0
 80007c6:	bf18      	it	ne
 80007c8:	f04e 0e01 	orrne.w	lr, lr, #1
 80007cc:	f1a4 04ff 	sub.w	r4, r4, #255	@ 0xff
 80007d0:	f5b6 7f00 	cmp.w	r6, #512	@ 0x200
 80007d4:	f564 7440 	sbc.w	r4, r4, #768	@ 0x300
 80007d8:	d204      	bcs.n	80007e4 <strcmp+0x94>
 80007da:	ea5f 0e4e 	movs.w	lr, lr, lsl #1
 80007de:	416d      	adcs	r5, r5
 80007e0:	eb46 0606 	adc.w	r6, r6, r6
 80007e4:	ea42 21c6 	orr.w	r1, r2, r6, lsl #11
 80007e8:	ea41 5155 	orr.w	r1, r1, r5, lsr #21
 80007ec:	ea4f 20c5 	mov.w	r0, r5, lsl #11
 80007f0:	ea40 505e 	orr.w	r0, r0, lr, lsr #21
 80007f4:	ea4f 2ece 	mov.w	lr, lr, lsl #11
 80007f8:	f1b4 0cfd 	subs.w	ip, r4, #253	@ 0xfd
 80007fc:	bf88      	it	hi
 80007fe:	f5bc 6fe0 	cmphi.w	ip, #1792	@ 0x700
 8000802:	d81e      	bhi.n	8000842 <strcmp+0xf2>
 8000804:	f1be 4f00 	cmp.w	lr, #2147483648	@ 0x80000000
 8000808:	bf08      	it	eq
 800080a:	ea5f 0e50 	movseq.w	lr, r0, lsr #1
 800080e:	f150 0000 	adcs.w	r0, r0, #0
 8000812:	eb41 5104 	adc.w	r1, r1, r4, lsl #20
 8000816:	bd70      	pop	{r4, r5, r6, pc}
 8000818:	f006 4600 	and.w	r6, r6, #2147483648	@ 0x80000000
 800081c:	ea46 0101 	orr.w	r1, r6, r1
 8000820:	ea40 0002 	orr.w	r0, r0, r2
 8000824:	ea81 0103 	eor.w	r1, r1, r3
 8000828:	ebb4 045c 	subs.w	r4, r4, ip, lsr #1
 800082c:	bfc2      	ittt	gt
 800082e:	ebd4 050c 	rsbsgt	r5, r4, ip
 8000832:	ea41 5104 	orrgt.w	r1, r1, r4, lsl #20
 8000836:	bd70      	popgt	{r4, r5, r6, pc}
 8000838:	f441 1180 	orr.w	r1, r1, #1048576	@ 0x100000
 800083c:	f04f 0e00 	mov.w	lr, #0
 8000840:	3c01      	subs	r4, #1
 8000842:	f300 80ab 	bgt.w	800099c <strcmp+0x24c>
 8000846:	f114 0f36 	cmn.w	r4, #54	@ 0x36
 800084a:	bfde      	ittt	le
 800084c:	2000      	movle	r0, #0
 800084e:	f001 4100 	andle.w	r1, r1, #2147483648	@ 0x80000000
 8000852:	bd70      	pople	{r4, r5, r6, pc}
 8000854:	f1c4 0400 	rsb	r4, r4, #0
 8000858:	3c20      	subs	r4, #32
 800085a:	da35      	bge.n	80008c8 <strcmp+0x178>
 800085c:	340c      	adds	r4, #12
 800085e:	dc1b      	bgt.n	8000898 <strcmp+0x148>
 8000860:	f104 0414 	add.w	r4, r4, #20
 8000864:	f1c4 0520 	rsb	r5, r4, #32
 8000868:	fa00 f305 	lsl.w	r3, r0, r5
 800086c:	fa20 f004 	lsr.w	r0, r0, r4
 8000870:	fa01 f205 	lsl.w	r2, r1, r5
 8000874:	ea40 0002 	orr.w	r0, r0, r2
 8000878:	f001 4200 	and.w	r2, r1, #2147483648	@ 0x80000000
 800087c:	f021 4100 	bic.w	r1, r1, #2147483648	@ 0x80000000
 8000880:	eb10 70d3 	adds.w	r0, r0, r3, lsr #31
 8000884:	fa21 f604 	lsr.w	r6, r1, r4
 8000888:	eb42 0106 	adc.w	r1, r2, r6
 800088c:	ea5e 0e43 	orrs.w	lr, lr, r3, lsl #1
 8000890:	bf08      	it	eq
 8000892:	ea20 70d3 	biceq.w	r0, r0, r3, lsr #31
 8000896:	bd70      	pop	{r4, r5, r6, pc}
 8000898:	f1c4 040c 	rsb	r4, r4, #12
 800089c:	f1c4 0520 	rsb	r5, r4, #32
 80008a0:	fa00 f304 	lsl.w	r3, r0, r4
 80008a4:	fa20 f005 	lsr.w	r0, r0, r5
 80008a8:	fa01 f204 	lsl.w	r2, r1, r4
 80008ac:	ea40 0002 	orr.w	r0, r0, r2
 80008b0:	f001 4100 	and.w	r1, r1, #2147483648	@ 0x80000000
 80008b4:	eb10 70d3 	adds.w	r0, r0, r3, lsr #31
 80008b8:	f141 0100 	adc.w	r1, r1, #0
 80008bc:	ea5e 0e43 	orrs.w	lr, lr, r3, lsl #1
 80008c0:	bf08      	it	eq
 80008c2:	ea20 70d3 	biceq.w	r0, r0, r3, lsr #31
 80008c6:	bd70      	pop	{r4, r5, r6, pc}
 80008c8:	f1c4 0520 	rsb	r5, r4, #32
 80008cc:	fa00 f205 	lsl.w	r2, r0, r5
 80008d0:	ea4e 0e02 	orr.w	lr, lr, r2
 80008d4:	fa20 f304 	lsr.w	r3, r0, r4
 80008d8:	fa01 f205 	lsl.w	r2, r1, r5
 80008dc:	ea43 0302 	orr.w	r3, r3, r2
 80008e0:	fa21 f004 	lsr.w	r0, r1, r4
 80008e4:	f001 4100 	and.w	r1, r1, #2147483648	@ 0x80000000
 80008e8:	fa21 f204 	lsr.w	r2, r1, r4
 80008ec:	ea20 0002 	bic.w	r0, r0, r2
 80008f0:	eb00 70d3 	add.w	r0, r0, r3, lsr #31
 80008f4:	ea5e 0e43 	orrs.w	lr, lr, r3, lsl #1
 80008f8:	bf08      	it	eq
 80008fa:	ea20 70d3 	biceq.w	r0, r0, r3, lsr #31
 80008fe:	bd70      	pop	{r4, r5, r6, pc}
 8000900:	f094 0f00 	teq	r4, #0
 8000904:	d10f      	bne.n	8000926 <strcmp+0x1d6>
 8000906:	f001 4600 	and.w	r6, r1, #2147483648	@ 0x80000000
 800090a:	0040      	lsls	r0, r0, #1
 800090c:	eb41 0101 	adc.w	r1, r1, r1
 8000910:	f411 1f80 	tst.w	r1, #1048576	@ 0x100000
 8000914:	bf08      	it	eq
 8000916:	3c01      	subeq	r4, #1
 8000918:	d0f7      	beq.n	800090a <strcmp+0x1ba>
 800091a:	ea41 0106 	orr.w	r1, r1, r6
 800091e:	f095 0f00 	teq	r5, #0
 8000922:	bf18      	it	ne
 8000924:	4770      	bxne	lr
 8000926:	f003 4600 	and.w	r6, r3, #2147483648	@ 0x80000000
 800092a:	0052      	lsls	r2, r2, #1
 800092c:	eb43 0303 	adc.w	r3, r3, r3
 8000930:	f413 1f80 	tst.w	r3, #1048576	@ 0x100000
 8000934:	bf08      	it	eq
 8000936:	3d01      	subeq	r5, #1
 8000938:	d0f7      	beq.n	800092a <strcmp+0x1da>
 800093a:	ea43 0306 	orr.w	r3, r3, r6
 800093e:	4770      	bx	lr
 8000940:	ea94 0f0c 	teq	r4, ip
 8000944:	ea0c 5513 	and.w	r5, ip, r3, lsr #20
 8000948:	bf18      	it	ne
 800094a:	ea95 0f0c 	teqne	r5, ip
 800094e:	d00c      	beq.n	800096a <strcmp+0x21a>
 8000950:	ea50 0641 	orrs.w	r6, r0, r1, lsl #1
 8000954:	bf18      	it	ne
 8000956:	ea52 0643 	orrsne.w	r6, r2, r3, lsl #1
 800095a:	d1d1      	bne.n	8000900 <strcmp+0x1b0>
 800095c:	ea81 0103 	eor.w	r1, r1, r3
 8000960:	f001 4100 	and.w	r1, r1, #2147483648	@ 0x80000000
 8000964:	f04f 0000 	mov.w	r0, #0
 8000968:	bd70      	pop	{r4, r5, r6, pc}
 800096a:	ea50 0641 	orrs.w	r6, r0, r1, lsl #1
 800096e:	bf06      	itte	eq
 8000970:	4610      	moveq	r0, r2
 8000972:	4619      	moveq	r1, r3
 8000974:	ea52 0643 	orrsne.w	r6, r2, r3, lsl #1
 8000978:	d019      	beq.n	80009ae <strcmp+0x25e>
 800097a:	ea94 0f0c 	teq	r4, ip
 800097e:	d102      	bne.n	8000986 <strcmp+0x236>
 8000980:	ea50 3601 	orrs.w	r6, r0, r1, lsl #12
 8000984:	d113      	bne.n	80009ae <strcmp+0x25e>
 8000986:	ea95 0f0c 	teq	r5, ip
 800098a:	d105      	bne.n	8000998 <strcmp+0x248>
 800098c:	ea52 3603 	orrs.w	r6, r2, r3, lsl #12
 8000990:	bf1c      	itt	ne
 8000992:	4610      	movne	r0, r2
 8000994:	4619      	movne	r1, r3
 8000996:	d10a      	bne.n	80009ae <strcmp+0x25e>
 8000998:	ea81 0103 	eor.w	r1, r1, r3
 800099c:	f001 4100 	and.w	r1, r1, #2147483648	@ 0x80000000
 80009a0:	f041 41fe 	orr.w	r1, r1, #2130706432	@ 0x7f000000
 80009a4:	f441 0170 	orr.w	r1, r1, #15728640	@ 0xf00000
 80009a8:	f04f 0000 	mov.w	r0, #0
 80009ac:	bd70      	pop	{r4, r5, r6, pc}
 80009ae:	f041 41fe 	orr.w	r1, r1, #2130706432	@ 0x7f000000
 80009b2:	f441 0178 	orr.w	r1, r1, #16252928	@ 0xf80000
 80009b6:	bd70      	pop	{r4, r5, r6, pc}

080009b8 <__aeabi_drsub>:
 80009b8:	f081 4100 	eor.w	r1, r1, #2147483648	@ 0x80000000
 80009bc:	e002      	b.n	80009c4 <__adddf3>
 80009be:	bf00      	nop

080009c0 <__aeabi_dsub>:
 80009c0:	f083 4300 	eor.w	r3, r3, #2147483648	@ 0x80000000

080009c4 <__adddf3>:
 80009c4:	b530      	push	{r4, r5, lr}
 80009c6:	ea4f 0441 	mov.w	r4, r1, lsl #1
 80009ca:	ea4f 0543 	mov.w	r5, r3, lsl #1
 80009ce:	ea94 0f05 	teq	r4, r5
 80009d2:	bf08      	it	eq
 80009d4:	ea90 0f02 	teqeq	r0, r2
 80009d8:	bf1f      	itttt	ne
 80009da:	ea54 0c00 	orrsne.w	ip, r4, r0
 80009de:	ea55 0c02 	orrsne.w	ip, r5, r2
 80009e2:	ea7f 5c64 	mvnsne.w	ip, r4, asr #21
 80009e6:	ea7f 5c65 	mvnsne.w	ip, r5, asr #21
 80009ea:	f000 80e2 	beq.w	8000bb2 <__adddf3+0x1ee>
 80009ee:	ea4f 5454 	mov.w	r4, r4, lsr #21
 80009f2:	ebd4 5555 	rsbs	r5, r4, r5, lsr #21
 80009f6:	bfb8      	it	lt
 80009f8:	426d      	neglt	r5, r5
 80009fa:	dd0c      	ble.n	8000a16 <__adddf3+0x52>
 80009fc:	442c      	add	r4, r5
 80009fe:	ea80 0202 	eor.w	r2, r0, r2
 8000a02:	ea81 0303 	eor.w	r3, r1, r3
 8000a06:	ea82 0000 	eor.w	r0, r2, r0
 8000a0a:	ea83 0101 	eor.w	r1, r3, r1
 8000a0e:	ea80 0202 	eor.w	r2, r0, r2
 8000a12:	ea81 0303 	eor.w	r3, r1, r3
 8000a16:	2d36      	cmp	r5, #54	@ 0x36
 8000a18:	bf88      	it	hi
 8000a1a:	bd30      	pophi	{r4, r5, pc}
 8000a1c:	f011 4f00 	tst.w	r1, #2147483648	@ 0x80000000
 8000a20:	ea4f 3101 	mov.w	r1, r1, lsl #12
 8000a24:	f44f 1c80 	mov.w	ip, #1048576	@ 0x100000
 8000a28:	ea4c 3111 	orr.w	r1, ip, r1, lsr #12
 8000a2c:	d002      	beq.n	8000a34 <__adddf3+0x70>
 8000a2e:	4240      	negs	r0, r0
 8000a30:	eb61 0141 	sbc.w	r1, r1, r1, lsl #1
 8000a34:	f013 4f00 	tst.w	r3, #2147483648	@ 0x80000000
 8000a38:	ea4f 3303 	mov.w	r3, r3, lsl #12
 8000a3c:	ea4c 3313 	orr.w	r3, ip, r3, lsr #12
 8000a40:	d002      	beq.n	8000a48 <__adddf3+0x84>
 8000a42:	4252      	negs	r2, r2
 8000a44:	eb63 0343 	sbc.w	r3, r3, r3, lsl #1
 8000a48:	ea94 0f05 	teq	r4, r5
 8000a4c:	f000 80a7 	beq.w	8000b9e <__adddf3+0x1da>
 8000a50:	f1a4 0401 	sub.w	r4, r4, #1
 8000a54:	f1d5 0e20 	rsbs	lr, r5, #32
 8000a58:	db0d      	blt.n	8000a76 <__adddf3+0xb2>
 8000a5a:	fa02 fc0e 	lsl.w	ip, r2, lr
 8000a5e:	fa22 f205 	lsr.w	r2, r2, r5
 8000a62:	1880      	adds	r0, r0, r2
 8000a64:	f141 0100 	adc.w	r1, r1, #0
 8000a68:	fa03 f20e 	lsl.w	r2, r3, lr
 8000a6c:	1880      	adds	r0, r0, r2
 8000a6e:	fa43 f305 	asr.w	r3, r3, r5
 8000a72:	4159      	adcs	r1, r3
 8000a74:	e00e      	b.n	8000a94 <__adddf3+0xd0>
 8000a76:	f1a5 0520 	sub.w	r5, r5, #32
 8000a7a:	f10e 0e20 	add.w	lr, lr, #32
 8000a7e:	2a01      	cmp	r2, #1
 8000a80:	fa03 fc0e 	lsl.w	ip, r3, lr
 8000a84:	bf28      	it	cs
 8000a86:	f04c 0c02 	orrcs.w	ip, ip, #2
 8000a8a:	fa43 f305 	asr.w	r3, r3, r5
 8000a8e:	18c0      	adds	r0, r0, r3
 8000a90:	eb51 71e3 	adcs.w	r1, r1, r3, asr #31
 8000a94:	f001 4500 	and.w	r5, r1, #2147483648	@ 0x80000000
 8000a98:	d507      	bpl.n	8000aaa <__adddf3+0xe6>
 8000a9a:	f04f 0e00 	mov.w	lr, #0
 8000a9e:	f1dc 0c00 	rsbs	ip, ip, #0
 8000aa2:	eb7e 0000 	sbcs.w	r0, lr, r0
 8000aa6:	eb6e 0101 	sbc.w	r1, lr, r1
 8000aaa:	f5b1 1f80 	cmp.w	r1, #1048576	@ 0x100000
 8000aae:	d31b      	bcc.n	8000ae8 <__adddf3+0x124>
 8000ab0:	f5b1 1f00 	cmp.w	r1, #2097152	@ 0x200000
 8000ab4:	d30c      	bcc.n	8000ad0 <__adddf3+0x10c>
 8000ab6:	0849      	lsrs	r1, r1, #1
 8000ab8:	ea5f 0030 	movs.w	r0, r0, rrx
 8000abc:	ea4f 0c3c 	mov.w	ip, ip, rrx
 8000ac0:	f104 0401 	add.w	r4, r4, #1
 8000ac4:	ea4f 5244 	mov.w	r2, r4, lsl #21
 8000ac8:	f512 0f80 	cmn.w	r2, #4194304	@ 0x400000
 8000acc:	f080 809a 	bcs.w	8000c04 <__adddf3+0x240>
 8000ad0:	f1bc 4f00 	cmp.w	ip, #2147483648	@ 0x80000000
 8000ad4:	bf08      	it	eq
 8000ad6:	ea5f 0c50 	movseq.w	ip, r0, lsr #1
 8000ada:	f150 0000 	adcs.w	r0, r0, #0
 8000ade:	eb41 5104 	adc.w	r1, r1, r4, lsl #20
 8000ae2:	ea41 0105 	orr.w	r1, r1, r5
 8000ae6:	bd30      	pop	{r4, r5, pc}
 8000ae8:	ea5f 0c4c 	movs.w	ip, ip, lsl #1
 8000aec:	4140      	adcs	r0, r0
 8000aee:	eb41 0101 	adc.w	r1, r1, r1
 8000af2:	3c01      	subs	r4, #1
 8000af4:	bf28      	it	cs
 8000af6:	f5b1 1f80 	cmpcs.w	r1, #1048576	@ 0x100000
 8000afa:	d2e9      	bcs.n	8000ad0 <__adddf3+0x10c>
 8000afc:	f091 0f00 	teq	r1, #0
 8000b00:	bf04      	itt	eq
 8000b02:	4601      	moveq	r1, r0
 8000b04:	2000      	moveq	r0, #0
 8000b06:	fab1 f381 	clz	r3, r1
 8000b0a:	bf08      	it	eq
 8000b0c:	3320      	addeq	r3, #32
 8000b0e:	f1a3 030b 	sub.w	r3, r3, #11
 8000b12:	f1b3 0220 	subs.w	r2, r3, #32
 8000b16:	da0c      	bge.n	8000b32 <__adddf3+0x16e>
 8000b18:	320c      	adds	r2, #12
 8000b1a:	dd08      	ble.n	8000b2e <__adddf3+0x16a>
 8000b1c:	f102 0c14 	add.w	ip, r2, #20
 8000b20:	f1c2 020c 	rsb	r2, r2, #12
 8000b24:	fa01 f00c 	lsl.w	r0, r1, ip
 8000b28:	fa21 f102 	lsr.w	r1, r1, r2
 8000b2c:	e00c      	b.n	8000b48 <__adddf3+0x184>
 8000b2e:	f102 0214 	add.w	r2, r2, #20
 8000b32:	bfd8      	it	le
 8000b34:	f1c2 0c20 	rsble	ip, r2, #32
 8000b38:	fa01 f102 	lsl.w	r1, r1, r2
 8000b3c:	fa20 fc0c 	lsr.w	ip, r0, ip
 8000b40:	bfdc      	itt	le
 8000b42:	ea41 010c 	orrle.w	r1, r1, ip
 8000b46:	4090      	lslle	r0, r2
 8000b48:	1ae4      	subs	r4, r4, r3
 8000b4a:	bfa2      	ittt	ge
 8000b4c:	eb01 5104 	addge.w	r1, r1, r4, lsl #20
 8000b50:	4329      	orrge	r1, r5
 8000b52:	bd30      	popge	{r4, r5, pc}
 8000b54:	ea6f 0404 	mvn.w	r4, r4
 8000b58:	3c1f      	subs	r4, #31
 8000b5a:	da1c      	bge.n	8000b96 <__adddf3+0x1d2>
 8000b5c:	340c      	adds	r4, #12
 8000b5e:	dc0e      	bgt.n	8000b7e <__adddf3+0x1ba>
 8000b60:	f104 0414 	add.w	r4, r4, #20
 8000b64:	f1c4 0220 	rsb	r2, r4, #32
 8000b68:	fa20 f004 	lsr.w	r0, r0, r4
 8000b6c:	fa01 f302 	lsl.w	r3, r1, r2
 8000b70:	ea40 0003 	orr.w	r0, r0, r3
 8000b74:	fa21 f304 	lsr.w	r3, r1, r4
 8000b78:	ea45 0103 	orr.w	r1, r5, r3
 8000b7c:	bd30      	pop	{r4, r5, pc}
 8000b7e:	f1c4 040c 	rsb	r4, r4, #12
 8000b82:	f1c4 0220 	rsb	r2, r4, #32
 8000b86:	fa20 f002 	lsr.w	r0, r0, r2
 8000b8a:	fa01 f304 	lsl.w	r3, r1, r4
 8000b8e:	ea40 0003 	orr.w	r0, r0, r3
 8000b92:	4629      	mov	r1, r5
 8000b94:	bd30      	pop	{r4, r5, pc}
 8000b96:	fa21 f004 	lsr.w	r0, r1, r4
 8000b9a:	4629      	mov	r1, r5
 8000b9c:	bd30      	pop	{r4, r5, pc}
 8000b9e:	f094 0f00 	teq	r4, #0
 8000ba2:	f483 1380 	eor.w	r3, r3, #1048576	@ 0x100000
 8000ba6:	bf06      	itte	eq
 8000ba8:	f481 1180 	eoreq.w	r1, r1, #1048576	@ 0x100000
 8000bac:	3401      	addeq	r4, #1
 8000bae:	3d01      	subne	r5, #1
 8000bb0:	e74e      	b.n	8000a50 <__adddf3+0x8c>
 8000bb2:	ea7f 5c64 	mvns.w	ip, r4, asr #21
 8000bb6:	bf18      	it	ne
 8000bb8:	ea7f 5c65 	mvnsne.w	ip, r5, asr #21
 8000bbc:	d029      	beq.n	8000c12 <__adddf3+0x24e>
 8000bbe:	ea94 0f05 	teq	r4, r5
 8000bc2:	bf08      	it	eq
 8000bc4:	ea90 0f02 	teqeq	r0, r2
 8000bc8:	d005      	beq.n	8000bd6 <__adddf3+0x212>
 8000bca:	ea54 0c00 	orrs.w	ip, r4, r0
 8000bce:	bf04      	itt	eq
 8000bd0:	4619      	moveq	r1, r3
 8000bd2:	4610      	moveq	r0, r2
 8000bd4:	bd30      	pop	{r4, r5, pc}
 8000bd6:	ea91 0f03 	teq	r1, r3
 8000bda:	bf1e      	ittt	ne
 8000bdc:	2100      	movne	r1, #0
 8000bde:	2000      	movne	r0, #0
 8000be0:	bd30      	popne	{r4, r5, pc}
 8000be2:	ea5f 5c54 	movs.w	ip, r4, lsr #21
 8000be6:	d105      	bne.n	8000bf4 <__adddf3+0x230>
 8000be8:	0040      	lsls	r0, r0, #1
 8000bea:	4149      	adcs	r1, r1
 8000bec:	bf28      	it	cs
 8000bee:	f041 4100 	orrcs.w	r1, r1, #2147483648	@ 0x80000000
 8000bf2:	bd30      	pop	{r4, r5, pc}
 8000bf4:	f514 0480 	adds.w	r4, r4, #4194304	@ 0x400000
 8000bf8:	bf3c      	itt	cc
 8000bfa:	f501 1180 	addcc.w	r1, r1, #1048576	@ 0x100000
 8000bfe:	bd30      	popcc	{r4, r5, pc}
 8000c00:	f001 4500 	and.w	r5, r1, #2147483648	@ 0x80000000
 8000c04:	f045 41fe 	orr.w	r1, r5, #2130706432	@ 0x7f000000
 8000c08:	f441 0170 	orr.w	r1, r1, #15728640	@ 0xf00000
 8000c0c:	f04f 0000 	mov.w	r0, #0
 8000c10:	bd30      	pop	{r4, r5, pc}
 8000c12:	ea7f 5c64 	mvns.w	ip, r4, asr #21
 8000c16:	bf1a      	itte	ne
 8000c18:	4619      	movne	r1, r3
 8000c1a:	4610      	movne	r0, r2
 8000c1c:	ea7f 5c65 	mvnseq.w	ip, r5, asr #21
 8000c20:	bf1c      	itt	ne
 8000c22:	460b      	movne	r3, r1
 8000c24:	4602      	movne	r2, r0
 8000c26:	ea50 3401 	orrs.w	r4, r0, r1, lsl #12
 8000c2a:	bf06      	itte	eq
 8000c2c:	ea52 3503 	orrseq.w	r5, r2, r3, lsl #12
 8000c30:	ea91 0f03 	teqeq	r1, r3
 8000c34:	f441 2100 	orrne.w	r1, r1, #524288	@ 0x80000
 8000c38:	bd30      	pop	{r4, r5, pc}
 8000c3a:	bf00      	nop

08000c3c <__aeabi_ui2d>:
 8000c3c:	f090 0f00 	teq	r0, #0
 8000c40:	bf04      	itt	eq
 8000c42:	2100      	moveq	r1, #0
 8000c44:	4770      	bxeq	lr
 8000c46:	b530      	push	{r4, r5, lr}
 8000c48:	f44f 6480 	mov.w	r4, #1024	@ 0x400
 8000c4c:	f104 0432 	add.w	r4, r4, #50	@ 0x32
 8000c50:	f04f 0500 	mov.w	r5, #0
 8000c54:	f04f 0100 	mov.w	r1, #0
 8000c58:	e750      	b.n	8000afc <__adddf3+0x138>
 8000c5a:	bf00      	nop

08000c5c <__aeabi_i2d>:
 8000c5c:	f090 0f00 	teq	r0, #0
 8000c60:	bf04      	itt	eq
 8000c62:	2100      	moveq	r1, #0
 8000c64:	4770      	bxeq	lr
 8000c66:	b530      	push	{r4, r5, lr}
 8000c68:	f44f 6480 	mov.w	r4, #1024	@ 0x400
 8000c6c:	f104 0432 	add.w	r4, r4, #50	@ 0x32
 8000c70:	f010 4500 	ands.w	r5, r0, #2147483648	@ 0x80000000
 8000c74:	bf48      	it	mi
 8000c76:	4240      	negmi	r0, r0
 8000c78:	f04f 0100 	mov.w	r1, #0
 8000c7c:	e73e      	b.n	8000afc <__adddf3+0x138>
 8000c7e:	bf00      	nop

08000c80 <__aeabi_f2d>:
 8000c80:	0042      	lsls	r2, r0, #1
 8000c82:	ea4f 01e2 	mov.w	r1, r2, asr #3
 8000c86:	ea4f 0131 	mov.w	r1, r1, rrx
 8000c8a:	ea4f 7002 	mov.w	r0, r2, lsl #28
 8000c8e:	bf1f      	itttt	ne
 8000c90:	f012 437f 	andsne.w	r3, r2, #4278190080	@ 0xff000000
 8000c94:	f093 4f7f 	teqne	r3, #4278190080	@ 0xff000000
 8000c98:	f081 5160 	eorne.w	r1, r1, #939524096	@ 0x38000000
 8000c9c:	4770      	bxne	lr
 8000c9e:	f032 427f 	bics.w	r2, r2, #4278190080	@ 0xff000000
 8000ca2:	bf08      	it	eq
 8000ca4:	4770      	bxeq	lr
 8000ca6:	f093 4f7f 	teq	r3, #4278190080	@ 0xff000000
 8000caa:	bf04      	itt	eq
 8000cac:	f441 2100 	orreq.w	r1, r1, #524288	@ 0x80000
 8000cb0:	4770      	bxeq	lr
 8000cb2:	b530      	push	{r4, r5, lr}
 8000cb4:	f44f 7460 	mov.w	r4, #896	@ 0x380
 8000cb8:	f001 4500 	and.w	r5, r1, #2147483648	@ 0x80000000
 8000cbc:	f021 4100 	bic.w	r1, r1, #2147483648	@ 0x80000000
 8000cc0:	e71c      	b.n	8000afc <__adddf3+0x138>
 8000cc2:	bf00      	nop

08000cc4 <__aeabi_ul2d>:
 8000cc4:	ea50 0201 	orrs.w	r2, r0, r1
 8000cc8:	bf08      	it	eq
 8000cca:	4770      	bxeq	lr
 8000ccc:	b530      	push	{r4, r5, lr}
 8000cce:	f04f 0500 	mov.w	r5, #0
 8000cd2:	e00a      	b.n	8000cea <__aeabi_l2d+0x16>

08000cd4 <__aeabi_l2d>:
 8000cd4:	ea50 0201 	orrs.w	r2, r0, r1
 8000cd8:	bf08      	it	eq
 8000cda:	4770      	bxeq	lr
 8000cdc:	b530      	push	{r4, r5, lr}
 8000cde:	f011 4500 	ands.w	r5, r1, #2147483648	@ 0x80000000
 8000ce2:	d502      	bpl.n	8000cea <__aeabi_l2d+0x16>
 8000ce4:	4240      	negs	r0, r0
 8000ce6:	eb61 0141 	sbc.w	r1, r1, r1, lsl #1
 8000cea:	f44f 6480 	mov.w	r4, #1024	@ 0x400
 8000cee:	f104 0432 	add.w	r4, r4, #50	@ 0x32
 8000cf2:	ea5f 5c91 	movs.w	ip, r1, lsr #22
 8000cf6:	f43f aed8 	beq.w	8000aaa <__adddf3+0xe6>
 8000cfa:	f04f 0203 	mov.w	r2, #3
 8000cfe:	ea5f 0cdc 	movs.w	ip, ip, lsr #3
 8000d02:	bf18      	it	ne
 8000d04:	3203      	addne	r2, #3
 8000d06:	ea5f 0cdc 	movs.w	ip, ip, lsr #3
 8000d0a:	bf18      	it	ne
 8000d0c:	3203      	addne	r2, #3
 8000d0e:	eb02 02dc 	add.w	r2, r2, ip, lsr #3
 8000d12:	f1c2 0320 	rsb	r3, r2, #32
 8000d16:	fa00 fc03 	lsl.w	ip, r0, r3
 8000d1a:	fa20 f002 	lsr.w	r0, r0, r2
 8000d1e:	fa01 fe03 	lsl.w	lr, r1, r3
 8000d22:	ea40 000e 	orr.w	r0, r0, lr
 8000d26:	fa21 f102 	lsr.w	r1, r1, r2
 8000d2a:	4414      	add	r4, r2
 8000d2c:	e6bd      	b.n	8000aaa <__adddf3+0xe6>
 8000d2e:	bf00      	nop

08000d30 <__aeabi_dmul>:
 8000d30:	b570      	push	{r4, r5, r6, lr}
 8000d32:	f04f 0cff 	mov.w	ip, #255	@ 0xff
 8000d36:	f44c 6ce0 	orr.w	ip, ip, #1792	@ 0x700
 8000d3a:	ea1c 5411 	ands.w	r4, ip, r1, lsr #20
 8000d3e:	bf1d      	ittte	ne
 8000d40:	ea1c 5513 	andsne.w	r5, ip, r3, lsr #20
 8000d44:	ea94 0f0c 	teqne	r4, ip
 8000d48:	ea95 0f0c 	teqne	r5, ip
 8000d4c:	f000 f8de 	bleq	8000f0c <__aeabi_dmul+0x1dc>
 8000d50:	442c      	add	r4, r5
 8000d52:	ea81 0603 	eor.w	r6, r1, r3
 8000d56:	ea21 514c 	bic.w	r1, r1, ip, lsl #21
 8000d5a:	ea23 534c 	bic.w	r3, r3, ip, lsl #21
 8000d5e:	ea50 3501 	orrs.w	r5, r0, r1, lsl #12
 8000d62:	bf18      	it	ne
 8000d64:	ea52 3503 	orrsne.w	r5, r2, r3, lsl #12
 8000d68:	f441 1180 	orr.w	r1, r1, #1048576	@ 0x100000
 8000d6c:	f443 1380 	orr.w	r3, r3, #1048576	@ 0x100000
 8000d70:	d038      	beq.n	8000de4 <__aeabi_dmul+0xb4>
 8000d72:	fba0 ce02 	umull	ip, lr, r0, r2
 8000d76:	f04f 0500 	mov.w	r5, #0
 8000d7a:	fbe1 e502 	umlal	lr, r5, r1, r2
 8000d7e:	f006 4200 	and.w	r2, r6, #2147483648	@ 0x80000000
 8000d82:	fbe0 e503 	umlal	lr, r5, r0, r3
 8000d86:	f04f 0600 	mov.w	r6, #0
 8000d8a:	fbe1 5603 	umlal	r5, r6, r1, r3
 8000d8e:	f09c 0f00 	teq	ip, #0
 8000d92:	bf18      	it	ne
 8000d94:	f04e 0e01 	orrne.w	lr, lr, #1
 8000d98:	f1a4 04ff 	sub.w	r4, r4, #255	@ 0xff
 8000d9c:	f5b6 7f00 	cmp.w	r6, #512	@ 0x200
 8000da0:	f564 7440 	sbc.w	r4, r4, #768	@ 0x300
 8000da4:	d204      	bcs.n	8000db0 <__aeabi_dmul+0x80>
 8000da6:	ea5f 0e4e 	movs.w	lr, lr, lsl #1
 8000daa:	416d      	adcs	r5, r5
 8000dac:	eb46 0606 	adc.w	r6, r6, r6
 8000db0:	ea42 21c6 	orr.w	r1, r2, r6, lsl #11
 8000db4:	ea41 5155 	orr.w	r1, r1, r5, lsr #21
 8000db8:	ea4f 20c5 	mov.w	r0, r5, lsl #11
 8000dbc:	ea40 505e 	orr.w	r0, r0, lr, lsr #21
 8000dc0:	ea4f 2ece 	mov.w	lr, lr, lsl #11
 8000dc4:	f1b4 0cfd 	subs.w	ip, r4, #253	@ 0xfd
 8000dc8:	bf88      	it	hi
 8000dca:	f5bc 6fe0 	cmphi.w	ip, #1792	@ 0x700
 8000dce:	d81e      	bhi.n	8000e0e <__aeabi_dmul+0xde>
 8000dd0:	f1be 4f00 	cmp.w	lr, #2147483648	@ 0x80000000
 8000dd4:	bf08      	it	eq
 8000dd6:	ea5f 0e50 	movseq.w	lr, r0, lsr #1
 8000dda:	f150 0000 	adcs.w	r0, r0, #0
 8000dde:	eb41 5104 	adc.w	r1, r1, r4, lsl #20
 8000de2:	bd70      	pop	{r4, r5, r6, pc}
 8000de4:	f006 4600 	and.w	r6, r6, #2147483648	@ 0x80000000
 8000de8:	ea46 0101 	orr.w	r1, r6, r1
 8000dec:	ea40 0002 	orr.w	r0, r0, r2
 8000df0:	ea81 0103 	eor.w	r1, r1, r3
 8000df4:	ebb4 045c 	subs.w	r4, r4, ip, lsr #1
 8000df8:	bfc2      	ittt	gt
 8000dfa:	ebd4 050c 	rsbsgt	r5, r4, ip
 8000dfe:	ea41 5104 	orrgt.w	r1, r1, r4, lsl #20
 8000e02:	bd70      	popgt	{r4, r5, r6, pc}
 8000e04:	f441 1180 	orr.w	r1, r1, #1048576	@ 0x100000
 8000e08:	f04f 0e00 	mov.w	lr, #0
 8000e0c:	3c01      	subs	r4, #1
 8000e0e:	f300 80ab 	bgt.w	8000f68 <__aeabi_dmul+0x238>
 8000e12:	f114 0f36 	cmn.w	r4, #54	@ 0x36
 8000e16:	bfde      	ittt	le
 8000e18:	2000      	movle	r0, #0
 8000e1a:	f001 4100 	andle.w	r1, r1, #2147483648	@ 0x80000000
 8000e1e:	bd70      	pople	{r4, r5, r6, pc}
 8000e20:	f1c4 0400 	rsb	r4, r4, #0
 8000e24:	3c20      	subs	r4, #32
 8000e26:	da35      	bge.n	8000e94 <__aeabi_dmul+0x164>
 8000e28:	340c      	adds	r4, #12
 8000e2a:	dc1b      	bgt.n	8000e64 <__aeabi_dmul+0x134>
 8000e2c:	f104 0414 	add.w	r4, r4, #20
 8000e30:	f1c4 0520 	rsb	r5, r4, #32
 8000e34:	fa00 f305 	lsl.w	r3, r0, r5
 8000e38:	fa20 f004 	lsr.w	r0, r0, r4
 8000e3c:	fa01 f205 	lsl.w	r2, r1, r5
 8000e40:	ea40 0002 	orr.w	r0, r0, r2
 8000e44:	f001 4200 	and.w	r2, r1, #2147483648	@ 0x80000000
 8000e48:	f021 4100 	bic.w	r1, r1, #2147483648	@ 0x80000000
 8000e4c:	eb10 70d3 	adds.w	r0, r0, r3, lsr #31
 8000e50:	fa21 f604 	lsr.w	r6, r1, r4
 8000e54:	eb42 0106 	adc.w	r1, r2, r6
 8000e58:	ea5e 0e43 	orrs.w	lr, lr, r3, lsl #1
 8000e5c:	bf08      	it	eq
 8000e5e:	ea20 70d3 	biceq.w	r0, r0, r3, lsr #31
 8000e62:	bd70      	pop	{r4, r5, r6, pc}
 8000e64:	f1c4 040c 	rsb	r4, r4, #12
 8000e68:	f1c4 0520 	rsb	r5, r4, #32
 8000e6c:	fa00 f304 	lsl.w	r3, r0, r4
 8000e70:	fa20 f005 	lsr.w	r0, r0, r5
 8000e74:	fa01 f204 	lsl.w	r2, r1, r4
 8000e78:	ea40 0002 	orr.w	r0, r0, r2
 8000e7c:	f001 4100 	and.w	r1, r1, #2147483648	@ 0x80000000
 8000e80:	eb10 70d3 	adds.w	r0, r0, r3, lsr #31
 8000e84:	f141 0100 	adc.w	r1, r1, #0
 8000e88:	ea5e 0e43 	orrs.w	lr, lr, r3, lsl #1
 8000e8c:	bf08      	it	eq
 8000e8e:	ea20 70d3 	biceq.w	r0, r0, r3, lsr #31
 8000e92:	bd70      	pop	{r4, r5, r6, pc}
 8000e94:	f1c4 0520 	rsb	r5, r4, #32
 8000e98:	fa00 f205 	lsl.w	r2, r0, r5
 8000e9c:	ea4e 0e02 	orr.w	lr, lr, r2
 8000ea0:	fa20 f304 	lsr.w	r3, r0, r4
 8000ea4:	fa01 f205 	lsl.w	r2, r1, r5
 8000ea8:	ea43 0302 	orr.w	r3, r3, r2
 8000eac:	fa21 f004 	lsr.w	r0, r1, r4
 8000eb0:	f001 4100 	and.w	r1, r1, #2147483648	@ 0x80000000
 8000eb4:	fa21 f204 	lsr.w	r2, r1, r4
 8000eb8:	ea20 0002 	bic.w	r0, r0, r2
 8000ebc:	eb00 70d3 	add.w	r0, r0, r3, lsr #31
 8000ec0:	ea5e 0e43 	orrs.w	lr, lr, r3, lsl #1
 8000ec4:	bf08      	it	eq
 8000ec6:	ea20 70d3 	biceq.w	r0, r0, r3, lsr #31
 8000eca:	bd70      	pop	{r4, r5, r6, pc}
 8000ecc:	f094 0f00 	teq	r4, #0
 8000ed0:	d10f      	bne.n	8000ef2 <__aeabi_dmul+0x1c2>
 8000ed2:	f001 4600 	and.w	r6, r1, #2147483648	@ 0x80000000
 8000ed6:	0040      	lsls	r0, r0, #1
 8000ed8:	eb41 0101 	adc.w	r1, r1, r1
 8000edc:	f411 1f80 	tst.w	r1, #1048576	@ 0x100000
 8000ee0:	bf08      	it	eq
 8000ee2:	3c01      	subeq	r4, #1
 8000ee4:	d0f7      	beq.n	8000ed6 <__aeabi_dmul+0x1a6>
 8000ee6:	ea41 0106 	orr.w	r1, r1, r6
 8000eea:	f095 0f00 	teq	r5, #0
 8000eee:	bf18      	it	ne
 8000ef0:	4770      	bxne	lr
 8000ef2:	f003 4600 	and.w	r6, r3, #2147483648	@ 0x80000000
 8000ef6:	0052      	lsls	r2, r2, #1
 8000ef8:	eb43 0303 	adc.w	r3, r3, r3
 8000efc:	f413 1f80 	tst.w	r3, #1048576	@ 0x100000
 8000f00:	bf08      	it	eq
 8000f02:	3d01      	subeq	r5, #1
 8000f04:	d0f7      	beq.n	8000ef6 <__aeabi_dmul+0x1c6>
 8000f06:	ea43 0306 	orr.w	r3, r3, r6
 8000f0a:	4770      	bx	lr
 8000f0c:	ea94 0f0c 	teq	r4, ip
 8000f10:	ea0c 5513 	and.w	r5, ip, r3, lsr #20
 8000f14:	bf18      	it	ne
 8000f16:	ea95 0f0c 	teqne	r5, ip
 8000f1a:	d00c      	beq.n	8000f36 <__aeabi_dmul+0x206>
 8000f1c:	ea50 0641 	orrs.w	r6, r0, r1, lsl #1
 8000f20:	bf18      	it	ne
 8000f22:	ea52 0643 	orrsne.w	r6, r2, r3, lsl #1
 8000f26:	d1d1      	bne.n	8000ecc <__aeabi_dmul+0x19c>
 8000f28:	ea81 0103 	eor.w	r1, r1, r3
 8000f2c:	f001 4100 	and.w	r1, r1, #2147483648	@ 0x80000000
 8000f30:	f04f 0000 	mov.w	r0, #0
 8000f34:	bd70      	pop	{r4, r5, r6, pc}
 8000f36:	ea50 0641 	orrs.w	r6, r0, r1, lsl #1
 8000f3a:	bf06      	itte	eq
 8000f3c:	4610      	moveq	r0, r2
 8000f3e:	4619      	moveq	r1, r3
 8000f40:	ea52 0643 	orrsne.w	r6, r2, r3, lsl #1
 8000f44:	d019      	beq.n	8000f7a <__aeabi_dmul+0x24a>
 8000f46:	ea94 0f0c 	teq	r4, ip
 8000f4a:	d102      	bne.n	8000f52 <__aeabi_dmul+0x222>
 8000f4c:	ea50 3601 	orrs.w	r6, r0, r1, lsl #12
 8000f50:	d113      	bne.n	8000f7a <__aeabi_dmul+0x24a>
 8000f52:	ea95 0f0c 	teq	r5, ip
 8000f56:	d105      	bne.n	8000f64 <__aeabi_dmul+0x234>
 8000f58:	ea52 3603 	orrs.w	r6, r2, r3, lsl #12
 8000f5c:	bf1c      	itt	ne
 8000f5e:	4610      	movne	r0, r2
 8000f60:	4619      	movne	r1, r3
 8000f62:	d10a      	bne.n	8000f7a <__aeabi_dmul+0x24a>
 8000f64:	ea81 0103 	eor.w	r1, r1, r3
 8000f68:	f001 4100 	and.w	r1, r1, #2147483648	@ 0x80000000
 8000f6c:	f041 41fe 	orr.w	r1, r1, #2130706432	@ 0x7f000000
 8000f70:	f441 0170 	orr.w	r1, r1, #15728640	@ 0xf00000
 8000f74:	f04f 0000 	mov.w	r0, #0
 8000f78:	bd70      	pop	{r4, r5, r6, pc}
 8000f7a:	f041 41fe 	orr.w	r1, r1, #2130706432	@ 0x7f000000
 8000f7e:	f441 0178 	orr.w	r1, r1, #16252928	@ 0xf80000
 8000f82:	bd70      	pop	{r4, r5, r6, pc}

08000f84 <__aeabi_ddiv>:
 8000f84:	b570      	push	{r4, r5, r6, lr}
 8000f86:	f04f 0cff 	mov.w	ip, #255	@ 0xff
 8000f8a:	f44c 6ce0 	orr.w	ip, ip, #1792	@ 0x700
 8000f8e:	ea1c 5411 	ands.w	r4, ip, r1, lsr #20
 8000f92:	bf1d      	ittte	ne
 8000f94:	ea1c 5513 	andsne.w	r5, ip, r3, lsr #20
 8000f98:	ea94 0f0c 	teqne	r4, ip
 8000f9c:	ea95 0f0c 	teqne	r5, ip
 8000fa0:	f000 f8a7 	bleq	80010f2 <__aeabi_ddiv+0x16e>
 8000fa4:	eba4 0405 	sub.w	r4, r4, r5
 8000fa8:	ea81 0e03 	eor.w	lr, r1, r3
 8000fac:	ea52 3503 	orrs.w	r5, r2, r3, lsl #12
 8000fb0:	ea4f 3101 	mov.w	r1, r1, lsl #12
 8000fb4:	f000 8088 	beq.w	80010c8 <__aeabi_ddiv+0x144>
 8000fb8:	ea4f 3303 	mov.w	r3, r3, lsl #12
 8000fbc:	f04f 5580 	mov.w	r5, #268435456	@ 0x10000000
 8000fc0:	ea45 1313 	orr.w	r3, r5, r3, lsr #4
 8000fc4:	ea43 6312 	orr.w	r3, r3, r2, lsr #24
 8000fc8:	ea4f 2202 	mov.w	r2, r2, lsl #8
 8000fcc:	ea45 1511 	orr.w	r5, r5, r1, lsr #4
 8000fd0:	ea45 6510 	orr.w	r5, r5, r0, lsr #24
 8000fd4:	ea4f 2600 	mov.w	r6, r0, lsl #8
 8000fd8:	f00e 4100 	and.w	r1, lr, #2147483648	@ 0x80000000
 8000fdc:	429d      	cmp	r5, r3
 8000fde:	bf08      	it	eq
 8000fe0:	4296      	cmpeq	r6, r2
 8000fe2:	f144 04fd 	adc.w	r4, r4, #253	@ 0xfd
 8000fe6:	f504 7440 	add.w	r4, r4, #768	@ 0x300
 8000fea:	d202      	bcs.n	8000ff2 <__aeabi_ddiv+0x6e>
 8000fec:	085b      	lsrs	r3, r3, #1
 8000fee:	ea4f 0232 	mov.w	r2, r2, rrx
 8000ff2:	1ab6      	subs	r6, r6, r2
 8000ff4:	eb65 0503 	sbc.w	r5, r5, r3
 8000ff8:	085b      	lsrs	r3, r3, #1
 8000ffa:	ea4f 0232 	mov.w	r2, r2, rrx
 8000ffe:	f44f 1080 	mov.w	r0, #1048576	@ 0x100000
 8001002:	f44f 2c00 	mov.w	ip, #524288	@ 0x80000
 8001006:	ebb6 0e02 	subs.w	lr, r6, r2
 800100a:	eb75 0e03 	sbcs.w	lr, r5, r3
 800100e:	bf22      	ittt	cs
 8001010:	1ab6      	subcs	r6, r6, r2
 8001012:	4675      	movcs	r5, lr
 8001014:	ea40 000c 	orrcs.w	r0, r0, ip
 8001018:	085b      	lsrs	r3, r3, #1
 800101a:	ea4f 0232 	mov.w	r2, r2, rrx
 800101e:	ebb6 0e02 	subs.w	lr, r6, r2
 8001022:	eb75 0e03 	sbcs.w	lr, r5, r3
 8001026:	bf22      	ittt	cs
 8001028:	1ab6      	subcs	r6, r6, r2
 800102a:	4675      	movcs	r5, lr
 800102c:	ea40 005c 	orrcs.w	r0, r0, ip, lsr #1
 8001030:	085b      	lsrs	r3, r3, #1
 8001032:	ea4f 0232 	mov.w	r2, r2, rrx
 8001036:	ebb6 0e02 	subs.w	lr, r6, r2
 800103a:	eb75 0e03 	sbcs.w	lr, r5, r3
 800103e:	bf22      	ittt	cs
 8001040:	1ab6      	subcs	r6, r6, r2
 8001042:	4675      	movcs	r5, lr
 8001044:	ea40 009c 	orrcs.w	r0, r0, ip, lsr #2
 8001048:	085b      	lsrs	r3, r3, #1
 800104a:	ea4f 0232 	mov.w	r2, r2, rrx
 800104e:	ebb6 0e02 	subs.w	lr, r6, r2
 8001052:	eb75 0e03 	sbcs.w	lr, r5, r3
 8001056:	bf22      	ittt	cs
 8001058:	1ab6      	subcs	r6, r6, r2
 800105a:	4675      	movcs	r5, lr
 800105c:	ea40 00dc 	orrcs.w	r0, r0, ip, lsr #3
 8001060:	ea55 0e06 	orrs.w	lr, r5, r6
 8001064:	d018      	beq.n	8001098 <__aeabi_ddiv+0x114>
 8001066:	ea4f 1505 	mov.w	r5, r5, lsl #4
 800106a:	ea45 7516 	orr.w	r5, r5, r6, lsr #28
 800106e:	ea4f 1606 	mov.w	r6, r6, lsl #4
 8001072:	ea4f 03c3 	mov.w	r3, r3, lsl #3
 8001076:	ea43 7352 	orr.w	r3, r3, r2, lsr #29
 800107a:	ea4f 02c2 	mov.w	r2, r2, lsl #3
 800107e:	ea5f 1c1c 	movs.w	ip, ip, lsr #4
 8001082:	d1c0      	bne.n	8001006 <__aeabi_ddiv+0x82>
 8001084:	f411 1f80 	tst.w	r1, #1048576	@ 0x100000
 8001088:	d10b      	bne.n	80010a2 <__aeabi_ddiv+0x11e>
 800108a:	ea41 0100 	orr.w	r1, r1, r0
 800108e:	f04f 0000 	mov.w	r0, #0
 8001092:	f04f 4c00 	mov.w	ip, #2147483648	@ 0x80000000
 8001096:	e7b6      	b.n	8001006 <__aeabi_ddiv+0x82>
 8001098:	f411 1f80 	tst.w	r1, #1048576	@ 0x100000
 800109c:	bf04      	itt	eq
 800109e:	4301      	orreq	r1, r0
 80010a0:	2000      	moveq	r0, #0
 80010a2:	f1b4 0cfd 	subs.w	ip, r4, #253	@ 0xfd
 80010a6:	bf88      	it	hi
 80010a8:	f5bc 6fe0 	cmphi.w	ip, #1792	@ 0x700
 80010ac:	f63f aeaf 	bhi.w	8000e0e <__aeabi_dmul+0xde>
 80010b0:	ebb5 0c03 	subs.w	ip, r5, r3
 80010b4:	bf04      	itt	eq
 80010b6:	ebb6 0c02 	subseq.w	ip, r6, r2
 80010ba:	ea5f 0c50 	movseq.w	ip, r0, lsr #1
 80010be:	f150 0000 	adcs.w	r0, r0, #0
 80010c2:	eb41 5104 	adc.w	r1, r1, r4, lsl #20
 80010c6:	bd70      	pop	{r4, r5, r6, pc}
 80010c8:	f00e 4e00 	and.w	lr, lr, #2147483648	@ 0x80000000
 80010cc:	ea4e 3111 	orr.w	r1, lr, r1, lsr #12
 80010d0:	eb14 045c 	adds.w	r4, r4, ip, lsr #1
 80010d4:	bfc2      	ittt	gt
 80010d6:	ebd4 050c 	rsbsgt	r5, r4, ip
 80010da:	ea41 5104 	orrgt.w	r1, r1, r4, lsl #20
 80010de:	bd70      	popgt	{r4, r5, r6, pc}
 80010e0:	f441 1180 	orr.w	r1, r1, #1048576	@ 0x100000
 80010e4:	f04f 0e00 	mov.w	lr, #0
 80010e8:	3c01      	subs	r4, #1
 80010ea:	e690      	b.n	8000e0e <__aeabi_dmul+0xde>
 80010ec:	ea45 0e06 	orr.w	lr, r5, r6
 80010f0:	e68d      	b.n	8000e0e <__aeabi_dmul+0xde>
 80010f2:	ea0c 5513 	and.w	r5, ip, r3, lsr #20
 80010f6:	ea94 0f0c 	teq	r4, ip
 80010fa:	bf08      	it	eq
 80010fc:	ea95 0f0c 	teqeq	r5, ip
 8001100:	f43f af3b 	beq.w	8000f7a <__aeabi_dmul+0x24a>
 8001104:	ea94 0f0c 	teq	r4, ip
 8001108:	d10a      	bne.n	8001120 <__aeabi_ddiv+0x19c>
 800110a:	ea50 3401 	orrs.w	r4, r0, r1, lsl #12
 800110e:	f47f af34 	bne.w	8000f7a <__aeabi_dmul+0x24a>
 8001112:	ea95 0f0c 	teq	r5, ip
 8001116:	f47f af25 	bne.w	8000f64 <__aeabi_dmul+0x234>
 800111a:	4610      	mov	r0, r2
 800111c:	4619      	mov	r1, r3
 800111e:	e72c      	b.n	8000f7a <__aeabi_dmul+0x24a>
 8001120:	ea95 0f0c 	teq	r5, ip
 8001124:	d106      	bne.n	8001134 <__aeabi_ddiv+0x1b0>
 8001126:	ea52 3503 	orrs.w	r5, r2, r3, lsl #12
 800112a:	f43f aefd 	beq.w	8000f28 <__aeabi_dmul+0x1f8>
 800112e:	4610      	mov	r0, r2
 8001130:	4619      	mov	r1, r3
 8001132:	e722      	b.n	8000f7a <__aeabi_dmul+0x24a>
 8001134:	ea50 0641 	orrs.w	r6, r0, r1, lsl #1
 8001138:	bf18      	it	ne
 800113a:	ea52 0643 	orrsne.w	r6, r2, r3, lsl #1
 800113e:	f47f aec5 	bne.w	8000ecc <__aeabi_dmul+0x19c>
 8001142:	ea50 0441 	orrs.w	r4, r0, r1, lsl #1
 8001146:	f47f af0d 	bne.w	8000f64 <__aeabi_dmul+0x234>
 800114a:	ea52 0543 	orrs.w	r5, r2, r3, lsl #1
 800114e:	f47f aeeb 	bne.w	8000f28 <__aeabi_dmul+0x1f8>
 8001152:	e712      	b.n	8000f7a <__aeabi_dmul+0x24a>

08001154 <__gedf2>:
 8001154:	f04f 3cff 	mov.w	ip, #4294967295
 8001158:	e006      	b.n	8001168 <__cmpdf2+0x4>
 800115a:	bf00      	nop

0800115c <__ledf2>:
 800115c:	f04f 0c01 	mov.w	ip, #1
 8001160:	e002      	b.n	8001168 <__cmpdf2+0x4>
 8001162:	bf00      	nop

08001164 <__cmpdf2>:
 8001164:	f04f 0c01 	mov.w	ip, #1
 8001168:	f84d cd04 	str.w	ip, [sp, #-4]!
 800116c:	ea4f 0c41 	mov.w	ip, r1, lsl #1
 8001170:	ea7f 5c6c 	mvns.w	ip, ip, asr #21
 8001174:	ea4f 0c43 	mov.w	ip, r3, lsl #1
 8001178:	bf18      	it	ne
 800117a:	ea7f 5c6c 	mvnsne.w	ip, ip, asr #21
 800117e:	d01b      	beq.n	80011b8 <__cmpdf2+0x54>
 8001180:	b001      	add	sp, #4
 8001182:	ea50 0c41 	orrs.w	ip, r0, r1, lsl #1
 8001186:	bf0c      	ite	eq
 8001188:	ea52 0c43 	orrseq.w	ip, r2, r3, lsl #1
 800118c:	ea91 0f03 	teqne	r1, r3
 8001190:	bf02      	ittt	eq
 8001192:	ea90 0f02 	teqeq	r0, r2
 8001196:	2000      	moveq	r0, #0
 8001198:	4770      	bxeq	lr
 800119a:	f110 0f00 	cmn.w	r0, #0
 800119e:	ea91 0f03 	teq	r1, r3
 80011a2:	bf58      	it	pl
 80011a4:	4299      	cmppl	r1, r3
 80011a6:	bf08      	it	eq
 80011a8:	4290      	cmpeq	r0, r2
 80011aa:	bf2c      	ite	cs
 80011ac:	17d8      	asrcs	r0, r3, #31
 80011ae:	ea6f 70e3 	mvncc.w	r0, r3, asr #31
 80011b2:	f040 0001 	orr.w	r0, r0, #1
 80011b6:	4770      	bx	lr
 80011b8:	ea4f 0c41 	mov.w	ip, r1, lsl #1
 80011bc:	ea7f 5c6c 	mvns.w	ip, ip, asr #21
 80011c0:	d102      	bne.n	80011c8 <__cmpdf2+0x64>
 80011c2:	ea50 3c01 	orrs.w	ip, r0, r1, lsl #12
 80011c6:	d107      	bne.n	80011d8 <__cmpdf2+0x74>
 80011c8:	ea4f 0c43 	mov.w	ip, r3, lsl #1
 80011cc:	ea7f 5c6c 	mvns.w	ip, ip, asr #21
 80011d0:	d1d6      	bne.n	8001180 <__cmpdf2+0x1c>
 80011d2:	ea52 3c03 	orrs.w	ip, r2, r3, lsl #12
 80011d6:	d0d3      	beq.n	8001180 <__cmpdf2+0x1c>
 80011d8:	f85d 0b04 	ldr.w	r0, [sp], #4
 80011dc:	4770      	bx	lr
 80011de:	bf00      	nop

080011e0 <__aeabi_cdrcmple>:
 80011e0:	4684      	mov	ip, r0
 80011e2:	4610      	mov	r0, r2
 80011e4:	4662      	mov	r2, ip
 80011e6:	468c      	mov	ip, r1
 80011e8:	4619      	mov	r1, r3
 80011ea:	4663      	mov	r3, ip
 80011ec:	e000      	b.n	80011f0 <__aeabi_cdcmpeq>
 80011ee:	bf00      	nop

080011f0 <__aeabi_cdcmpeq>:
 80011f0:	b501      	push	{r0, lr}
 80011f2:	f7ff ffb7 	bl	8001164 <__cmpdf2>
 80011f6:	2800      	cmp	r0, #0
 80011f8:	bf48      	it	mi
 80011fa:	f110 0f00 	cmnmi.w	r0, #0
 80011fe:	bd01      	pop	{r0, pc}

08001200 <__aeabi_dcmpeq>:
 8001200:	f84d ed08 	str.w	lr, [sp, #-8]!
 8001204:	f7ff fff4 	bl	80011f0 <__aeabi_cdcmpeq>
 8001208:	bf0c      	ite	eq
 800120a:	2001      	moveq	r0, #1
 800120c:	2000      	movne	r0, #0
 800120e:	f85d fb08 	ldr.w	pc, [sp], #8
 8001212:	bf00      	nop

08001214 <__aeabi_dcmplt>:
 8001214:	f84d ed08 	str.w	lr, [sp, #-8]!
 8001218:	f7ff ffea 	bl	80011f0 <__aeabi_cdcmpeq>
 800121c:	bf34      	ite	cc
 800121e:	2001      	movcc	r0, #1
 8001220:	2000      	movcs	r0, #0
 8001222:	f85d fb08 	ldr.w	pc, [sp], #8
 8001226:	bf00      	nop

08001228 <__aeabi_dcmple>:
 8001228:	f84d ed08 	str.w	lr, [sp, #-8]!
 800122c:	f7ff ffe0 	bl	80011f0 <__aeabi_cdcmpeq>
 8001230:	bf94      	ite	ls
 8001232:	2001      	movls	r0, #1
 8001234:	2000      	movhi	r0, #0
 8001236:	f85d fb08 	ldr.w	pc, [sp], #8
 800123a:	bf00      	nop

0800123c <__aeabi_dcmpge>:
 800123c:	f84d ed08 	str.w	lr, [sp, #-8]!
 8001240:	f7ff ffce 	bl	80011e0 <__aeabi_cdrcmple>
 8001244:	bf94      	ite	ls
 8001246:	2001      	movls	r0, #1
 8001248:	2000      	movhi	r0, #0
 800124a:	f85d fb08 	ldr.w	pc, [sp], #8
 800124e:	bf00      	nop

08001250 <__aeabi_dcmpgt>:
 8001250:	f84d ed08 	str.w	lr, [sp, #-8]!
 8001254:	f7ff ffc4 	bl	80011e0 <__aeabi_cdrcmple>
 8001258:	bf34      	ite	cc
 800125a:	2001      	movcc	r0, #1
 800125c:	2000      	movcs	r0, #0
 800125e:	f85d fb08 	ldr.w	pc, [sp], #8
 8001262:	bf00      	nop

08001264 <__aeabi_dcmpun>:
 8001264:	ea4f 0c41 	mov.w	ip, r1, lsl #1
 8001268:	ea7f 5c6c 	mvns.w	ip, ip, asr #21
 800126c:	d102      	bne.n	8001274 <__aeabi_dcmpun+0x10>
 800126e:	ea50 3c01 	orrs.w	ip, r0, r1, lsl #12
 8001272:	d10a      	bne.n	800128a <__aeabi_dcmpun+0x26>
 8001274:	ea4f 0c43 	mov.w	ip, r3, lsl #1
 8001278:	ea7f 5c6c 	mvns.w	ip, ip, asr #21
 800127c:	d102      	bne.n	8001284 <__aeabi_dcmpun+0x20>
 800127e:	ea52 3c03 	orrs.w	ip, r2, r3, lsl #12
 8001282:	d102      	bne.n	800128a <__aeabi_dcmpun+0x26>
 8001284:	f04f 0000 	mov.w	r0, #0
 8001288:	4770      	bx	lr
 800128a:	f04f 0001 	mov.w	r0, #1
 800128e:	4770      	bx	lr

08001290 <__aeabi_d2iz>:
 8001290:	ea4f 0241 	mov.w	r2, r1, lsl #1
 8001294:	f512 1200 	adds.w	r2, r2, #2097152	@ 0x200000
 8001298:	d215      	bcs.n	80012c6 <__aeabi_d2iz+0x36>
 800129a:	d511      	bpl.n	80012c0 <__aeabi_d2iz+0x30>
 800129c:	f46f 7378 	mvn.w	r3, #992	@ 0x3e0
 80012a0:	ebb3 5262 	subs.w	r2, r3, r2, asr #21
 80012a4:	d912      	bls.n	80012cc <__aeabi_d2iz+0x3c>
 80012a6:	ea4f 23c1 	mov.w	r3, r1, lsl #11
 80012aa:	f043 4300 	orr.w	r3, r3, #2147483648	@ 0x80000000
 80012ae:	ea43 5350 	orr.w	r3, r3, r0, lsr #21
 80012b2:	f011 4f00 	tst.w	r1, #2147483648	@ 0x80000000
 80012b6:	fa23 f002 	lsr.w	r0, r3, r2
 80012ba:	bf18      	it	ne
 80012bc:	4240      	negne	r0, r0
 80012be:	4770      	bx	lr
 80012c0:	f04f 0000 	mov.w	r0, #0
 80012c4:	4770      	bx	lr
 80012c6:	ea50 3001 	orrs.w	r0, r0, r1, lsl #12
 80012ca:	d105      	bne.n	80012d8 <__aeabi_d2iz+0x48>
 80012cc:	f011 4000 	ands.w	r0, r1, #2147483648	@ 0x80000000
 80012d0:	bf08      	it	eq
 80012d2:	f06f 4000 	mvneq.w	r0, #2147483648	@ 0x80000000
 80012d6:	4770      	bx	lr
 80012d8:	f04f 0000 	mov.w	r0, #0
 80012dc:	4770      	bx	lr
 80012de:	bf00      	nop

Disassembly of section .text.__cvt:

080012e0 <__cvt>:
 80012e0:	e92d 47ff 	stmdb	sp!, {r0, r1, r2, r3, r4, r5, r6, r7, r8, r9, sl, lr}
 80012e4:	ec57 6b10 	vmov	r6, r7, d0
 80012e8:	2f00      	cmp	r7, #0
 80012ea:	460c      	mov	r4, r1
 80012ec:	4691      	mov	r9, r2
 80012ee:	f8dd a030 	ldr.w	sl, [sp, #48]	@ 0x30
 80012f2:	4619      	mov	r1, r3
 80012f4:	f04f 0200 	mov.w	r2, #0
 80012f8:	da03      	bge.n	8001302 <__cvt+0x22>
 80012fa:	f107 4300 	add.w	r3, r7, #2147483648	@ 0x80000000
 80012fe:	461f      	mov	r7, r3
 8001300:	222d      	movs	r2, #45	@ 0x2d
 8001302:	9d0d      	ldr	r5, [sp, #52]	@ 0x34
 8001304:	700a      	strb	r2, [r1, #0]
 8001306:	f025 0520 	bic.w	r5, r5, #32
 800130a:	2d46      	cmp	r5, #70	@ 0x46
 800130c:	d004      	beq.n	8001318 <__cvt+0x38>
 800130e:	2d45      	cmp	r5, #69	@ 0x45
 8001310:	d100      	bne.n	8001314 <__cvt+0x34>
 8001312:	3401      	adds	r4, #1
 8001314:	2102      	movs	r1, #2
 8001316:	e000      	b.n	800131a <__cvt+0x3a>
 8001318:	2103      	movs	r1, #3
 800131a:	ab03      	add	r3, sp, #12
 800131c:	9301      	str	r3, [sp, #4]
 800131e:	ab02      	add	r3, sp, #8
 8001320:	9300      	str	r3, [sp, #0]
 8001322:	ec47 6b10 	vmov	d0, r6, r7
 8001326:	4653      	mov	r3, sl
 8001328:	4622      	mov	r2, r4
 800132a:	f000 fdd1 	bl	8001ed0 <_dtoa_r>
 800132e:	2d47      	cmp	r5, #71	@ 0x47
 8001330:	4680      	mov	r8, r0
 8001332:	d11a      	bne.n	800136a <__cvt+0x8a>
 8001334:	f019 0f01 	tst.w	r9, #1
 8001338:	d00e      	beq.n	8001358 <__cvt+0x78>
 800133a:	eb00 0904 	add.w	r9, r0, r4
 800133e:	2200      	movs	r2, #0
 8001340:	2300      	movs	r3, #0
 8001342:	4630      	mov	r0, r6
 8001344:	4639      	mov	r1, r7
 8001346:	f7ff ff5b 	bl	8001200 <__aeabi_dcmpeq>
 800134a:	b108      	cbz	r0, 8001350 <__cvt+0x70>
 800134c:	f8cd 900c 	str.w	r9, [sp, #12]
 8001350:	2230      	movs	r2, #48	@ 0x30
 8001352:	9b03      	ldr	r3, [sp, #12]
 8001354:	454b      	cmp	r3, r9
 8001356:	d31e      	bcc.n	8001396 <__cvt+0xb6>
 8001358:	9b03      	ldr	r3, [sp, #12]
 800135a:	9a0e      	ldr	r2, [sp, #56]	@ 0x38
 800135c:	eba3 0308 	sub.w	r3, r3, r8
 8001360:	4640      	mov	r0, r8
 8001362:	6013      	str	r3, [r2, #0]
 8001364:	b004      	add	sp, #16
 8001366:	e8bd 87f0 	ldmia.w	sp!, {r4, r5, r6, r7, r8, r9, sl, pc}
 800136a:	2d46      	cmp	r5, #70	@ 0x46
 800136c:	eb00 0904 	add.w	r9, r0, r4
 8001370:	d1e5      	bne.n	800133e <__cvt+0x5e>
 8001372:	7803      	ldrb	r3, [r0, #0]
 8001374:	2b30      	cmp	r3, #48	@ 0x30
 8001376:	d10a      	bne.n	800138e <__cvt+0xae>
 8001378:	2200      	movs	r2, #0
 800137a:	2300      	movs	r3, #0
 800137c:	4630      	mov	r0, r6
 800137e:	4639      	mov	r1, r7
 8001380:	f7ff ff3e 	bl	8001200 <__aeabi_dcmpeq>
 8001384:	b918      	cbnz	r0, 800138e <__cvt+0xae>
 8001386:	f1c4 0401 	rsb	r4, r4, #1
 800138a:	f8ca 4000 	str.w	r4, [sl]
 800138e:	f8da 3000 	ldr.w	r3, [sl]
 8001392:	4499      	add	r9, r3
 8001394:	e7d3      	b.n	800133e <__cvt+0x5e>
 8001396:	1c59      	adds	r1, r3, #1
 8001398:	9103      	str	r1, [sp, #12]
 800139a:	701a      	strb	r2, [r3, #0]
 800139c:	e7d9      	b.n	8001352 <__cvt+0x72>

Disassembly of section .text.__exponent:

0800139e <__exponent>:
 800139e:	b5f7      	push	{r0, r1, r2, r4, r5, r6, r7, lr}
 80013a0:	2900      	cmp	r1, #0
 80013a2:	bfba      	itte	lt
 80013a4:	4249      	neglt	r1, r1
 80013a6:	232d      	movlt	r3, #45	@ 0x2d
 80013a8:	232b      	movge	r3, #43	@ 0x2b
 80013aa:	2909      	cmp	r1, #9
 80013ac:	7002      	strb	r2, [r0, #0]
 80013ae:	7043      	strb	r3, [r0, #1]
 80013b0:	dd2a      	ble.n	8001408 <__exponent+0x6a>
 80013b2:	f10d 0407 	add.w	r4, sp, #7
 80013b6:	1c87      	adds	r7, r0, #2
 80013b8:	46a6      	mov	lr, r4
 80013ba:	260a      	movs	r6, #10
 80013bc:	46a4      	mov	ip, r4
 80013be:	fbb1 f5f6 	udiv	r5, r1, r6
 80013c2:	fb06 1215 	mls	r2, r6, r5, r1
 80013c6:	3230      	adds	r2, #48	@ 0x30
 80013c8:	2963      	cmp	r1, #99	@ 0x63
 80013ca:	f104 34ff 	add.w	r4, r4, #4294967295
 80013ce:	f80c 2c01 	strb.w	r2, [ip, #-1]
 80013d2:	4629      	mov	r1, r5
 80013d4:	dcf2      	bgt.n	80013bc <__exponent+0x1e>
 80013d6:	3130      	adds	r1, #48	@ 0x30
 80013d8:	f1ac 0202 	sub.w	r2, ip, #2
 80013dc:	f804 1c01 	strb.w	r1, [r4, #-1]
 80013e0:	1c41      	adds	r1, r0, #1
 80013e2:	4614      	mov	r4, r2
 80013e4:	4572      	cmp	r2, lr
 80013e6:	d30a      	bcc.n	80013fe <__exponent+0x60>
 80013e8:	f10d 0309 	add.w	r3, sp, #9
 80013ec:	eba3 030c 	sub.w	r3, r3, ip
 80013f0:	45a6      	cmp	lr, r4
 80013f2:	bf38      	it	cc
 80013f4:	2300      	movcc	r3, #0
 80013f6:	443b      	add	r3, r7
 80013f8:	1a18      	subs	r0, r3, r0
 80013fa:	b003      	add	sp, #12
 80013fc:	bdf0      	pop	{r4, r5, r6, r7, pc}
 80013fe:	f812 3b01 	ldrb.w	r3, [r2], #1
 8001402:	f801 3f01 	strb.w	r3, [r1, #1]!
 8001406:	e7ed      	b.n	80013e4 <__exponent+0x46>
 8001408:	2330      	movs	r3, #48	@ 0x30
 800140a:	3130      	adds	r1, #48	@ 0x30
 800140c:	7083      	strb	r3, [r0, #2]
 800140e:	70c1      	strb	r1, [r0, #3]
 8001410:	1d03      	adds	r3, r0, #4
 8001412:	e7f1      	b.n	80013f8 <__exponent+0x5a>

Disassembly of section .text._printf_float:

08001414 <_printf_float>:
 8001414:	e92d 4ff0 	stmdb	sp!, {r4, r5, r6, r7, r8, r9, sl, fp, lr}
 8001418:	b08f      	sub	sp, #60	@ 0x3c
 800141a:	460c      	mov	r4, r1
 800141c:	f8dd 8060 	ldr.w	r8, [sp, #96]	@ 0x60
 8001420:	4616      	mov	r6, r2
 8001422:	461f      	mov	r7, r3
 8001424:	4605      	mov	r5, r0
 8001426:	f000 fcaf 	bl	8001d88 <_localeconv_r>
 800142a:	6803      	ldr	r3, [r0, #0]
 800142c:	9307      	str	r3, [sp, #28]
 800142e:	4618      	mov	r0, r3
 8001430:	f7ff f986 	bl	8000740 <strlen>
 8001434:	2300      	movs	r3, #0
 8001436:	930c      	str	r3, [sp, #48]	@ 0x30
 8001438:	f8d8 3000 	ldr.w	r3, [r8]
 800143c:	f894 a018 	ldrb.w	sl, [r4, #24]
 8001440:	f8d4 b000 	ldr.w	fp, [r4]
 8001444:	9008      	str	r0, [sp, #32]
 8001446:	3307      	adds	r3, #7
 8001448:	f023 0307 	bic.w	r3, r3, #7
 800144c:	ecb3 7b02 	vldmia	r3!, {d7}
 8001450:	ed8d 7b04 	vstr	d7, [sp, #16]
 8001454:	f8c8 3000 	str.w	r3, [r8]
 8001458:	e9dd 8304 	ldrd	r8, r3, [sp, #16]
 800145c:	f023 4900 	bic.w	r9, r3, #2147483648	@ 0x80000000
 8001460:	ed84 7b12 	vstr	d7, [r4, #72]	@ 0x48
 8001464:	4b9a      	ldr	r3, [pc, #616]	@ (80016d0 <_printf_float+0x2bc>)
 8001466:	f04f 32ff 	mov.w	r2, #4294967295
 800146a:	4640      	mov	r0, r8
 800146c:	4649      	mov	r1, r9
 800146e:	f7ff fef9 	bl	8001264 <__aeabi_dcmpun>
 8001472:	bb70      	cbnz	r0, 80014d2 <_printf_float+0xbe>
 8001474:	4b96      	ldr	r3, [pc, #600]	@ (80016d0 <_printf_float+0x2bc>)
 8001476:	f04f 32ff 	mov.w	r2, #4294967295
 800147a:	4640      	mov	r0, r8
 800147c:	4649      	mov	r1, r9
 800147e:	f7ff fed3 	bl	8001228 <__aeabi_dcmple>
 8001482:	bb30      	cbnz	r0, 80014d2 <_printf_float+0xbe>
 8001484:	e9dd 0104 	ldrd	r0, r1, [sp, #16]
 8001488:	2200      	movs	r2, #0
 800148a:	2300      	movs	r3, #0
 800148c:	f7ff fec2 	bl	8001214 <__aeabi_dcmplt>
 8001490:	b110      	cbz	r0, 8001498 <_printf_float+0x84>
 8001492:	232d      	movs	r3, #45	@ 0x2d
 8001494:	f884 3043 	strb.w	r3, [r4, #67]	@ 0x43
 8001498:	4a8e      	ldr	r2, [pc, #568]	@ (80016d4 <_printf_float+0x2c0>)
 800149a:	4b8f      	ldr	r3, [pc, #572]	@ (80016d8 <_printf_float+0x2c4>)
 800149c:	f1ba 0f47 	cmp.w	sl, #71	@ 0x47
 80014a0:	bf8c      	ite	hi
 80014a2:	4690      	movhi	r8, r2
 80014a4:	4698      	movls	r8, r3
 80014a6:	2303      	movs	r3, #3
 80014a8:	6123      	str	r3, [r4, #16]
 80014aa:	f02b 0304 	bic.w	r3, fp, #4
 80014ae:	6023      	str	r3, [r4, #0]
 80014b0:	f04f 0900 	mov.w	r9, #0
 80014b4:	9700      	str	r7, [sp, #0]
 80014b6:	4633      	mov	r3, r6
 80014b8:	aa0d      	add	r2, sp, #52	@ 0x34
 80014ba:	4621      	mov	r1, r4
 80014bc:	4628      	mov	r0, r5
 80014be:	f000 f9cd 	bl	800185c <_printf_common>
 80014c2:	3001      	adds	r0, #1
 80014c4:	f040 808c 	bne.w	80015e0 <_printf_float+0x1cc>
 80014c8:	f04f 30ff 	mov.w	r0, #4294967295
 80014cc:	b00f      	add	sp, #60	@ 0x3c
 80014ce:	e8bd 8ff0 	ldmia.w	sp!, {r4, r5, r6, r7, r8, r9, sl, fp, pc}
 80014d2:	e9dd 2304 	ldrd	r2, r3, [sp, #16]
 80014d6:	4610      	mov	r0, r2
 80014d8:	4619      	mov	r1, r3
 80014da:	f7ff fec3 	bl	8001264 <__aeabi_dcmpun>
 80014de:	b140      	cbz	r0, 80014f2 <_printf_float+0xde>
 80014e0:	9b05      	ldr	r3, [sp, #20]
 80014e2:	4a7e      	ldr	r2, [pc, #504]	@ (80016dc <_printf_float+0x2c8>)
 80014e4:	2b00      	cmp	r3, #0
 80014e6:	bfbc      	itt	lt
 80014e8:	232d      	movlt	r3, #45	@ 0x2d
 80014ea:	f884 3043 	strblt.w	r3, [r4, #67]	@ 0x43
 80014ee:	4b7c      	ldr	r3, [pc, #496]	@ (80016e0 <_printf_float+0x2cc>)
 80014f0:	e7d4      	b.n	800149c <_printf_float+0x88>
 80014f2:	6863      	ldr	r3, [r4, #4]
 80014f4:	1c5a      	adds	r2, r3, #1
 80014f6:	f00a 09df 	and.w	r9, sl, #223	@ 0xdf
 80014fa:	d13b      	bne.n	8001574 <_printf_float+0x160>
 80014fc:	2306      	movs	r3, #6
 80014fe:	6063      	str	r3, [r4, #4]
 8001500:	f44b 6280 	orr.w	r2, fp, #1024	@ 0x400
 8001504:	2300      	movs	r3, #0
 8001506:	6022      	str	r2, [r4, #0]
 8001508:	9303      	str	r3, [sp, #12]
 800150a:	ab0c      	add	r3, sp, #48	@ 0x30
 800150c:	e9cd a301 	strd	sl, r3, [sp, #4]
 8001510:	ab0b      	add	r3, sp, #44	@ 0x2c
 8001512:	9300      	str	r3, [sp, #0]
 8001514:	6861      	ldr	r1, [r4, #4]
 8001516:	ed9d 0b04 	vldr	d0, [sp, #16]
 800151a:	f10d 032b 	add.w	r3, sp, #43	@ 0x2b
 800151e:	4628      	mov	r0, r5
 8001520:	f7ff fede 	bl	80012e0 <__cvt>
 8001524:	f1b9 0f47 	cmp.w	r9, #71	@ 0x47
 8001528:	990b      	ldr	r1, [sp, #44]	@ 0x2c
 800152a:	4680      	mov	r8, r0
 800152c:	d129      	bne.n	8001582 <_printf_float+0x16e>
 800152e:	1cc8      	adds	r0, r1, #3
 8001530:	db02      	blt.n	8001538 <_printf_float+0x124>
 8001532:	6863      	ldr	r3, [r4, #4]
 8001534:	428b      	cmp	r3, r1
 8001536:	da41      	bge.n	80015bc <_printf_float+0x1a8>
 8001538:	f1aa 0a02 	sub.w	sl, sl, #2
 800153c:	fa5f fa8a 	uxtb.w	sl, sl
 8001540:	3901      	subs	r1, #1
 8001542:	4652      	mov	r2, sl
 8001544:	f104 0050 	add.w	r0, r4, #80	@ 0x50
 8001548:	910b      	str	r1, [sp, #44]	@ 0x2c
 800154a:	f7ff ff28 	bl	800139e <__exponent>
 800154e:	9a0c      	ldr	r2, [sp, #48]	@ 0x30
 8001550:	1813      	adds	r3, r2, r0
 8001552:	2a01      	cmp	r2, #1
 8001554:	4681      	mov	r9, r0
 8001556:	6123      	str	r3, [r4, #16]
 8001558:	dc02      	bgt.n	8001560 <_printf_float+0x14c>
 800155a:	6822      	ldr	r2, [r4, #0]
 800155c:	07d2      	lsls	r2, r2, #31
 800155e:	d501      	bpl.n	8001564 <_printf_float+0x150>
 8001560:	3301      	adds	r3, #1
 8001562:	6123      	str	r3, [r4, #16]
 8001564:	f89d 302b 	ldrb.w	r3, [sp, #43]	@ 0x2b
 8001568:	2b00      	cmp	r3, #0
 800156a:	d0a3      	beq.n	80014b4 <_printf_float+0xa0>
 800156c:	232d      	movs	r3, #45	@ 0x2d
 800156e:	f884 3043 	strb.w	r3, [r4, #67]	@ 0x43
 8001572:	e79f      	b.n	80014b4 <_printf_float+0xa0>
 8001574:	f1b9 0f47 	cmp.w	r9, #71	@ 0x47
 8001578:	d1c2      	bne.n	8001500 <_printf_float+0xec>
 800157a:	2b00      	cmp	r3, #0
 800157c:	d1c0      	bne.n	8001500 <_printf_float+0xec>
 800157e:	2301      	movs	r3, #1
 8001580:	e7bd      	b.n	80014fe <_printf_float+0xea>
 8001582:	f1ba 0f65 	cmp.w	sl, #101	@ 0x65
 8001586:	d9db      	bls.n	8001540 <_printf_float+0x12c>
 8001588:	f1ba 0f66 	cmp.w	sl, #102	@ 0x66
 800158c:	d118      	bne.n	80015c0 <_printf_float+0x1ac>
 800158e:	2900      	cmp	r1, #0
 8001590:	6863      	ldr	r3, [r4, #4]
 8001592:	dd0b      	ble.n	80015ac <_printf_float+0x198>
 8001594:	6121      	str	r1, [r4, #16]
 8001596:	b913      	cbnz	r3, 800159e <_printf_float+0x18a>
 8001598:	6822      	ldr	r2, [r4, #0]
 800159a:	07d0      	lsls	r0, r2, #31
 800159c:	d502      	bpl.n	80015a4 <_printf_float+0x190>
 800159e:	3301      	adds	r3, #1
 80015a0:	440b      	add	r3, r1
 80015a2:	6123      	str	r3, [r4, #16]
 80015a4:	65a1      	str	r1, [r4, #88]	@ 0x58
 80015a6:	f04f 0900 	mov.w	r9, #0
 80015aa:	e7db      	b.n	8001564 <_printf_float+0x150>
 80015ac:	b913      	cbnz	r3, 80015b4 <_printf_float+0x1a0>
 80015ae:	6822      	ldr	r2, [r4, #0]
 80015b0:	07d2      	lsls	r2, r2, #31
 80015b2:	d501      	bpl.n	80015b8 <_printf_float+0x1a4>
 80015b4:	3302      	adds	r3, #2
 80015b6:	e7f4      	b.n	80015a2 <_printf_float+0x18e>
 80015b8:	2301      	movs	r3, #1
 80015ba:	e7f2      	b.n	80015a2 <_printf_float+0x18e>
 80015bc:	f04f 0a67 	mov.w	sl, #103	@ 0x67
 80015c0:	9b0c      	ldr	r3, [sp, #48]	@ 0x30
 80015c2:	428b      	cmp	r3, r1
 80015c4:	dc05      	bgt.n	80015d2 <_printf_float+0x1be>
 80015c6:	6823      	ldr	r3, [r4, #0]
 80015c8:	6121      	str	r1, [r4, #16]
 80015ca:	07d8      	lsls	r0, r3, #31
 80015cc:	d5ea      	bpl.n	80015a4 <_printf_float+0x190>
 80015ce:	1c4b      	adds	r3, r1, #1
 80015d0:	e7e7      	b.n	80015a2 <_printf_float+0x18e>
 80015d2:	2900      	cmp	r1, #0
 80015d4:	bfd4      	ite	le
 80015d6:	f1c1 0202 	rsble	r2, r1, #2
 80015da:	2201      	movgt	r2, #1
 80015dc:	4413      	add	r3, r2
 80015de:	e7e0      	b.n	80015a2 <_printf_float+0x18e>
 80015e0:	6823      	ldr	r3, [r4, #0]
 80015e2:	055a      	lsls	r2, r3, #21
 80015e4:	d407      	bmi.n	80015f6 <_printf_float+0x1e2>
 80015e6:	6923      	ldr	r3, [r4, #16]
 80015e8:	4642      	mov	r2, r8
 80015ea:	4631      	mov	r1, r6
 80015ec:	4628      	mov	r0, r5
 80015ee:	47b8      	blx	r7
 80015f0:	3001      	adds	r0, #1
 80015f2:	d128      	bne.n	8001646 <_printf_float+0x232>
 80015f4:	e768      	b.n	80014c8 <_printf_float+0xb4>
 80015f6:	f1ba 0f65 	cmp.w	sl, #101	@ 0x65
 80015fa:	f240 80db 	bls.w	80017b4 <_printf_float+0x3a0>
 80015fe:	e9d4 0112 	ldrd	r0, r1, [r4, #72]	@ 0x48
 8001602:	2200      	movs	r2, #0
 8001604:	2300      	movs	r3, #0
 8001606:	f7ff fdfb 	bl	8001200 <__aeabi_dcmpeq>
 800160a:	b390      	cbz	r0, 8001672 <_printf_float+0x25e>
 800160c:	4a35      	ldr	r2, [pc, #212]	@ (80016e4 <_printf_float+0x2d0>)
 800160e:	2301      	movs	r3, #1
 8001610:	4631      	mov	r1, r6
 8001612:	4628      	mov	r0, r5
 8001614:	47b8      	blx	r7
 8001616:	3001      	adds	r0, #1
 8001618:	f43f af56 	beq.w	80014c8 <_printf_float+0xb4>
 800161c:	e9dd 380b 	ldrd	r3, r8, [sp, #44]	@ 0x2c
 8001620:	4543      	cmp	r3, r8
 8001622:	db02      	blt.n	800162a <_printf_float+0x216>
 8001624:	6823      	ldr	r3, [r4, #0]
 8001626:	07d8      	lsls	r0, r3, #31
 8001628:	d50d      	bpl.n	8001646 <_printf_float+0x232>
 800162a:	e9dd 2307 	ldrd	r2, r3, [sp, #28]
 800162e:	4631      	mov	r1, r6
 8001630:	4628      	mov	r0, r5
 8001632:	47b8      	blx	r7
 8001634:	3001      	adds	r0, #1
 8001636:	f43f af47 	beq.w	80014c8 <_printf_float+0xb4>
 800163a:	f04f 0900 	mov.w	r9, #0
 800163e:	f108 38ff 	add.w	r8, r8, #4294967295
 8001642:	45c8      	cmp	r8, r9
 8001644:	dc09      	bgt.n	800165a <_printf_float+0x246>
 8001646:	6823      	ldr	r3, [r4, #0]
 8001648:	079b      	lsls	r3, r3, #30
 800164a:	f100 8104 	bmi.w	8001856 <_printf_float+0x442>
 800164e:	68e0      	ldr	r0, [r4, #12]
 8001650:	9b0d      	ldr	r3, [sp, #52]	@ 0x34
 8001652:	4298      	cmp	r0, r3
 8001654:	bfb8      	it	lt
 8001656:	4618      	movlt	r0, r3
 8001658:	e738      	b.n	80014cc <_printf_float+0xb8>
 800165a:	2301      	movs	r3, #1
 800165c:	f104 021a 	add.w	r2, r4, #26
 8001660:	4631      	mov	r1, r6
 8001662:	4628      	mov	r0, r5
 8001664:	47b8      	blx	r7
 8001666:	3001      	adds	r0, #1
 8001668:	f43f af2e 	beq.w	80014c8 <_printf_float+0xb4>
 800166c:	f109 0901 	add.w	r9, r9, #1
 8001670:	e7e7      	b.n	8001642 <_printf_float+0x22e>
 8001672:	9b0b      	ldr	r3, [sp, #44]	@ 0x2c
 8001674:	4283      	cmp	r3, r0
 8001676:	dc37      	bgt.n	80016e8 <_printf_float+0x2d4>
 8001678:	4a1a      	ldr	r2, [pc, #104]	@ (80016e4 <_printf_float+0x2d0>)
 800167a:	2301      	movs	r3, #1
 800167c:	4631      	mov	r1, r6
 800167e:	4628      	mov	r0, r5
 8001680:	47b8      	blx	r7
 8001682:	3001      	adds	r0, #1
 8001684:	f43f af20 	beq.w	80014c8 <_printf_float+0xb4>
 8001688:	e9dd 390b 	ldrd	r3, r9, [sp, #44]	@ 0x2c
 800168c:	ea59 0303 	orrs.w	r3, r9, r3
 8001690:	d102      	bne.n	8001698 <_printf_float+0x284>
 8001692:	6823      	ldr	r3, [r4, #0]
 8001694:	07d9      	lsls	r1, r3, #31
 8001696:	d5d6      	bpl.n	8001646 <_printf_float+0x232>
 8001698:	e9dd 2307 	ldrd	r2, r3, [sp, #28]
 800169c:	4631      	mov	r1, r6
 800169e:	4628      	mov	r0, r5
 80016a0:	47b8      	blx	r7
 80016a2:	3001      	adds	r0, #1
 80016a4:	f43f af10 	beq.w	80014c8 <_printf_float+0xb4>
 80016a8:	f04f 0a00 	mov.w	sl, #0
 80016ac:	9b0b      	ldr	r3, [sp, #44]	@ 0x2c
 80016ae:	425b      	negs	r3, r3
 80016b0:	4553      	cmp	r3, sl
 80016b2:	dc01      	bgt.n	80016b8 <_printf_float+0x2a4>
 80016b4:	464b      	mov	r3, r9
 80016b6:	e797      	b.n	80015e8 <_printf_float+0x1d4>
 80016b8:	2301      	movs	r3, #1
 80016ba:	f104 021a 	add.w	r2, r4, #26
 80016be:	4631      	mov	r1, r6
 80016c0:	4628      	mov	r0, r5
 80016c2:	47b8      	blx	r7
 80016c4:	3001      	adds	r0, #1
 80016c6:	f43f aeff 	beq.w	80014c8 <_printf_float+0xb4>
 80016ca:	f10a 0a01 	add.w	sl, sl, #1
 80016ce:	e7ed      	b.n	80016ac <_printf_float+0x298>
 80016d0:	7fefffff 			@ <UNDEFINED> instruction: 7fefffff
 80016d4:	08004b7e 			@ <UNDEFINED> instruction: 08004b7e
 80016d8:	08004b7a 			@ <UNDEFINED> instruction: 08004b7a
 80016dc:	08004b86 			@ <UNDEFINED> instruction: 08004b86
 80016e0:	08004b82 			@ <UNDEFINED> instruction: 08004b82
 80016e4:	08004b8a 			@ <UNDEFINED> instruction: 08004b8a
 80016e8:	6da3      	ldr	r3, [r4, #88]	@ 0x58
 80016ea:	f8dd b030 	ldr.w	fp, [sp, #48]	@ 0x30
 80016ee:	455b      	cmp	r3, fp
 80016f0:	bfa8      	it	ge
 80016f2:	465b      	movge	r3, fp
 80016f4:	2b00      	cmp	r3, #0
 80016f6:	9304      	str	r3, [sp, #16]
 80016f8:	dc37      	bgt.n	800176a <_printf_float+0x356>
 80016fa:	f04f 0900 	mov.w	r9, #0
 80016fe:	f104 021a 	add.w	r2, r4, #26
 8001702:	9b04      	ldr	r3, [sp, #16]
 8001704:	f8d4 a058 	ldr.w	sl, [r4, #88]	@ 0x58
 8001708:	2b00      	cmp	r3, #0
 800170a:	bfac      	ite	ge
 800170c:	ebaa 0303 	subge.w	r3, sl, r3
 8001710:	4653      	movlt	r3, sl
 8001712:	454b      	cmp	r3, r9
 8001714:	dc31      	bgt.n	800177a <_printf_float+0x366>
 8001716:	9b0b      	ldr	r3, [sp, #44]	@ 0x2c
 8001718:	459b      	cmp	fp, r3
 800171a:	dc3a      	bgt.n	8001792 <_printf_float+0x37e>
 800171c:	6823      	ldr	r3, [r4, #0]
 800171e:	07da      	lsls	r2, r3, #31
 8001720:	d437      	bmi.n	8001792 <_printf_float+0x37e>
 8001722:	9b0b      	ldr	r3, [sp, #44]	@ 0x2c
 8001724:	ebab 0903 	sub.w	r9, fp, r3
 8001728:	ebab 030a 	sub.w	r3, fp, sl
 800172c:	4599      	cmp	r9, r3
 800172e:	bfa8      	it	ge
 8001730:	4699      	movge	r9, r3
 8001732:	f1b9 0f00 	cmp.w	r9, #0
 8001736:	dc34      	bgt.n	80017a2 <_printf_float+0x38e>
 8001738:	f04f 0800 	mov.w	r8, #0
 800173c:	9b0b      	ldr	r3, [sp, #44]	@ 0x2c
 800173e:	f1b9 0f00 	cmp.w	r9, #0
 8001742:	ebab 0303 	sub.w	r3, fp, r3
 8001746:	bfa8      	it	ge
 8001748:	eba3 0309 	subge.w	r3, r3, r9
 800174c:	4543      	cmp	r3, r8
 800174e:	f77f af7a 	ble.w	8001646 <_printf_float+0x232>
 8001752:	2301      	movs	r3, #1
 8001754:	f104 021a 	add.w	r2, r4, #26
 8001758:	4631      	mov	r1, r6
 800175a:	4628      	mov	r0, r5
 800175c:	47b8      	blx	r7
 800175e:	3001      	adds	r0, #1
 8001760:	f43f aeb2 	beq.w	80014c8 <_printf_float+0xb4>
 8001764:	f108 0801 	add.w	r8, r8, #1
 8001768:	e7e8      	b.n	800173c <_printf_float+0x328>
 800176a:	9b04      	ldr	r3, [sp, #16]
 800176c:	4642      	mov	r2, r8
 800176e:	4631      	mov	r1, r6
 8001770:	4628      	mov	r0, r5
 8001772:	47b8      	blx	r7
 8001774:	3001      	adds	r0, #1
 8001776:	d1c0      	bne.n	80016fa <_printf_float+0x2e6>
 8001778:	e6a6      	b.n	80014c8 <_printf_float+0xb4>
 800177a:	2301      	movs	r3, #1
 800177c:	4631      	mov	r1, r6
 800177e:	4628      	mov	r0, r5
 8001780:	9209      	str	r2, [sp, #36]	@ 0x24
 8001782:	47b8      	blx	r7
 8001784:	3001      	adds	r0, #1
 8001786:	f43f ae9f 	beq.w	80014c8 <_printf_float+0xb4>
 800178a:	9a09      	ldr	r2, [sp, #36]	@ 0x24
 800178c:	f109 0901 	add.w	r9, r9, #1
 8001790:	e7b7      	b.n	8001702 <_printf_float+0x2ee>
 8001792:	e9dd 2307 	ldrd	r2, r3, [sp, #28]
 8001796:	4631      	mov	r1, r6
 8001798:	4628      	mov	r0, r5
 800179a:	47b8      	blx	r7
 800179c:	3001      	adds	r0, #1
 800179e:	d1c0      	bne.n	8001722 <_printf_float+0x30e>
 80017a0:	e692      	b.n	80014c8 <_printf_float+0xb4>
 80017a2:	464b      	mov	r3, r9
 80017a4:	eb08 020a 	add.w	r2, r8, sl
 80017a8:	4631      	mov	r1, r6
 80017aa:	4628      	mov	r0, r5
 80017ac:	47b8      	blx	r7
 80017ae:	3001      	adds	r0, #1
 80017b0:	d1c2      	bne.n	8001738 <_printf_float+0x324>
 80017b2:	e689      	b.n	80014c8 <_printf_float+0xb4>
 80017b4:	f8dd a030 	ldr.w	sl, [sp, #48]	@ 0x30
 80017b8:	f1ba 0f01 	cmp.w	sl, #1
 80017bc:	dc01      	bgt.n	80017c2 <_printf_float+0x3ae>
 80017be:	07db      	lsls	r3, r3, #31
 80017c0:	d535      	bpl.n	800182e <_printf_float+0x41a>
 80017c2:	2301      	movs	r3, #1
 80017c4:	4642      	mov	r2, r8
 80017c6:	4631      	mov	r1, r6
 80017c8:	4628      	mov	r0, r5
 80017ca:	47b8      	blx	r7
 80017cc:	3001      	adds	r0, #1
 80017ce:	f43f ae7b 	beq.w	80014c8 <_printf_float+0xb4>
 80017d2:	e9dd 2307 	ldrd	r2, r3, [sp, #28]
 80017d6:	4631      	mov	r1, r6
 80017d8:	4628      	mov	r0, r5
 80017da:	47b8      	blx	r7
 80017dc:	3001      	adds	r0, #1
 80017de:	f43f ae73 	beq.w	80014c8 <_printf_float+0xb4>
 80017e2:	e9d4 0112 	ldrd	r0, r1, [r4, #72]	@ 0x48
 80017e6:	2200      	movs	r2, #0
 80017e8:	2300      	movs	r3, #0
 80017ea:	f10a 3aff 	add.w	sl, sl, #4294967295
 80017ee:	f7ff fd07 	bl	8001200 <__aeabi_dcmpeq>
 80017f2:	b9c8      	cbnz	r0, 8001828 <_printf_float+0x414>
 80017f4:	4653      	mov	r3, sl
 80017f6:	f108 0201 	add.w	r2, r8, #1
 80017fa:	4631      	mov	r1, r6
 80017fc:	4628      	mov	r0, r5
 80017fe:	47b8      	blx	r7
 8001800:	3001      	adds	r0, #1
 8001802:	d10d      	bne.n	8001820 <_printf_float+0x40c>
 8001804:	e660      	b.n	80014c8 <_printf_float+0xb4>
 8001806:	2301      	movs	r3, #1
 8001808:	f104 021a 	add.w	r2, r4, #26
 800180c:	4631      	mov	r1, r6
 800180e:	4628      	mov	r0, r5
 8001810:	47b8      	blx	r7
 8001812:	3001      	adds	r0, #1
 8001814:	f43f ae58 	beq.w	80014c8 <_printf_float+0xb4>
 8001818:	f108 0801 	add.w	r8, r8, #1
 800181c:	45d0      	cmp	r8, sl
 800181e:	dbf2      	blt.n	8001806 <_printf_float+0x3f2>
 8001820:	464b      	mov	r3, r9
 8001822:	f104 0250 	add.w	r2, r4, #80	@ 0x50
 8001826:	e6e0      	b.n	80015ea <_printf_float+0x1d6>
 8001828:	f04f 0800 	mov.w	r8, #0
 800182c:	e7f6      	b.n	800181c <_printf_float+0x408>
 800182e:	2301      	movs	r3, #1
 8001830:	4642      	mov	r2, r8
 8001832:	e7e2      	b.n	80017fa <_printf_float+0x3e6>
 8001834:	2301      	movs	r3, #1
 8001836:	f104 0219 	add.w	r2, r4, #25
 800183a:	4631      	mov	r1, r6
 800183c:	4628      	mov	r0, r5
 800183e:	47b8      	blx	r7
 8001840:	3001      	adds	r0, #1
 8001842:	f43f ae41 	beq.w	80014c8 <_printf_float+0xb4>
 8001846:	f108 0801 	add.w	r8, r8, #1
 800184a:	68e3      	ldr	r3, [r4, #12]
 800184c:	990d      	ldr	r1, [sp, #52]	@ 0x34
 800184e:	1a5b      	subs	r3, r3, r1
 8001850:	4543      	cmp	r3, r8
 8001852:	dcef      	bgt.n	8001834 <_printf_float+0x420>
 8001854:	e6fb      	b.n	800164e <_printf_float+0x23a>
 8001856:	f04f 0800 	mov.w	r8, #0
 800185a:	e7f6      	b.n	800184a <_printf_float+0x436>

Disassembly of section .text._printf_common:

0800185c <_printf_common>:
 800185c:	e92d 47f0 	stmdb	sp!, {r4, r5, r6, r7, r8, r9, sl, lr}
 8001860:	4691      	mov	r9, r2
 8001862:	4698      	mov	r8, r3
 8001864:	688a      	ldr	r2, [r1, #8]
 8001866:	690b      	ldr	r3, [r1, #16]
 8001868:	9e08      	ldr	r6, [sp, #32]
 800186a:	4293      	cmp	r3, r2
 800186c:	bfb8      	it	lt
 800186e:	4613      	movlt	r3, r2
 8001870:	f8c9 3000 	str.w	r3, [r9]
 8001874:	f891 2043 	ldrb.w	r2, [r1, #67]	@ 0x43
 8001878:	4607      	mov	r7, r0
 800187a:	460c      	mov	r4, r1
 800187c:	b112      	cbz	r2, 8001884 <_printf_common+0x28>
 800187e:	3301      	adds	r3, #1
 8001880:	f8c9 3000 	str.w	r3, [r9]
 8001884:	6823      	ldr	r3, [r4, #0]
 8001886:	0699      	lsls	r1, r3, #26
 8001888:	bf42      	ittt	mi
 800188a:	f8d9 3000 	ldrmi.w	r3, [r9]
 800188e:	3302      	addmi	r3, #2
 8001890:	f8c9 3000 	strmi.w	r3, [r9]
 8001894:	6825      	ldr	r5, [r4, #0]
 8001896:	f015 0506 	ands.w	r5, r5, #6
 800189a:	d107      	bne.n	80018ac <_printf_common+0x50>
 800189c:	f104 0a19 	add.w	sl, r4, #25
 80018a0:	68e3      	ldr	r3, [r4, #12]
 80018a2:	f8d9 2000 	ldr.w	r2, [r9]
 80018a6:	1a9b      	subs	r3, r3, r2
 80018a8:	42ab      	cmp	r3, r5
 80018aa:	dc29      	bgt.n	8001900 <_printf_common+0xa4>
 80018ac:	f894 3043 	ldrb.w	r3, [r4, #67]	@ 0x43
 80018b0:	6822      	ldr	r2, [r4, #0]
 80018b2:	3b00      	subs	r3, #0
 80018b4:	bf18      	it	ne
 80018b6:	2301      	movne	r3, #1
 80018b8:	0692      	lsls	r2, r2, #26
 80018ba:	d42e      	bmi.n	800191a <_printf_common+0xbe>
 80018bc:	f104 0243 	add.w	r2, r4, #67	@ 0x43
 80018c0:	4641      	mov	r1, r8
 80018c2:	4638      	mov	r0, r7
 80018c4:	47b0      	blx	r6
 80018c6:	3001      	adds	r0, #1
 80018c8:	d021      	beq.n	800190e <_printf_common+0xb2>
 80018ca:	6823      	ldr	r3, [r4, #0]
 80018cc:	68a1      	ldr	r1, [r4, #8]
 80018ce:	6922      	ldr	r2, [r4, #16]
 80018d0:	f003 0306 	and.w	r3, r3, #6
 80018d4:	2b04      	cmp	r3, #4
 80018d6:	bf01      	itttt	eq
 80018d8:	68e5      	ldreq	r5, [r4, #12]
 80018da:	f8d9 3000 	ldreq.w	r3, [r9]
 80018de:	1aed      	subeq	r5, r5, r3
 80018e0:	ea25 75e5 	biceq.w	r5, r5, r5, asr #31
 80018e4:	bf18      	it	ne
 80018e6:	2500      	movne	r5, #0
 80018e8:	1a8b      	subs	r3, r1, r2
 80018ea:	442b      	add	r3, r5
 80018ec:	4291      	cmp	r1, r2
 80018ee:	bfc8      	it	gt
 80018f0:	461d      	movgt	r5, r3
 80018f2:	f04f 0900 	mov.w	r9, #0
 80018f6:	341a      	adds	r4, #26
 80018f8:	454d      	cmp	r5, r9
 80018fa:	d11a      	bne.n	8001932 <_printf_common+0xd6>
 80018fc:	2000      	movs	r0, #0
 80018fe:	e008      	b.n	8001912 <_printf_common+0xb6>
 8001900:	2301      	movs	r3, #1
 8001902:	4652      	mov	r2, sl
 8001904:	4641      	mov	r1, r8
 8001906:	4638      	mov	r0, r7
 8001908:	47b0      	blx	r6
 800190a:	3001      	adds	r0, #1
 800190c:	d103      	bne.n	8001916 <_printf_common+0xba>
 800190e:	f04f 30ff 	mov.w	r0, #4294967295
 8001912:	e8bd 87f0 	ldmia.w	sp!, {r4, r5, r6, r7, r8, r9, sl, pc}
 8001916:	3501      	adds	r5, #1
 8001918:	e7c2      	b.n	80018a0 <_printf_common+0x44>
 800191a:	18e1      	adds	r1, r4, r3
 800191c:	1c5a      	adds	r2, r3, #1
 800191e:	2030      	movs	r0, #48	@ 0x30
 8001920:	f881 0043 	strb.w	r0, [r1, #67]	@ 0x43
 8001924:	4422      	add	r2, r4
 8001926:	f894 1045 	ldrb.w	r1, [r4, #69]	@ 0x45
 800192a:	f882 1043 	strb.w	r1, [r2, #67]	@ 0x43
 800192e:	3302      	adds	r3, #2
 8001930:	e7c4      	b.n	80018bc <_printf_common+0x60>
 8001932:	2301      	movs	r3, #1
 8001934:	4622      	mov	r2, r4
 8001936:	4641      	mov	r1, r8
 8001938:	4638      	mov	r0, r7
 800193a:	47b0      	blx	r6
 800193c:	3001      	adds	r0, #1
 800193e:	d0e6      	beq.n	800190e <_printf_common+0xb2>
 8001940:	f109 0901 	add.w	r9, r9, #1
 8001944:	e7d8      	b.n	80018f8 <_printf_common+0x9c>

Disassembly of section .text._printf_i:

08001948 <_printf_i>:
 8001948:	e92d 43f0 	stmdb	sp!, {r4, r5, r6, r7, r8, r9, lr}
 800194c:	4698      	mov	r8, r3
 800194e:	7e0b      	ldrb	r3, [r1, #24]
 8001950:	b085      	sub	sp, #20
 8001952:	2b78      	cmp	r3, #120	@ 0x78
 8001954:	4617      	mov	r7, r2
 8001956:	4606      	mov	r6, r0
 8001958:	9a0c      	ldr	r2, [sp, #48]	@ 0x30
 800195a:	460c      	mov	r4, r1
 800195c:	d809      	bhi.n	8001972 <_printf_i+0x2a>
 800195e:	2b62      	cmp	r3, #98	@ 0x62
 8001960:	f101 0143 	add.w	r1, r1, #67	@ 0x43
 8001964:	d808      	bhi.n	8001978 <_printf_i+0x30>
 8001966:	2b00      	cmp	r3, #0
 8001968:	f000 80dc 	beq.w	8001b24 <_printf_i+0x1dc>
 800196c:	2b58      	cmp	r3, #88	@ 0x58
 800196e:	f000 80bd 	beq.w	8001aec <_printf_i+0x1a4>
 8001972:	f104 0542 	add.w	r5, r4, #66	@ 0x42
 8001976:	e039      	b.n	80019ec <_printf_i+0xa4>
 8001978:	f1a3 0063 	sub.w	r0, r3, #99	@ 0x63
 800197c:	2815      	cmp	r0, #21
 800197e:	d8f8      	bhi.n	8001972 <_printf_i+0x2a>
 8001980:	a501      	add	r5, pc, #4	@ (adr r5, 8001988 <_printf_i+0x40>)
 8001982:	f855 f020 	ldr.w	pc, [r5, r0, lsl #2]
 8001986:	bf00      	nop
 8001988:	080019e1 			@ <UNDEFINED> instruction: 080019e1
 800198c:	080019f5 			@ <UNDEFINED> instruction: 080019f5
 8001990:	08001973 			@ <UNDEFINED> instruction: 08001973
 8001994:	08001973 			@ <UNDEFINED> instruction: 08001973
 8001998:	08001973 			@ <UNDEFINED> instruction: 08001973
 800199c:	08001973 			@ <UNDEFINED> instruction: 08001973
 80019a0:	080019f5 			@ <UNDEFINED> instruction: 080019f5
 80019a4:	08001973 			@ <UNDEFINED> instruction: 08001973
 80019a8:	08001973 			@ <UNDEFINED> instruction: 08001973
 80019ac:	08001973 			@ <UNDEFINED> instruction: 08001973
 80019b0:	08001973 			@ <UNDEFINED> instruction: 08001973
 80019b4:	08001b05 			@ <UNDEFINED> instruction: 08001b05
 80019b8:	08001a21 			@ <UNDEFINED> instruction: 08001a21
 80019bc:	08001ab3 			@ <UNDEFINED> instruction: 08001ab3
 80019c0:	08001973 			@ <UNDEFINED> instruction: 08001973
 80019c4:	08001973 			@ <UNDEFINED> instruction: 08001973
 80019c8:	08001b2d 			@ <UNDEFINED> instruction: 08001b2d
 80019cc:	08001973 			@ <UNDEFINED> instruction: 08001973
 80019d0:	08001a21 			@ <UNDEFINED> instruction: 08001a21
 80019d4:	08001973 			@ <UNDEFINED> instruction: 08001973
 80019d8:	08001973 			@ <UNDEFINED> instruction: 08001973
 80019dc:	08001abb 			@ <UNDEFINED> instruction: 08001abb
 80019e0:	6813      	ldr	r3, [r2, #0]
 80019e2:	1d19      	adds	r1, r3, #4
 80019e4:	681b      	ldr	r3, [r3, #0]
 80019e6:	6011      	str	r1, [r2, #0]
 80019e8:	f104 0542 	add.w	r5, r4, #66	@ 0x42
 80019ec:	f884 3042 	strb.w	r3, [r4, #66]	@ 0x42
 80019f0:	2301      	movs	r3, #1
 80019f2:	e0a8      	b.n	8001b46 <_printf_i+0x1fe>
 80019f4:	6813      	ldr	r3, [r2, #0]
 80019f6:	6825      	ldr	r5, [r4, #0]
 80019f8:	1d18      	adds	r0, r3, #4
 80019fa:	6010      	str	r0, [r2, #0]
 80019fc:	0628      	lsls	r0, r5, #24
 80019fe:	d501      	bpl.n	8001a04 <_printf_i+0xbc>
 8001a00:	681b      	ldr	r3, [r3, #0]
 8001a02:	e003      	b.n	8001a0c <_printf_i+0xc4>
 8001a04:	066a      	lsls	r2, r5, #25
 8001a06:	d5fb      	bpl.n	8001a00 <_printf_i+0xb8>
 8001a08:	f9b3 3000 	ldrsh.w	r3, [r3]
 8001a0c:	2b00      	cmp	r3, #0
 8001a0e:	da03      	bge.n	8001a18 <_printf_i+0xd0>
 8001a10:	222d      	movs	r2, #45	@ 0x2d
 8001a12:	425b      	negs	r3, r3
 8001a14:	f884 2043 	strb.w	r2, [r4, #67]	@ 0x43
 8001a18:	f8df c178 	ldr.w	ip, [pc, #376]	@ 8001b94 <_printf_i+0x24c>
 8001a1c:	220a      	movs	r2, #10
 8001a1e:	e013      	b.n	8001a48 <_printf_i+0x100>
 8001a20:	6825      	ldr	r5, [r4, #0]
 8001a22:	6810      	ldr	r0, [r2, #0]
 8001a24:	f015 0f80 	tst.w	r5, #128	@ 0x80
 8001a28:	f850 3b04 	ldr.w	r3, [r0], #4
 8001a2c:	d102      	bne.n	8001a34 <_printf_i+0xec>
 8001a2e:	066d      	lsls	r5, r5, #25
 8001a30:	bf48      	it	mi
 8001a32:	b29b      	uxthmi	r3, r3
 8001a34:	6010      	str	r0, [r2, #0]
 8001a36:	7e22      	ldrb	r2, [r4, #24]
 8001a38:	f8df c158 	ldr.w	ip, [pc, #344]	@ 8001b94 <_printf_i+0x24c>
 8001a3c:	2a6f      	cmp	r2, #111	@ 0x6f
 8001a3e:	d15d      	bne.n	8001afc <_printf_i+0x1b4>
 8001a40:	2208      	movs	r2, #8
 8001a42:	2000      	movs	r0, #0
 8001a44:	f884 0043 	strb.w	r0, [r4, #67]	@ 0x43
 8001a48:	6865      	ldr	r5, [r4, #4]
 8001a4a:	60a5      	str	r5, [r4, #8]
 8001a4c:	2d00      	cmp	r5, #0
 8001a4e:	db05      	blt.n	8001a5c <_printf_i+0x114>
 8001a50:	6820      	ldr	r0, [r4, #0]
 8001a52:	431d      	orrs	r5, r3
 8001a54:	f020 0004 	bic.w	r0, r0, #4
 8001a58:	6020      	str	r0, [r4, #0]
 8001a5a:	d051      	beq.n	8001b00 <_printf_i+0x1b8>
 8001a5c:	460d      	mov	r5, r1
 8001a5e:	fbb3 f0f2 	udiv	r0, r3, r2
 8001a62:	fb02 3e10 	mls	lr, r2, r0, r3
 8001a66:	429a      	cmp	r2, r3
 8001a68:	f81c e00e 	ldrb.w	lr, [ip, lr]
 8001a6c:	f805 ed01 	strb.w	lr, [r5, #-1]!
 8001a70:	4603      	mov	r3, r0
 8001a72:	d9f4      	bls.n	8001a5e <_printf_i+0x116>
 8001a74:	2a08      	cmp	r2, #8
 8001a76:	d10b      	bne.n	8001a90 <_printf_i+0x148>
 8001a78:	6823      	ldr	r3, [r4, #0]
 8001a7a:	07da      	lsls	r2, r3, #31
 8001a7c:	d508      	bpl.n	8001a90 <_printf_i+0x148>
 8001a7e:	6923      	ldr	r3, [r4, #16]
 8001a80:	6862      	ldr	r2, [r4, #4]
 8001a82:	429a      	cmp	r2, r3
 8001a84:	bfde      	ittt	le
 8001a86:	2330      	movle	r3, #48	@ 0x30
 8001a88:	f805 3c01 	strble.w	r3, [r5, #-1]
 8001a8c:	f105 35ff 	addle.w	r5, r5, #4294967295
 8001a90:	1b49      	subs	r1, r1, r5
 8001a92:	6121      	str	r1, [r4, #16]
 8001a94:	f8cd 8000 	str.w	r8, [sp]
 8001a98:	463b      	mov	r3, r7
 8001a9a:	aa03      	add	r2, sp, #12
 8001a9c:	4621      	mov	r1, r4
 8001a9e:	4630      	mov	r0, r6
 8001aa0:	f7ff fedc 	bl	800185c <_printf_common>
 8001aa4:	3001      	adds	r0, #1
 8001aa6:	d153      	bne.n	8001b50 <_printf_i+0x208>
 8001aa8:	f04f 30ff 	mov.w	r0, #4294967295
 8001aac:	b005      	add	sp, #20
 8001aae:	e8bd 83f0 	ldmia.w	sp!, {r4, r5, r6, r7, r8, r9, pc}
 8001ab2:	6823      	ldr	r3, [r4, #0]
 8001ab4:	f043 0320 	orr.w	r3, r3, #32
 8001ab8:	6023      	str	r3, [r4, #0]
 8001aba:	f8df c0dc 	ldr.w	ip, [pc, #220]	@ 8001b98 <_printf_i+0x250>
 8001abe:	2378      	movs	r3, #120	@ 0x78
 8001ac0:	f884 3045 	strb.w	r3, [r4, #69]	@ 0x45
 8001ac4:	6820      	ldr	r0, [r4, #0]
 8001ac6:	6815      	ldr	r5, [r2, #0]
 8001ac8:	f010 0f80 	tst.w	r0, #128	@ 0x80
 8001acc:	f855 3b04 	ldr.w	r3, [r5], #4
 8001ad0:	d103      	bne.n	8001ada <_printf_i+0x192>
 8001ad2:	f010 0f40 	tst.w	r0, #64	@ 0x40
 8001ad6:	bf18      	it	ne
 8001ad8:	b29b      	uxthne	r3, r3
 8001ada:	6015      	str	r5, [r2, #0]
 8001adc:	07c5      	lsls	r5, r0, #31
 8001ade:	bf44      	itt	mi
 8001ae0:	f040 0020 	orrmi.w	r0, r0, #32
 8001ae4:	6020      	strmi	r0, [r4, #0]
 8001ae6:	b123      	cbz	r3, 8001af2 <_printf_i+0x1aa>
 8001ae8:	2210      	movs	r2, #16
 8001aea:	e7aa      	b.n	8001a42 <_printf_i+0xfa>
 8001aec:	f8df c0a4 	ldr.w	ip, [pc, #164]	@ 8001b94 <_printf_i+0x24c>
 8001af0:	e7e6      	b.n	8001ac0 <_printf_i+0x178>
 8001af2:	6822      	ldr	r2, [r4, #0]
 8001af4:	f022 0220 	bic.w	r2, r2, #32
 8001af8:	6022      	str	r2, [r4, #0]
 8001afa:	e7f5      	b.n	8001ae8 <_printf_i+0x1a0>
 8001afc:	220a      	movs	r2, #10
 8001afe:	e7a0      	b.n	8001a42 <_printf_i+0xfa>
 8001b00:	460d      	mov	r5, r1
 8001b02:	e7b7      	b.n	8001a74 <_printf_i+0x12c>
 8001b04:	6813      	ldr	r3, [r2, #0]
 8001b06:	f8d4 c000 	ldr.w	ip, [r4]
 8001b0a:	6960      	ldr	r0, [r4, #20]
 8001b0c:	1d1d      	adds	r5, r3, #4
 8001b0e:	6015      	str	r5, [r2, #0]
 8001b10:	f01c 0f80 	tst.w	ip, #128	@ 0x80
 8001b14:	681b      	ldr	r3, [r3, #0]
 8001b16:	d001      	beq.n	8001b1c <_printf_i+0x1d4>
 8001b18:	6018      	str	r0, [r3, #0]
 8001b1a:	e003      	b.n	8001b24 <_printf_i+0x1dc>
 8001b1c:	f01c 0f40 	tst.w	ip, #64	@ 0x40
 8001b20:	d0fa      	beq.n	8001b18 <_printf_i+0x1d0>
 8001b22:	8018      	strh	r0, [r3, #0]
 8001b24:	2300      	movs	r3, #0
 8001b26:	6123      	str	r3, [r4, #16]
 8001b28:	460d      	mov	r5, r1
 8001b2a:	e7b3      	b.n	8001a94 <_printf_i+0x14c>
 8001b2c:	6813      	ldr	r3, [r2, #0]
 8001b2e:	1d19      	adds	r1, r3, #4
 8001b30:	6011      	str	r1, [r2, #0]
 8001b32:	681d      	ldr	r5, [r3, #0]
 8001b34:	6862      	ldr	r2, [r4, #4]
 8001b36:	2100      	movs	r1, #0
 8001b38:	4628      	mov	r0, r5
 8001b3a:	f7fe fdb1 	bl	80006a0 <memchr>
 8001b3e:	b108      	cbz	r0, 8001b44 <_printf_i+0x1fc>
 8001b40:	1b40      	subs	r0, r0, r5
 8001b42:	6060      	str	r0, [r4, #4]
 8001b44:	6863      	ldr	r3, [r4, #4]
 8001b46:	6123      	str	r3, [r4, #16]
 8001b48:	2300      	movs	r3, #0
 8001b4a:	f884 3043 	strb.w	r3, [r4, #67]	@ 0x43
 8001b4e:	e7a1      	b.n	8001a94 <_printf_i+0x14c>
 8001b50:	6923      	ldr	r3, [r4, #16]
 8001b52:	462a      	mov	r2, r5
 8001b54:	4639      	mov	r1, r7
 8001b56:	4630      	mov	r0, r6
 8001b58:	47c0      	blx	r8
 8001b5a:	3001      	adds	r0, #1
 8001b5c:	d0a4      	beq.n	8001aa8 <_printf_i+0x160>
 8001b5e:	6823      	ldr	r3, [r4, #0]
 8001b60:	079b      	lsls	r3, r3, #30
 8001b62:	d414      	bmi.n	8001b8e <_printf_i+0x246>
 8001b64:	68e0      	ldr	r0, [r4, #12]
 8001b66:	9b03      	ldr	r3, [sp, #12]
 8001b68:	4298      	cmp	r0, r3
 8001b6a:	bfb8      	it	lt
 8001b6c:	4618      	movlt	r0, r3
 8001b6e:	e79d      	b.n	8001aac <_printf_i+0x164>
 8001b70:	2301      	movs	r3, #1
 8001b72:	f104 0219 	add.w	r2, r4, #25
 8001b76:	4639      	mov	r1, r7
 8001b78:	4630      	mov	r0, r6
 8001b7a:	47c0      	blx	r8
 8001b7c:	3001      	adds	r0, #1
 8001b7e:	d093      	beq.n	8001aa8 <_printf_i+0x160>
 8001b80:	3501      	adds	r5, #1
 8001b82:	68e3      	ldr	r3, [r4, #12]
 8001b84:	9903      	ldr	r1, [sp, #12]
 8001b86:	1a5b      	subs	r3, r3, r1
 8001b88:	42ab      	cmp	r3, r5
 8001b8a:	dcf1      	bgt.n	8001b70 <_printf_i+0x228>
 8001b8c:	e7ea      	b.n	8001b64 <_printf_i+0x21c>
 8001b8e:	2500      	movs	r5, #0
 8001b90:	e7f7      	b.n	8001b82 <_printf_i+0x23a>
 8001b92:	bf00      	nop
 8001b94:	08004b8c 			@ <UNDEFINED> instruction: 08004b8c
 8001b98:	08004b9d 			@ <UNDEFINED> instruction: 08004b9d

Disassembly of section .text._printf_r:

08001b9c <_iprintf_r>:
 8001b9c:	b40e      	push	{r1, r2, r3}
 8001b9e:	b503      	push	{r0, r1, lr}
 8001ba0:	ab03      	add	r3, sp, #12
 8001ba2:	6881      	ldr	r1, [r0, #8]
 8001ba4:	f853 2b04 	ldr.w	r2, [r3], #4
 8001ba8:	9301      	str	r3, [sp, #4]
 8001baa:	f001 ff59 	bl	8003a60 <_vfiprintf_r>
 8001bae:	b002      	add	sp, #8
 8001bb0:	f85d eb04 	ldr.w	lr, [sp], #4
 8001bb4:	b003      	add	sp, #12
 8001bb6:	4770      	bx	lr

Disassembly of section .text.printf:

08001bb8 <iprintf>:
 8001bb8:	b40f      	push	{r0, r1, r2, r3}
 8001bba:	b507      	push	{r0, r1, r2, lr}
 8001bbc:	4906      	ldr	r1, [pc, #24]	@ (8001bd8 <iprintf+0x20>)
 8001bbe:	ab04      	add	r3, sp, #16
 8001bc0:	6808      	ldr	r0, [r1, #0]
 8001bc2:	f853 2b04 	ldr.w	r2, [r3], #4
 8001bc6:	6881      	ldr	r1, [r0, #8]
 8001bc8:	9301      	str	r3, [sp, #4]
 8001bca:	f001 ff49 	bl	8003a60 <_vfiprintf_r>
 8001bce:	b003      	add	sp, #12
 8001bd0:	f85d eb04 	ldr.w	lr, [sp], #4
 8001bd4:	b004      	add	sp, #16
 8001bd6:	4770      	bx	lr
 8001bd8:	20000004 			@ <UNDEFINED> instruction: 20000004

Disassembly of section .text.setvbuf:

08001bdc <setvbuf>:
 8001bdc:	e92d 43f7 	stmdb	sp!, {r0, r1, r2, r4, r5, r6, r7, r8, r9, lr}
 8001be0:	461d      	mov	r5, r3
 8001be2:	4b57      	ldr	r3, [pc, #348]	@ (8001d40 <setvbuf+0x164>)
 8001be4:	681f      	ldr	r7, [r3, #0]
 8001be6:	4604      	mov	r4, r0
 8001be8:	460e      	mov	r6, r1
 8001bea:	4690      	mov	r8, r2
 8001bec:	b127      	cbz	r7, 8001bf8 <setvbuf+0x1c>
 8001bee:	6a3b      	ldr	r3, [r7, #32]
 8001bf0:	b913      	cbnz	r3, 8001bf8 <setvbuf+0x1c>
 8001bf2:	4638      	mov	r0, r7
 8001bf4:	f002 fa06 	bl	8004004 <__sinit>
 8001bf8:	f1b8 0f02 	cmp.w	r8, #2
 8001bfc:	d006      	beq.n	8001c0c <setvbuf+0x30>
 8001bfe:	f1b8 0f01 	cmp.w	r8, #1
 8001c02:	f200 809a 	bhi.w	8001d3a <setvbuf+0x15e>
 8001c06:	2d00      	cmp	r5, #0
 8001c08:	f2c0 8097 	blt.w	8001d3a <setvbuf+0x15e>
 8001c0c:	6e63      	ldr	r3, [r4, #100]	@ 0x64
 8001c0e:	07d9      	lsls	r1, r3, #31
 8001c10:	d405      	bmi.n	8001c1e <setvbuf+0x42>
 8001c12:	89a3      	ldrh	r3, [r4, #12]
 8001c14:	059a      	lsls	r2, r3, #22
 8001c16:	d402      	bmi.n	8001c1e <setvbuf+0x42>
 8001c18:	6da0      	ldr	r0, [r4, #88]	@ 0x58
 8001c1a:	f000 f8c8 	bl	8001dae <__retarget_lock_acquire_recursive>
 8001c1e:	4621      	mov	r1, r4
 8001c20:	4638      	mov	r0, r7
 8001c22:	f002 f8bb 	bl	8003d9c <_fflush_r>
 8001c26:	6b61      	ldr	r1, [r4, #52]	@ 0x34
 8001c28:	b141      	cbz	r1, 8001c3c <setvbuf+0x60>
 8001c2a:	f104 0344 	add.w	r3, r4, #68	@ 0x44
 8001c2e:	4299      	cmp	r1, r3
 8001c30:	d002      	beq.n	8001c38 <setvbuf+0x5c>
 8001c32:	4638      	mov	r0, r7
 8001c34:	f000 ff22 	bl	8002a7c <_free_r>
 8001c38:	2300      	movs	r3, #0
 8001c3a:	6363      	str	r3, [r4, #52]	@ 0x34
 8001c3c:	2300      	movs	r3, #0
 8001c3e:	61a3      	str	r3, [r4, #24]
 8001c40:	6063      	str	r3, [r4, #4]
 8001c42:	89a3      	ldrh	r3, [r4, #12]
 8001c44:	061b      	lsls	r3, r3, #24
 8001c46:	d503      	bpl.n	8001c50 <setvbuf+0x74>
 8001c48:	6921      	ldr	r1, [r4, #16]
 8001c4a:	4638      	mov	r0, r7
 8001c4c:	f000 ff16 	bl	8002a7c <_free_r>
 8001c50:	89a3      	ldrh	r3, [r4, #12]
 8001c52:	f423 634a 	bic.w	r3, r3, #3232	@ 0xca0
 8001c56:	f023 0303 	bic.w	r3, r3, #3
 8001c5a:	f1b8 0f02 	cmp.w	r8, #2
 8001c5e:	81a3      	strh	r3, [r4, #12]
 8001c60:	d061      	beq.n	8001d26 <setvbuf+0x14a>
 8001c62:	ab01      	add	r3, sp, #4
 8001c64:	466a      	mov	r2, sp
 8001c66:	4621      	mov	r1, r4
 8001c68:	4638      	mov	r0, r7
 8001c6a:	f002 fb6c 	bl	8004346 <__swhatbuf_r>
 8001c6e:	89a3      	ldrh	r3, [r4, #12]
 8001c70:	4318      	orrs	r0, r3
 8001c72:	81a0      	strh	r0, [r4, #12]
 8001c74:	bb2d      	cbnz	r5, 8001cc2 <setvbuf+0xe6>
 8001c76:	9d00      	ldr	r5, [sp, #0]
 8001c78:	4628      	mov	r0, r5
 8001c7a:	f000 ff4b 	bl	8002b14 <malloc>
 8001c7e:	4606      	mov	r6, r0
 8001c80:	2800      	cmp	r0, #0
 8001c82:	d152      	bne.n	8001d2a <setvbuf+0x14e>
 8001c84:	f8dd 9000 	ldr.w	r9, [sp]
 8001c88:	45a9      	cmp	r9, r5
 8001c8a:	d140      	bne.n	8001d0e <setvbuf+0x132>
 8001c8c:	f04f 35ff 	mov.w	r5, #4294967295
 8001c90:	f9b4 300c 	ldrsh.w	r3, [r4, #12]
 8001c94:	f043 0202 	orr.w	r2, r3, #2
 8001c98:	81a2      	strh	r2, [r4, #12]
 8001c9a:	2200      	movs	r2, #0
 8001c9c:	60a2      	str	r2, [r4, #8]
 8001c9e:	f104 0247 	add.w	r2, r4, #71	@ 0x47
 8001ca2:	6022      	str	r2, [r4, #0]
 8001ca4:	6122      	str	r2, [r4, #16]
 8001ca6:	2201      	movs	r2, #1
 8001ca8:	6162      	str	r2, [r4, #20]
 8001caa:	6e62      	ldr	r2, [r4, #100]	@ 0x64
 8001cac:	07d6      	lsls	r6, r2, #31
 8001cae:	d404      	bmi.n	8001cba <setvbuf+0xde>
 8001cb0:	0598      	lsls	r0, r3, #22
 8001cb2:	d402      	bmi.n	8001cba <setvbuf+0xde>
 8001cb4:	6da0      	ldr	r0, [r4, #88]	@ 0x58
 8001cb6:	f000 f880 	bl	8001dba <__retarget_lock_release_recursive>
 8001cba:	4628      	mov	r0, r5
 8001cbc:	b003      	add	sp, #12
 8001cbe:	e8bd 83f0 	ldmia.w	sp!, {r4, r5, r6, r7, r8, r9, pc}
 8001cc2:	2e00      	cmp	r6, #0
 8001cc4:	d0d8      	beq.n	8001c78 <setvbuf+0x9c>
 8001cc6:	6a3b      	ldr	r3, [r7, #32]
 8001cc8:	b913      	cbnz	r3, 8001cd0 <setvbuf+0xf4>
 8001cca:	4638      	mov	r0, r7
 8001ccc:	f002 f99a 	bl	8004004 <__sinit>
 8001cd0:	f1b8 0f01 	cmp.w	r8, #1
 8001cd4:	bf08      	it	eq
 8001cd6:	89a3      	ldrheq	r3, [r4, #12]
 8001cd8:	6026      	str	r6, [r4, #0]
 8001cda:	bf04      	itt	eq
 8001cdc:	f043 0301 	orreq.w	r3, r3, #1
 8001ce0:	81a3      	strheq	r3, [r4, #12]
 8001ce2:	f9b4 300c 	ldrsh.w	r3, [r4, #12]
 8001ce6:	f013 0208 	ands.w	r2, r3, #8
 8001cea:	e9c4 6504 	strd	r6, r5, [r4, #16]
 8001cee:	d01e      	beq.n	8001d2e <setvbuf+0x152>
 8001cf0:	07d9      	lsls	r1, r3, #31
 8001cf2:	bf41      	itttt	mi
 8001cf4:	2200      	movmi	r2, #0
 8001cf6:	426d      	negmi	r5, r5
 8001cf8:	60a2      	strmi	r2, [r4, #8]
 8001cfa:	61a5      	strmi	r5, [r4, #24]
 8001cfc:	bf58      	it	pl
 8001cfe:	60a5      	strpl	r5, [r4, #8]
 8001d00:	6e62      	ldr	r2, [r4, #100]	@ 0x64
 8001d02:	07d2      	lsls	r2, r2, #31
 8001d04:	d401      	bmi.n	8001d0a <setvbuf+0x12e>
 8001d06:	059b      	lsls	r3, r3, #22
 8001d08:	d513      	bpl.n	8001d32 <setvbuf+0x156>
 8001d0a:	2500      	movs	r5, #0
 8001d0c:	e7d5      	b.n	8001cba <setvbuf+0xde>
 8001d0e:	4648      	mov	r0, r9
 8001d10:	f000 ff00 	bl	8002b14 <malloc>
 8001d14:	4606      	mov	r6, r0
 8001d16:	2800      	cmp	r0, #0
 8001d18:	d0b8      	beq.n	8001c8c <setvbuf+0xb0>
 8001d1a:	89a3      	ldrh	r3, [r4, #12]
 8001d1c:	f043 0380 	orr.w	r3, r3, #128	@ 0x80
 8001d20:	81a3      	strh	r3, [r4, #12]
 8001d22:	464d      	mov	r5, r9
 8001d24:	e7cf      	b.n	8001cc6 <setvbuf+0xea>
 8001d26:	2500      	movs	r5, #0
 8001d28:	e7b2      	b.n	8001c90 <setvbuf+0xb4>
 8001d2a:	46a9      	mov	r9, r5
 8001d2c:	e7f5      	b.n	8001d1a <setvbuf+0x13e>
 8001d2e:	60a2      	str	r2, [r4, #8]
 8001d30:	e7e6      	b.n	8001d00 <setvbuf+0x124>
 8001d32:	6da0      	ldr	r0, [r4, #88]	@ 0x58
 8001d34:	f000 f841 	bl	8001dba <__retarget_lock_release_recursive>
 8001d38:	e7e7      	b.n	8001d0a <setvbuf+0x12e>
 8001d3a:	f04f 35ff 	mov.w	r5, #4294967295
 8001d3e:	e7bc      	b.n	8001cba <setvbuf+0xde>
 8001d40:	20000004 			@ <UNDEFINED> instruction: 20000004

Disassembly of section .text._vsprintf_r:

08001d44 <_vsiprintf_r>:
 8001d44:	b510      	push	{r4, lr}
 8001d46:	b09a      	sub	sp, #104	@ 0x68
 8001d48:	2400      	movs	r4, #0
 8001d4a:	9100      	str	r1, [sp, #0]
 8001d4c:	9104      	str	r1, [sp, #16]
 8001d4e:	f06f 4100 	mvn.w	r1, #2147483648	@ 0x80000000
 8001d52:	9105      	str	r1, [sp, #20]
 8001d54:	9102      	str	r1, [sp, #8]
 8001d56:	4905      	ldr	r1, [pc, #20]	@ (8001d6c <_vsiprintf_r+0x28>)
 8001d58:	9103      	str	r1, [sp, #12]
 8001d5a:	4669      	mov	r1, sp
 8001d5c:	9419      	str	r4, [sp, #100]	@ 0x64
 8001d5e:	f001 fd53 	bl	8003808 <_svfiprintf_r>
 8001d62:	9b00      	ldr	r3, [sp, #0]
 8001d64:	701c      	strb	r4, [r3, #0]
 8001d66:	b01a      	add	sp, #104	@ 0x68
 8001d68:	bd10      	pop	{r4, pc}
 8001d6a:	bf00      	nop
 8001d6c:	ffff0208 			@ <UNDEFINED> instruction: ffff0208

Disassembly of section .text.vsprintf:

08001d70 <vsiprintf>:
 8001d70:	4613      	mov	r3, r2
 8001d72:	460a      	mov	r2, r1
 8001d74:	4601      	mov	r1, r0
 8001d76:	4802      	ldr	r0, [pc, #8]	@ (8001d80 <vsiprintf+0x10>)
 8001d78:	6800      	ldr	r0, [r0, #0]
 8001d7a:	f7ff bfe3 	b.w	8001d44 <_vsiprintf_r>
 8001d7e:	bf00      	nop
 8001d80:	20000004 			@ <UNDEFINED> instruction: 20000004

Disassembly of section .text.__localeconv_l:

08001d84 <__localeconv_l>:
 8001d84:	30f0      	adds	r0, #240	@ 0xf0
 8001d86:	4770      	bx	lr

Disassembly of section .text._localeconv_r:

08001d88 <_localeconv_r>:
 8001d88:	4800      	ldr	r0, [pc, #0]	@ (8001d8c <_localeconv_r+0x4>)
 8001d8a:	4770      	bx	lr
 8001d8c:	20000150 			@ <UNDEFINED> instruction: 20000150

Disassembly of section .text.localeconv:

08001d90 <localeconv>:
 8001d90:	4800      	ldr	r0, [pc, #0]	@ (8001d94 <localeconv+0x4>)
 8001d92:	4770      	bx	lr
 8001d94:	20000150 			@ <UNDEFINED> instruction: 20000150

Disassembly of section .text.__errno:

08001d98 <__errno>:
 8001d98:	4b01      	ldr	r3, [pc, #4]	@ (8001da0 <__errno+0x8>)
 8001d9a:	6818      	ldr	r0, [r3, #0]
 8001d9c:	4770      	bx	lr
 8001d9e:	bf00      	nop
 8001da0:	20000004 			@ <UNDEFINED> instruction: 20000004

Disassembly of section .text.__retarget_lock_init:

08001da4 <__retarget_lock_init>:
 8001da4:	4770      	bx	lr

Disassembly of section .text.__retarget_lock_init_recursive:

08001da6 <__retarget_lock_init_recursive>:
 8001da6:	4770      	bx	lr

Disassembly of section .text.__retarget_lock_close:

08001da8 <__retarget_lock_close>:
 8001da8:	4770      	bx	lr

Disassembly of section .text.__retarget_lock_close_recursive:

08001daa <__retarget_lock_close_recursive>:
 8001daa:	4770      	bx	lr

Disassembly of section .text.__retarget_lock_acquire:

08001dac <__retarget_lock_acquire>:
 8001dac:	4770      	bx	lr

Disassembly of section .text.__retarget_lock_acquire_recursive:

08001dae <__retarget_lock_acquire_recursive>:
 8001dae:	4770      	bx	lr

Disassembly of section .text.__retarget_lock_try_acquire:

08001db0 <__retarget_lock_try_acquire>:
 8001db0:	2001      	movs	r0, #1
 8001db2:	4770      	bx	lr

Disassembly of section .text.__retarget_lock_try_acquire_recursive:

08001db4 <__retarget_lock_try_acquire_recursive>:
 8001db4:	2001      	movs	r0, #1
 8001db6:	4770      	bx	lr

Disassembly of section .text.__retarget_lock_release:

08001db8 <__retarget_lock_release>:
 8001db8:	4770      	bx	lr

Disassembly of section .text.__retarget_lock_release_recursive:

08001dba <__retarget_lock_release_recursive>:
 8001dba:	4770      	bx	lr

Disassembly of section .text.quorem:

08001dbc <quorem>:
 8001dbc:	e92d 4ff7 	stmdb	sp!, {r0, r1, r2, r4, r5, r6, r7, r8, r9, sl, fp, lr}
 8001dc0:	6903      	ldr	r3, [r0, #16]
 8001dc2:	690c      	ldr	r4, [r1, #16]
 8001dc4:	42a3      	cmp	r3, r4
 8001dc6:	4680      	mov	r8, r0
 8001dc8:	db7e      	blt.n	8001ec8 <quorem+0x10c>
 8001dca:	3c01      	subs	r4, #1
 8001dcc:	f101 0714 	add.w	r7, r1, #20
 8001dd0:	00a3      	lsls	r3, r4, #2
 8001dd2:	f100 0514 	add.w	r5, r0, #20
 8001dd6:	9300      	str	r3, [sp, #0]
 8001dd8:	eb05 0384 	add.w	r3, r5, r4, lsl #2
 8001ddc:	9301      	str	r3, [sp, #4]
 8001dde:	f857 3024 	ldr.w	r3, [r7, r4, lsl #2]
 8001de2:	f855 2024 	ldr.w	r2, [r5, r4, lsl #2]
 8001de6:	3301      	adds	r3, #1
 8001de8:	429a      	cmp	r2, r3
 8001dea:	eb07 0984 	add.w	r9, r7, r4, lsl #2
 8001dee:	fbb2 f6f3 	udiv	r6, r2, r3
 8001df2:	d32e      	bcc.n	8001e52 <quorem+0x96>
 8001df4:	f04f 0a00 	mov.w	sl, #0
 8001df8:	46bc      	mov	ip, r7
 8001dfa:	46ae      	mov	lr, r5
 8001dfc:	46d3      	mov	fp, sl
 8001dfe:	f85c 3b04 	ldr.w	r3, [ip], #4
 8001e02:	b298      	uxth	r0, r3
 8001e04:	fb06 a000 	mla	r0, r6, r0, sl
 8001e08:	0c02      	lsrs	r2, r0, #16
 8001e0a:	0c1b      	lsrs	r3, r3, #16
 8001e0c:	fb06 2303 	mla	r3, r6, r3, r2
 8001e10:	f8de 2000 	ldr.w	r2, [lr]
 8001e14:	b280      	uxth	r0, r0
 8001e16:	b292      	uxth	r2, r2
 8001e18:	1a12      	subs	r2, r2, r0
 8001e1a:	445a      	add	r2, fp
 8001e1c:	f8de 0000 	ldr.w	r0, [lr]
 8001e20:	ea4f 4a13 	mov.w	sl, r3, lsr #16
 8001e24:	b29b      	uxth	r3, r3
 8001e26:	ebc3 4322 	rsb	r3, r3, r2, asr #16
 8001e2a:	eb03 4310 	add.w	r3, r3, r0, lsr #16
 8001e2e:	b292      	uxth	r2, r2
 8001e30:	ea42 4203 	orr.w	r2, r2, r3, lsl #16
 8001e34:	45e1      	cmp	r9, ip
 8001e36:	f84e 2b04 	str.w	r2, [lr], #4
 8001e3a:	ea4f 4b23 	mov.w	fp, r3, asr #16
 8001e3e:	d2de      	bcs.n	8001dfe <quorem+0x42>
 8001e40:	9b00      	ldr	r3, [sp, #0]
 8001e42:	58eb      	ldr	r3, [r5, r3]
 8001e44:	b92b      	cbnz	r3, 8001e52 <quorem+0x96>
 8001e46:	9b01      	ldr	r3, [sp, #4]
 8001e48:	1f1a      	subs	r2, r3, #4
 8001e4a:	4295      	cmp	r5, r2
 8001e4c:	d330      	bcc.n	8001eb0 <quorem+0xf4>
 8001e4e:	f8c8 4010 	str.w	r4, [r8, #16]
 8001e52:	4640      	mov	r0, r8
 8001e54:	f001 f9ee 	bl	8003234 <__mcmp>
 8001e58:	2800      	cmp	r0, #0
 8001e5a:	db25      	blt.n	8001ea8 <quorem+0xec>
 8001e5c:	3601      	adds	r6, #1
 8001e5e:	4629      	mov	r1, r5
 8001e60:	2000      	movs	r0, #0
 8001e62:	f857 2b04 	ldr.w	r2, [r7], #4
 8001e66:	f8d1 c000 	ldr.w	ip, [r1]
 8001e6a:	fa1f fe82 	uxth.w	lr, r2
 8001e6e:	fa1f f38c 	uxth.w	r3, ip
 8001e72:	eba3 030e 	sub.w	r3, r3, lr
 8001e76:	4403      	add	r3, r0
 8001e78:	0c12      	lsrs	r2, r2, #16
 8001e7a:	ebc2 4223 	rsb	r2, r2, r3, asr #16
 8001e7e:	eb02 421c 	add.w	r2, r2, ip, lsr #16
 8001e82:	b29b      	uxth	r3, r3
 8001e84:	ea43 4302 	orr.w	r3, r3, r2, lsl #16
 8001e88:	45b9      	cmp	r9, r7
 8001e8a:	f841 3b04 	str.w	r3, [r1], #4
 8001e8e:	ea4f 4022 	mov.w	r0, r2, asr #16
 8001e92:	d2e6      	bcs.n	8001e62 <quorem+0xa6>
 8001e94:	f855 2024 	ldr.w	r2, [r5, r4, lsl #2]
 8001e98:	eb05 0384 	add.w	r3, r5, r4, lsl #2
 8001e9c:	b922      	cbnz	r2, 8001ea8 <quorem+0xec>
 8001e9e:	3b04      	subs	r3, #4
 8001ea0:	429d      	cmp	r5, r3
 8001ea2:	d30b      	bcc.n	8001ebc <quorem+0x100>
 8001ea4:	f8c8 4010 	str.w	r4, [r8, #16]
 8001ea8:	4630      	mov	r0, r6
 8001eaa:	b003      	add	sp, #12
 8001eac:	e8bd 8ff0 	ldmia.w	sp!, {r4, r5, r6, r7, r8, r9, sl, fp, pc}
 8001eb0:	6813      	ldr	r3, [r2, #0]
 8001eb2:	2b00      	cmp	r3, #0
 8001eb4:	d1cb      	bne.n	8001e4e <quorem+0x92>
 8001eb6:	3a04      	subs	r2, #4
 8001eb8:	3c01      	subs	r4, #1
 8001eba:	e7c6      	b.n	8001e4a <quorem+0x8e>
 8001ebc:	681a      	ldr	r2, [r3, #0]
 8001ebe:	2a00      	cmp	r2, #0
 8001ec0:	d1f0      	bne.n	8001ea4 <quorem+0xe8>
 8001ec2:	3b04      	subs	r3, #4
 8001ec4:	3c01      	subs	r4, #1
 8001ec6:	e7eb      	b.n	8001ea0 <quorem+0xe4>
 8001ec8:	2000      	movs	r0, #0
 8001eca:	e7ee      	b.n	8001eaa <quorem+0xee>

Disassembly of section .text._dtoa_r:

08001ed0 <_dtoa_r>:
 8001ed0:	e92d 4ff0 	stmdb	sp!, {r4, r5, r6, r7, r8, r9, sl, fp, lr}
 8001ed4:	b099      	sub	sp, #100	@ 0x64
 8001ed6:	ed8d 0b0e 	vstr	d0, [sp, #56]	@ 0x38
 8001eda:	920c      	str	r2, [sp, #48]	@ 0x30
 8001edc:	69c2      	ldr	r2, [r0, #28]
 8001ede:	9c22      	ldr	r4, [sp, #136]	@ 0x88
 8001ee0:	910a      	str	r1, [sp, #40]	@ 0x28
 8001ee2:	ec57 6b10 	vmov	r6, r7, d0
 8001ee6:	4681      	mov	r9, r0
 8001ee8:	9313      	str	r3, [sp, #76]	@ 0x4c
 8001eea:	b982      	cbnz	r2, 8001f0e <_dtoa_r+0x3e>
 8001eec:	2010      	movs	r0, #16
 8001eee:	f000 fe11 	bl	8002b14 <malloc>
 8001ef2:	4602      	mov	r2, r0
 8001ef4:	f8c9 001c 	str.w	r0, [r9, #28]
 8001ef8:	b920      	cbnz	r0, 8001f04 <_dtoa_r+0x34>
 8001efa:	4ba9      	ldr	r3, [pc, #676]	@ (80021a0 <_dtoa_r+0x2d0>)
 8001efc:	21ef      	movs	r1, #239	@ 0xef
 8001efe:	48a9      	ldr	r0, [pc, #676]	@ (80021a4 <_dtoa_r+0x2d4>)
 8001f00:	f002 fc90 	bl	8004824 <__assert_func>
 8001f04:	2300      	movs	r3, #0
 8001f06:	e9c0 3301 	strd	r3, r3, [r0, #4]
 8001f0a:	6003      	str	r3, [r0, #0]
 8001f0c:	60c3      	str	r3, [r0, #12]
 8001f0e:	6811      	ldr	r1, [r2, #0]
 8001f10:	b159      	cbz	r1, 8001f2a <_dtoa_r+0x5a>
 8001f12:	6852      	ldr	r2, [r2, #4]
 8001f14:	604a      	str	r2, [r1, #4]
 8001f16:	2301      	movs	r3, #1
 8001f18:	4093      	lsls	r3, r2
 8001f1a:	608b      	str	r3, [r1, #8]
 8001f1c:	4648      	mov	r0, r9
 8001f1e:	f000 fef1 	bl	8002d04 <_Bfree>
 8001f22:	f8d9 301c 	ldr.w	r3, [r9, #28]
 8001f26:	2200      	movs	r2, #0
 8001f28:	601a      	str	r2, [r3, #0]
 8001f2a:	f1b7 0800 	subs.w	r8, r7, #0
 8001f2e:	bfb5      	itete	lt
 8001f30:	2301      	movlt	r3, #1
 8001f32:	2300      	movge	r3, #0
 8001f34:	6023      	strlt	r3, [r4, #0]
 8001f36:	6023      	strge	r3, [r4, #0]
 8001f38:	4b9b      	ldr	r3, [pc, #620]	@ (80021a8 <_dtoa_r+0x2d8>)
 8001f3a:	bfbc      	itt	lt
 8001f3c:	f028 4800 	biclt.w	r8, r8, #2147483648	@ 0x80000000
 8001f40:	f8cd 803c 	strlt.w	r8, [sp, #60]	@ 0x3c
 8001f44:	ea33 0308 	bics.w	r3, r3, r8
 8001f48:	d11a      	bne.n	8001f80 <_dtoa_r+0xb0>
 8001f4a:	9a13      	ldr	r2, [sp, #76]	@ 0x4c
 8001f4c:	f3c8 0813 	ubfx	r8, r8, #0, #20
 8001f50:	f242 730f 	movw	r3, #9999	@ 0x270f
 8001f54:	ea58 0806 	orrs.w	r8, r8, r6
 8001f58:	6013      	str	r3, [r2, #0]
 8001f5a:	f000 8561 	beq.w	8002a20 <_dtoa_r+0xb50>
 8001f5e:	9b23      	ldr	r3, [sp, #140]	@ 0x8c
 8001f60:	b953      	cbnz	r3, 8001f78 <_dtoa_r+0xa8>
 8001f62:	4b92      	ldr	r3, [pc, #584]	@ (80021ac <_dtoa_r+0x2dc>)
 8001f64:	e021      	b.n	8001faa <_dtoa_r+0xda>
 8001f66:	4b92      	ldr	r3, [pc, #584]	@ (80021b0 <_dtoa_r+0x2e0>)
 8001f68:	9300      	str	r3, [sp, #0]
 8001f6a:	3308      	adds	r3, #8
 8001f6c:	9a23      	ldr	r2, [sp, #140]	@ 0x8c
 8001f6e:	6013      	str	r3, [r2, #0]
 8001f70:	9800      	ldr	r0, [sp, #0]
 8001f72:	b019      	add	sp, #100	@ 0x64
 8001f74:	e8bd 8ff0 	ldmia.w	sp!, {r4, r5, r6, r7, r8, r9, sl, fp, pc}
 8001f78:	4b8c      	ldr	r3, [pc, #560]	@ (80021ac <_dtoa_r+0x2dc>)
 8001f7a:	9300      	str	r3, [sp, #0]
 8001f7c:	3303      	adds	r3, #3
 8001f7e:	e7f5      	b.n	8001f6c <_dtoa_r+0x9c>
 8001f80:	ed9d 7b0e 	vldr	d7, [sp, #56]	@ 0x38
 8001f84:	2200      	movs	r2, #0
 8001f86:	ec51 0b17 	vmov	r0, r1, d7
 8001f8a:	2300      	movs	r3, #0
 8001f8c:	ed8d 7b06 	vstr	d7, [sp, #24]
 8001f90:	f7ff f936 	bl	8001200 <__aeabi_dcmpeq>
 8001f94:	4682      	mov	sl, r0
 8001f96:	b150      	cbz	r0, 8001fae <_dtoa_r+0xde>
 8001f98:	9a13      	ldr	r2, [sp, #76]	@ 0x4c
 8001f9a:	2301      	movs	r3, #1
 8001f9c:	6013      	str	r3, [r2, #0]
 8001f9e:	9b23      	ldr	r3, [sp, #140]	@ 0x8c
 8001fa0:	b113      	cbz	r3, 8001fa8 <_dtoa_r+0xd8>
 8001fa2:	9a23      	ldr	r2, [sp, #140]	@ 0x8c
 8001fa4:	4b83      	ldr	r3, [pc, #524]	@ (80021b4 <_dtoa_r+0x2e4>)
 8001fa6:	6013      	str	r3, [r2, #0]
 8001fa8:	4b83      	ldr	r3, [pc, #524]	@ (80021b8 <_dtoa_r+0x2e8>)
 8001faa:	9300      	str	r3, [sp, #0]
 8001fac:	e7e0      	b.n	8001f70 <_dtoa_r+0xa0>
 8001fae:	ed9d 0b06 	vldr	d0, [sp, #24]
 8001fb2:	aa16      	add	r2, sp, #88	@ 0x58
 8001fb4:	a917      	add	r1, sp, #92	@ 0x5c
 8001fb6:	4648      	mov	r0, r9
 8001fb8:	f001 fa60 	bl	800347c <__d2b>
 8001fbc:	ea5f 5418 	movs.w	r4, r8, lsr #20
 8001fc0:	9d16      	ldr	r5, [sp, #88]	@ 0x58
 8001fc2:	9001      	str	r0, [sp, #4]
 8001fc4:	d079      	beq.n	80020ba <_dtoa_r+0x1ea>
 8001fc6:	9b07      	ldr	r3, [sp, #28]
 8001fc8:	f8cd a050 	str.w	sl, [sp, #80]	@ 0x50
 8001fcc:	f3c3 0313 	ubfx	r3, r3, #0, #20
 8001fd0:	e9dd 0106 	ldrd	r0, r1, [sp, #24]
 8001fd4:	f043 537f 	orr.w	r3, r3, #1069547520	@ 0x3fc00000
 8001fd8:	f443 1340 	orr.w	r3, r3, #3145728	@ 0x300000
 8001fdc:	f2a4 34ff 	subw	r4, r4, #1023	@ 0x3ff
 8001fe0:	4619      	mov	r1, r3
 8001fe2:	2200      	movs	r2, #0
 8001fe4:	4b75      	ldr	r3, [pc, #468]	@ (80021bc <_dtoa_r+0x2ec>)
 8001fe6:	f7fe fceb 	bl	80009c0 <__aeabi_dsub>
 8001fea:	a367      	add	r3, pc, #412	@ (adr r3, 8002188 <_dtoa_r+0x2b8>)
 8001fec:	e9d3 2300 	ldrd	r2, r3, [r3]
 8001ff0:	f7fe fe9e 	bl	8000d30 <__aeabi_dmul>
 8001ff4:	a366      	add	r3, pc, #408	@ (adr r3, 8002190 <_dtoa_r+0x2c0>)
 8001ff6:	e9d3 2300 	ldrd	r2, r3, [r3]
 8001ffa:	f7fe fce3 	bl	80009c4 <__adddf3>
 8001ffe:	4606      	mov	r6, r0
 8002000:	4620      	mov	r0, r4
 8002002:	460f      	mov	r7, r1
 8002004:	f7fe fe2a 	bl	8000c5c <__aeabi_i2d>
 8002008:	a363      	add	r3, pc, #396	@ (adr r3, 8002198 <_dtoa_r+0x2c8>)
 800200a:	e9d3 2300 	ldrd	r2, r3, [r3]
 800200e:	f7fe fe8f 	bl	8000d30 <__aeabi_dmul>
 8002012:	4602      	mov	r2, r0
 8002014:	460b      	mov	r3, r1
 8002016:	4630      	mov	r0, r6
 8002018:	4639      	mov	r1, r7
 800201a:	f7fe fcd3 	bl	80009c4 <__adddf3>
 800201e:	4606      	mov	r6, r0
 8002020:	460f      	mov	r7, r1
 8002022:	f7ff f935 	bl	8001290 <__aeabi_d2iz>
 8002026:	2200      	movs	r2, #0
 8002028:	4680      	mov	r8, r0
 800202a:	2300      	movs	r3, #0
 800202c:	4630      	mov	r0, r6
 800202e:	4639      	mov	r1, r7
 8002030:	f7ff f8f0 	bl	8001214 <__aeabi_dcmplt>
 8002034:	b148      	cbz	r0, 800204a <_dtoa_r+0x17a>
 8002036:	4640      	mov	r0, r8
 8002038:	f7fe fe10 	bl	8000c5c <__aeabi_i2d>
 800203c:	4632      	mov	r2, r6
 800203e:	463b      	mov	r3, r7
 8002040:	f7ff f8de 	bl	8001200 <__aeabi_dcmpeq>
 8002044:	b908      	cbnz	r0, 800204a <_dtoa_r+0x17a>
 8002046:	f108 38ff 	add.w	r8, r8, #4294967295
 800204a:	f1b8 0f16 	cmp.w	r8, #22
 800204e:	d851      	bhi.n	80020f4 <_dtoa_r+0x224>
 8002050:	4b5b      	ldr	r3, [pc, #364]	@ (80021c0 <_dtoa_r+0x2f0>)
 8002052:	eb03 03c8 	add.w	r3, r3, r8, lsl #3
 8002056:	e9d3 2300 	ldrd	r2, r3, [r3]
 800205a:	e9dd 0106 	ldrd	r0, r1, [sp, #24]
 800205e:	f7ff f8d9 	bl	8001214 <__aeabi_dcmplt>
 8002062:	2800      	cmp	r0, #0
 8002064:	d048      	beq.n	80020f8 <_dtoa_r+0x228>
 8002066:	f108 38ff 	add.w	r8, r8, #4294967295
 800206a:	2300      	movs	r3, #0
 800206c:	9312      	str	r3, [sp, #72]	@ 0x48
 800206e:	1b2d      	subs	r5, r5, r4
 8002070:	1e6b      	subs	r3, r5, #1
 8002072:	9308      	str	r3, [sp, #32]
 8002074:	bf43      	ittte	mi
 8002076:	2300      	movmi	r3, #0
 8002078:	f1c5 0701 	rsbmi	r7, r5, #1
 800207c:	9308      	strmi	r3, [sp, #32]
 800207e:	2700      	movpl	r7, #0
 8002080:	f1b8 0f00 	cmp.w	r8, #0
 8002084:	db3a      	blt.n	80020fc <_dtoa_r+0x22c>
 8002086:	9b08      	ldr	r3, [sp, #32]
 8002088:	f8cd 8034 	str.w	r8, [sp, #52]	@ 0x34
 800208c:	4443      	add	r3, r8
 800208e:	9308      	str	r3, [sp, #32]
 8002090:	2300      	movs	r3, #0
 8002092:	9309      	str	r3, [sp, #36]	@ 0x24
 8002094:	9b0a      	ldr	r3, [sp, #40]	@ 0x28
 8002096:	2b09      	cmp	r3, #9
 8002098:	d862      	bhi.n	8002160 <_dtoa_r+0x290>
 800209a:	2b05      	cmp	r3, #5
 800209c:	bfc4      	itt	gt
 800209e:	3b04      	subgt	r3, #4
 80020a0:	930a      	strgt	r3, [sp, #40]	@ 0x28
 80020a2:	9b0a      	ldr	r3, [sp, #40]	@ 0x28
 80020a4:	f1a3 0302 	sub.w	r3, r3, #2
 80020a8:	bfcc      	ite	gt
 80020aa:	2400      	movgt	r4, #0
 80020ac:	2401      	movle	r4, #1
 80020ae:	2b03      	cmp	r3, #3
 80020b0:	d862      	bhi.n	8002178 <_dtoa_r+0x2a8>
 80020b2:	e8df f003 	tbb	[pc, r3]
 80020b6:	2b365351 			@ <UNDEFINED> instruction: 2b365351
 80020ba:	9c17      	ldr	r4, [sp, #92]	@ 0x5c
 80020bc:	442c      	add	r4, r5
 80020be:	f204 4332 	addw	r3, r4, #1074	@ 0x432
 80020c2:	2b20      	cmp	r3, #32
 80020c4:	bfc1      	itttt	gt
 80020c6:	f1c3 0340 	rsbgt	r3, r3, #64	@ 0x40
 80020ca:	fa08 f803 	lslgt.w	r8, r8, r3
 80020ce:	f204 4312 	addwgt	r3, r4, #1042	@ 0x412
 80020d2:	fa26 f303 	lsrgt.w	r3, r6, r3
 80020d6:	bfd6      	itet	le
 80020d8:	f1c3 0320 	rsble	r3, r3, #32
 80020dc:	ea48 0003 	orrgt.w	r0, r8, r3
 80020e0:	fa06 f003 	lslle.w	r0, r6, r3
 80020e4:	f7fe fdaa 	bl	8000c3c <__aeabi_ui2d>
 80020e8:	2201      	movs	r2, #1
 80020ea:	f1a1 73f8 	sub.w	r3, r1, #32505856	@ 0x1f00000
 80020ee:	3c01      	subs	r4, #1
 80020f0:	9214      	str	r2, [sp, #80]	@ 0x50
 80020f2:	e775      	b.n	8001fe0 <_dtoa_r+0x110>
 80020f4:	2301      	movs	r3, #1
 80020f6:	e7b9      	b.n	800206c <_dtoa_r+0x19c>
 80020f8:	9012      	str	r0, [sp, #72]	@ 0x48
 80020fa:	e7b8      	b.n	800206e <_dtoa_r+0x19e>
 80020fc:	f1c8 0300 	rsb	r3, r8, #0
 8002100:	9309      	str	r3, [sp, #36]	@ 0x24
 8002102:	2300      	movs	r3, #0
 8002104:	eba7 0708 	sub.w	r7, r7, r8
 8002108:	930d      	str	r3, [sp, #52]	@ 0x34
 800210a:	e7c3      	b.n	8002094 <_dtoa_r+0x1c4>
 800210c:	2301      	movs	r3, #1
 800210e:	930b      	str	r3, [sp, #44]	@ 0x2c
 8002110:	9b0c      	ldr	r3, [sp, #48]	@ 0x30
 8002112:	4443      	add	r3, r8
 8002114:	9305      	str	r3, [sp, #20]
 8002116:	3301      	adds	r3, #1
 8002118:	2b01      	cmp	r3, #1
 800211a:	9304      	str	r3, [sp, #16]
 800211c:	bfb8      	it	lt
 800211e:	2301      	movlt	r3, #1
 8002120:	e006      	b.n	8002130 <_dtoa_r+0x260>
 8002122:	2301      	movs	r3, #1
 8002124:	930b      	str	r3, [sp, #44]	@ 0x2c
 8002126:	9b0c      	ldr	r3, [sp, #48]	@ 0x30
 8002128:	2b00      	cmp	r3, #0
 800212a:	dd28      	ble.n	800217e <_dtoa_r+0x2ae>
 800212c:	e9cd 3304 	strd	r3, r3, [sp, #16]
 8002130:	f8d9 001c 	ldr.w	r0, [r9, #28]
 8002134:	2100      	movs	r1, #0
 8002136:	2204      	movs	r2, #4
 8002138:	f102 0514 	add.w	r5, r2, #20
 800213c:	429d      	cmp	r5, r3
 800213e:	d943      	bls.n	80021c8 <_dtoa_r+0x2f8>
 8002140:	6041      	str	r1, [r0, #4]
 8002142:	4648      	mov	r0, r9
 8002144:	f000 fda0 	bl	8002c88 <_Balloc>
 8002148:	9000      	str	r0, [sp, #0]
 800214a:	2800      	cmp	r0, #0
 800214c:	d13f      	bne.n	80021ce <_dtoa_r+0x2fe>
 800214e:	4b1d      	ldr	r3, [pc, #116]	@ (80021c4 <_dtoa_r+0x2f4>)
 8002150:	4602      	mov	r2, r0
 8002152:	f240 11af 	movw	r1, #431	@ 0x1af
 8002156:	e6d2      	b.n	8001efe <_dtoa_r+0x2e>
 8002158:	2300      	movs	r3, #0
 800215a:	e7e3      	b.n	8002124 <_dtoa_r+0x254>
 800215c:	2300      	movs	r3, #0
 800215e:	e7d6      	b.n	800210e <_dtoa_r+0x23e>
 8002160:	2401      	movs	r4, #1
 8002162:	2300      	movs	r3, #0
 8002164:	e9cd 340a 	strd	r3, r4, [sp, #40]	@ 0x28
 8002168:	f04f 33ff 	mov.w	r3, #4294967295
 800216c:	2200      	movs	r2, #0
 800216e:	e9cd 3304 	strd	r3, r3, [sp, #16]
 8002172:	920c      	str	r2, [sp, #48]	@ 0x30
 8002174:	2312      	movs	r3, #18
 8002176:	e7db      	b.n	8002130 <_dtoa_r+0x260>
 8002178:	2301      	movs	r3, #1
 800217a:	930b      	str	r3, [sp, #44]	@ 0x2c
 800217c:	e7f4      	b.n	8002168 <_dtoa_r+0x298>
 800217e:	2301      	movs	r3, #1
 8002180:	e9cd 3304 	strd	r3, r3, [sp, #16]
 8002184:	930c      	str	r3, [sp, #48]	@ 0x30
 8002186:	e7d3      	b.n	8002130 <_dtoa_r+0x260>
 8002188:	636f4361 			@ <UNDEFINED> instruction: 636f4361
 800218c:	3fd287a7 			@ <UNDEFINED> instruction: 3fd287a7
 8002190:	8b60c8b3 			@ <UNDEFINED> instruction: 8b60c8b3
 8002194:	3fc68a28 			@ <UNDEFINED> instruction: 3fc68a28
 8002198:	509f79fb 			@ <UNDEFINED> instruction: 509f79fb
 800219c:	3fd34413 			@ <UNDEFINED> instruction: 3fd34413
 80021a0:	08004bbb 			@ <UNDEFINED> instruction: 08004bbb
 80021a4:	08004bd2 			@ <UNDEFINED> instruction: 08004bd2
 80021a8:	7ff00000 			@ <UNDEFINED> instruction: 7ff00000
 80021ac:	08004bb7 			@ <UNDEFINED> instruction: 08004bb7
 80021b0:	08004bae 			@ <UNDEFINED> instruction: 08004bae
 80021b4:	08004b8b 			@ <UNDEFINED> instruction: 08004b8b
 80021b8:	08004b8a 			@ <UNDEFINED> instruction: 08004b8a
 80021bc:	3ff80000 			@ <UNDEFINED> instruction: 3ff80000
 80021c0:	08004d50 			@ <UNDEFINED> instruction: 08004d50
 80021c4:	08004c2b 			@ <UNDEFINED> instruction: 08004c2b
 80021c8:	3101      	adds	r1, #1
 80021ca:	0052      	lsls	r2, r2, #1
 80021cc:	e7b4      	b.n	8002138 <_dtoa_r+0x268>
 80021ce:	f8d9 301c 	ldr.w	r3, [r9, #28]
 80021d2:	9a00      	ldr	r2, [sp, #0]
 80021d4:	601a      	str	r2, [r3, #0]
 80021d6:	9b04      	ldr	r3, [sp, #16]
 80021d8:	2b0e      	cmp	r3, #14
 80021da:	d875      	bhi.n	80022c8 <_dtoa_r+0x3f8>
 80021dc:	2c00      	cmp	r4, #0
 80021de:	d073      	beq.n	80022c8 <_dtoa_r+0x3f8>
 80021e0:	f1b8 0f00 	cmp.w	r8, #0
 80021e4:	f340 80c4 	ble.w	8002370 <_dtoa_r+0x4a0>
 80021e8:	4b9f      	ldr	r3, [pc, #636]	@ (8002468 <_dtoa_r+0x598>)
 80021ea:	f008 020f 	and.w	r2, r8, #15
 80021ee:	eb03 03c2 	add.w	r3, r3, r2, lsl #3
 80021f2:	f418 7f80 	tst.w	r8, #256	@ 0x100
 80021f6:	e9d3 ab00 	ldrd	sl, fp, [r3]
 80021fa:	ea4f 1528 	mov.w	r5, r8, asr #4
 80021fe:	f000 80a3 	beq.w	8002348 <_dtoa_r+0x478>
 8002202:	4b9a      	ldr	r3, [pc, #616]	@ (800246c <_dtoa_r+0x59c>)
 8002204:	e9dd 0106 	ldrd	r0, r1, [sp, #24]
 8002208:	e9d3 2308 	ldrd	r2, r3, [r3, #32]
 800220c:	f7fe feba 	bl	8000f84 <__aeabi_ddiv>
 8002210:	e9cd 0102 	strd	r0, r1, [sp, #8]
 8002214:	f005 050f 	and.w	r5, r5, #15
 8002218:	2403      	movs	r4, #3
 800221a:	4e94      	ldr	r6, [pc, #592]	@ (800246c <_dtoa_r+0x59c>)
 800221c:	2d00      	cmp	r5, #0
 800221e:	f040 8099 	bne.w	8002354 <_dtoa_r+0x484>
 8002222:	4652      	mov	r2, sl
 8002224:	465b      	mov	r3, fp
 8002226:	e9dd 0102 	ldrd	r0, r1, [sp, #8]
 800222a:	f7fe feab 	bl	8000f84 <__aeabi_ddiv>
 800222e:	4682      	mov	sl, r0
 8002230:	468b      	mov	fp, r1
 8002232:	9b12      	ldr	r3, [sp, #72]	@ 0x48
 8002234:	2b00      	cmp	r3, #0
 8002236:	f000 80c3 	beq.w	80023c0 <_dtoa_r+0x4f0>
 800223a:	4b8d      	ldr	r3, [pc, #564]	@ (8002470 <_dtoa_r+0x5a0>)
 800223c:	2200      	movs	r2, #0
 800223e:	4650      	mov	r0, sl
 8002240:	4659      	mov	r1, fp
 8002242:	f7fe ffe7 	bl	8001214 <__aeabi_dcmplt>
 8002246:	2800      	cmp	r0, #0
 8002248:	f000 80ba 	beq.w	80023c0 <_dtoa_r+0x4f0>
 800224c:	9b04      	ldr	r3, [sp, #16]
 800224e:	2b00      	cmp	r3, #0
 8002250:	f000 80b6 	beq.w	80023c0 <_dtoa_r+0x4f0>
 8002254:	9b05      	ldr	r3, [sp, #20]
 8002256:	2b00      	cmp	r3, #0
 8002258:	dd36      	ble.n	80022c8 <_dtoa_r+0x3f8>
 800225a:	f108 33ff 	add.w	r3, r8, #4294967295
 800225e:	9302      	str	r3, [sp, #8]
 8002260:	4650      	mov	r0, sl
 8002262:	4659      	mov	r1, fp
 8002264:	4b83      	ldr	r3, [pc, #524]	@ (8002474 <_dtoa_r+0x5a4>)
 8002266:	2200      	movs	r2, #0
 8002268:	f7fe fd62 	bl	8000d30 <__aeabi_dmul>
 800226c:	9e05      	ldr	r6, [sp, #20]
 800226e:	4682      	mov	sl, r0
 8002270:	468b      	mov	fp, r1
 8002272:	3401      	adds	r4, #1
 8002274:	4620      	mov	r0, r4
 8002276:	f7fe fcf1 	bl	8000c5c <__aeabi_i2d>
 800227a:	4652      	mov	r2, sl
 800227c:	465b      	mov	r3, fp
 800227e:	f7fe fd57 	bl	8000d30 <__aeabi_dmul>
 8002282:	4b7d      	ldr	r3, [pc, #500]	@ (8002478 <_dtoa_r+0x5a8>)
 8002284:	2200      	movs	r2, #0
 8002286:	f7fe fb9d 	bl	80009c4 <__adddf3>
 800228a:	4604      	mov	r4, r0
 800228c:	f1a1 7550 	sub.w	r5, r1, #54525952	@ 0x3400000
 8002290:	e9cd 4510 	strd	r4, r5, [sp, #64]	@ 0x40
 8002294:	2e00      	cmp	r6, #0
 8002296:	f040 8097 	bne.w	80023c8 <_dtoa_r+0x4f8>
 800229a:	4b78      	ldr	r3, [pc, #480]	@ (800247c <_dtoa_r+0x5ac>)
 800229c:	2200      	movs	r2, #0
 800229e:	4650      	mov	r0, sl
 80022a0:	4659      	mov	r1, fp
 80022a2:	f7fe fb8d 	bl	80009c0 <__aeabi_dsub>
 80022a6:	4622      	mov	r2, r4
 80022a8:	462b      	mov	r3, r5
 80022aa:	4682      	mov	sl, r0
 80022ac:	468b      	mov	fp, r1
 80022ae:	f7fe ffcf 	bl	8001250 <__aeabi_dcmpgt>
 80022b2:	2800      	cmp	r0, #0
 80022b4:	f040 82bd 	bne.w	8002832 <_dtoa_r+0x962>
 80022b8:	4622      	mov	r2, r4
 80022ba:	f105 4300 	add.w	r3, r5, #2147483648	@ 0x80000000
 80022be:	4650      	mov	r0, sl
 80022c0:	4659      	mov	r1, fp
 80022c2:	f7fe ffa7 	bl	8001214 <__aeabi_dcmplt>
 80022c6:	bb20      	cbnz	r0, 8002312 <_dtoa_r+0x442>
 80022c8:	9b17      	ldr	r3, [sp, #92]	@ 0x5c
 80022ca:	2b00      	cmp	r3, #0
 80022cc:	f2c0 818d 	blt.w	80025ea <_dtoa_r+0x71a>
 80022d0:	f1b8 0f0e 	cmp.w	r8, #14
 80022d4:	f300 8189 	bgt.w	80025ea <_dtoa_r+0x71a>
 80022d8:	4b63      	ldr	r3, [pc, #396]	@ (8002468 <_dtoa_r+0x598>)
 80022da:	eb03 03c8 	add.w	r3, r3, r8, lsl #3
 80022de:	e9d3 ab00 	ldrd	sl, fp, [r3]
 80022e2:	9b0c      	ldr	r3, [sp, #48]	@ 0x30
 80022e4:	2b00      	cmp	r3, #0
 80022e6:	f280 811b 	bge.w	8002520 <_dtoa_r+0x650>
 80022ea:	9b04      	ldr	r3, [sp, #16]
 80022ec:	2b00      	cmp	r3, #0
 80022ee:	f300 8117 	bgt.w	8002520 <_dtoa_r+0x650>
 80022f2:	d10e      	bne.n	8002312 <_dtoa_r+0x442>
 80022f4:	4b61      	ldr	r3, [pc, #388]	@ (800247c <_dtoa_r+0x5ac>)
 80022f6:	2200      	movs	r2, #0
 80022f8:	4650      	mov	r0, sl
 80022fa:	4659      	mov	r1, fp
 80022fc:	f7fe fd18 	bl	8000d30 <__aeabi_dmul>
 8002300:	4602      	mov	r2, r0
 8002302:	460b      	mov	r3, r1
 8002304:	e9dd 0106 	ldrd	r0, r1, [sp, #24]
 8002308:	f7fe ff8e 	bl	8001228 <__aeabi_dcmple>
 800230c:	2800      	cmp	r0, #0
 800230e:	f000 8293 	beq.w	8002838 <_dtoa_r+0x968>
 8002312:	2500      	movs	r5, #0
 8002314:	462c      	mov	r4, r5
 8002316:	9b0c      	ldr	r3, [sp, #48]	@ 0x30
 8002318:	9e00      	ldr	r6, [sp, #0]
 800231a:	43db      	mvns	r3, r3
 800231c:	9302      	str	r3, [sp, #8]
 800231e:	4627      	mov	r7, r4
 8002320:	2400      	movs	r4, #0
 8002322:	4629      	mov	r1, r5
 8002324:	4648      	mov	r0, r9
 8002326:	f000 fced 	bl	8002d04 <_Bfree>
 800232a:	2f00      	cmp	r7, #0
 800232c:	f000 80ee 	beq.w	800250c <_dtoa_r+0x63c>
 8002330:	b12c      	cbz	r4, 800233e <_dtoa_r+0x46e>
 8002332:	42bc      	cmp	r4, r7
 8002334:	d003      	beq.n	800233e <_dtoa_r+0x46e>
 8002336:	4621      	mov	r1, r4
 8002338:	4648      	mov	r0, r9
 800233a:	f000 fce3 	bl	8002d04 <_Bfree>
 800233e:	4639      	mov	r1, r7
 8002340:	4648      	mov	r0, r9
 8002342:	f000 fcdf 	bl	8002d04 <_Bfree>
 8002346:	e0e1      	b.n	800250c <_dtoa_r+0x63c>
 8002348:	ed9d 7b06 	vldr	d7, [sp, #24]
 800234c:	2402      	movs	r4, #2
 800234e:	ed8d 7b02 	vstr	d7, [sp, #8]
 8002352:	e762      	b.n	800221a <_dtoa_r+0x34a>
 8002354:	07e9      	lsls	r1, r5, #31
 8002356:	d508      	bpl.n	800236a <_dtoa_r+0x49a>
 8002358:	4650      	mov	r0, sl
 800235a:	4659      	mov	r1, fp
 800235c:	e9d6 2300 	ldrd	r2, r3, [r6]
 8002360:	f7fe fce6 	bl	8000d30 <__aeabi_dmul>
 8002364:	3401      	adds	r4, #1
 8002366:	4682      	mov	sl, r0
 8002368:	468b      	mov	fp, r1
 800236a:	106d      	asrs	r5, r5, #1
 800236c:	3608      	adds	r6, #8
 800236e:	e755      	b.n	800221c <_dtoa_r+0x34c>
 8002370:	d022      	beq.n	80023b8 <_dtoa_r+0x4e8>
 8002372:	f1c8 0500 	rsb	r5, r8, #0
 8002376:	4b3c      	ldr	r3, [pc, #240]	@ (8002468 <_dtoa_r+0x598>)
 8002378:	4e3c      	ldr	r6, [pc, #240]	@ (800246c <_dtoa_r+0x59c>)
 800237a:	f005 020f 	and.w	r2, r5, #15
 800237e:	eb03 03c2 	add.w	r3, r3, r2, lsl #3
 8002382:	e9d3 2300 	ldrd	r2, r3, [r3]
 8002386:	e9dd 0106 	ldrd	r0, r1, [sp, #24]
 800238a:	f7fe fcd1 	bl	8000d30 <__aeabi_dmul>
 800238e:	112d      	asrs	r5, r5, #4
 8002390:	4682      	mov	sl, r0
 8002392:	468b      	mov	fp, r1
 8002394:	2402      	movs	r4, #2
 8002396:	2d00      	cmp	r5, #0
 8002398:	f43f af4b 	beq.w	8002232 <_dtoa_r+0x362>
 800239c:	07ea      	lsls	r2, r5, #31
 800239e:	d508      	bpl.n	80023b2 <_dtoa_r+0x4e2>
 80023a0:	4650      	mov	r0, sl
 80023a2:	4659      	mov	r1, fp
 80023a4:	e9d6 2300 	ldrd	r2, r3, [r6]
 80023a8:	f7fe fcc2 	bl	8000d30 <__aeabi_dmul>
 80023ac:	3401      	adds	r4, #1
 80023ae:	4682      	mov	sl, r0
 80023b0:	468b      	mov	fp, r1
 80023b2:	106d      	asrs	r5, r5, #1
 80023b4:	3608      	adds	r6, #8
 80023b6:	e7ee      	b.n	8002396 <_dtoa_r+0x4c6>
 80023b8:	e9dd ab06 	ldrd	sl, fp, [sp, #24]
 80023bc:	2402      	movs	r4, #2
 80023be:	e738      	b.n	8002232 <_dtoa_r+0x362>
 80023c0:	9e04      	ldr	r6, [sp, #16]
 80023c2:	f8cd 8008 	str.w	r8, [sp, #8]
 80023c6:	e755      	b.n	8002274 <_dtoa_r+0x3a4>
 80023c8:	4b27      	ldr	r3, [pc, #156]	@ (8002468 <_dtoa_r+0x598>)
 80023ca:	eb03 03c6 	add.w	r3, r3, r6, lsl #3
 80023ce:	e953 0102 	ldrd	r0, r1, [r3, #-8]
 80023d2:	9b0b      	ldr	r3, [sp, #44]	@ 0x2c
 80023d4:	2b00      	cmp	r3, #0
 80023d6:	d055      	beq.n	8002484 <_dtoa_r+0x5b4>
 80023d8:	4602      	mov	r2, r0
 80023da:	460b      	mov	r3, r1
 80023dc:	2000      	movs	r0, #0
 80023de:	4928      	ldr	r1, [pc, #160]	@ (8002480 <_dtoa_r+0x5b0>)
 80023e0:	f7fe fdd0 	bl	8000f84 <__aeabi_ddiv>
 80023e4:	e9dd 2310 	ldrd	r2, r3, [sp, #64]	@ 0x40
 80023e8:	f7fe faea 	bl	80009c0 <__aeabi_dsub>
 80023ec:	9b00      	ldr	r3, [sp, #0]
 80023ee:	e9cd 0110 	strd	r0, r1, [sp, #64]	@ 0x40
 80023f2:	199d      	adds	r5, r3, r6
 80023f4:	461e      	mov	r6, r3
 80023f6:	4659      	mov	r1, fp
 80023f8:	4650      	mov	r0, sl
 80023fa:	f7fe ff49 	bl	8001290 <__aeabi_d2iz>
 80023fe:	f100 0430 	add.w	r4, r0, #48	@ 0x30
 8002402:	f7fe fc2b 	bl	8000c5c <__aeabi_i2d>
 8002406:	4602      	mov	r2, r0
 8002408:	460b      	mov	r3, r1
 800240a:	4650      	mov	r0, sl
 800240c:	4659      	mov	r1, fp
 800240e:	f7fe fad7 	bl	80009c0 <__aeabi_dsub>
 8002412:	e9dd 2310 	ldrd	r2, r3, [sp, #64]	@ 0x40
 8002416:	f806 4b01 	strb.w	r4, [r6], #1
 800241a:	4682      	mov	sl, r0
 800241c:	468b      	mov	fp, r1
 800241e:	f7fe fef9 	bl	8001214 <__aeabi_dcmplt>
 8002422:	2800      	cmp	r0, #0
 8002424:	d172      	bne.n	800250c <_dtoa_r+0x63c>
 8002426:	4652      	mov	r2, sl
 8002428:	465b      	mov	r3, fp
 800242a:	4911      	ldr	r1, [pc, #68]	@ (8002470 <_dtoa_r+0x5a0>)
 800242c:	2000      	movs	r0, #0
 800242e:	f7fe fac7 	bl	80009c0 <__aeabi_dsub>
 8002432:	e9dd 2310 	ldrd	r2, r3, [sp, #64]	@ 0x40
 8002436:	f7fe feed 	bl	8001214 <__aeabi_dcmplt>
 800243a:	2800      	cmp	r0, #0
 800243c:	f040 80b6 	bne.w	80025ac <_dtoa_r+0x6dc>
 8002440:	42ae      	cmp	r6, r5
 8002442:	f43f af41 	beq.w	80022c8 <_dtoa_r+0x3f8>
 8002446:	e9dd 0110 	ldrd	r0, r1, [sp, #64]	@ 0x40
 800244a:	4b0a      	ldr	r3, [pc, #40]	@ (8002474 <_dtoa_r+0x5a4>)
 800244c:	2200      	movs	r2, #0
 800244e:	f7fe fc6f 	bl	8000d30 <__aeabi_dmul>
 8002452:	4b08      	ldr	r3, [pc, #32]	@ (8002474 <_dtoa_r+0x5a4>)
 8002454:	e9cd 0110 	strd	r0, r1, [sp, #64]	@ 0x40
 8002458:	2200      	movs	r2, #0
 800245a:	4650      	mov	r0, sl
 800245c:	4659      	mov	r1, fp
 800245e:	f7fe fc67 	bl	8000d30 <__aeabi_dmul>
 8002462:	4682      	mov	sl, r0
 8002464:	468b      	mov	fp, r1
 8002466:	e7c6      	b.n	80023f6 <_dtoa_r+0x526>
 8002468:	08004d50 			@ <UNDEFINED> instruction: 08004d50
 800246c:	08004d28 			@ <UNDEFINED> instruction: 08004d28
 8002470:	3ff00000 			@ <UNDEFINED> instruction: 3ff00000
 8002474:	40240000 			@ <UNDEFINED> instruction: 40240000
 8002478:	401c0000 			@ <UNDEFINED> instruction: 401c0000
 800247c:	40140000 			@ <UNDEFINED> instruction: 40140000
 8002480:	3fe00000 			@ <UNDEFINED> instruction: 3fe00000
 8002484:	e9dd 2310 	ldrd	r2, r3, [sp, #64]	@ 0x40
 8002488:	f7fe fc52 	bl	8000d30 <__aeabi_dmul>
 800248c:	9b00      	ldr	r3, [sp, #0]
 800248e:	9c00      	ldr	r4, [sp, #0]
 8002490:	e9cd 0110 	strd	r0, r1, [sp, #64]	@ 0x40
 8002494:	4433      	add	r3, r6
 8002496:	9315      	str	r3, [sp, #84]	@ 0x54
 8002498:	4659      	mov	r1, fp
 800249a:	4650      	mov	r0, sl
 800249c:	f7fe fef8 	bl	8001290 <__aeabi_d2iz>
 80024a0:	f100 0530 	add.w	r5, r0, #48	@ 0x30
 80024a4:	f7fe fbda 	bl	8000c5c <__aeabi_i2d>
 80024a8:	460b      	mov	r3, r1
 80024aa:	4602      	mov	r2, r0
 80024ac:	4659      	mov	r1, fp
 80024ae:	4650      	mov	r0, sl
 80024b0:	f7fe fa86 	bl	80009c0 <__aeabi_dsub>
 80024b4:	f804 5b01 	strb.w	r5, [r4], #1
 80024b8:	9b15      	ldr	r3, [sp, #84]	@ 0x54
 80024ba:	429c      	cmp	r4, r3
 80024bc:	4682      	mov	sl, r0
 80024be:	468b      	mov	fp, r1
 80024c0:	d127      	bne.n	8002512 <_dtoa_r+0x642>
 80024c2:	9b00      	ldr	r3, [sp, #0]
 80024c4:	2200      	movs	r2, #0
 80024c6:	e9dd 0110 	ldrd	r0, r1, [sp, #64]	@ 0x40
 80024ca:	441e      	add	r6, r3
 80024cc:	4baa      	ldr	r3, [pc, #680]	@ (8002778 <_dtoa_r+0x8a8>)
 80024ce:	f7fe fa79 	bl	80009c4 <__adddf3>
 80024d2:	4602      	mov	r2, r0
 80024d4:	460b      	mov	r3, r1
 80024d6:	4650      	mov	r0, sl
 80024d8:	4659      	mov	r1, fp
 80024da:	f7fe feb9 	bl	8001250 <__aeabi_dcmpgt>
 80024de:	2800      	cmp	r0, #0
 80024e0:	d164      	bne.n	80025ac <_dtoa_r+0x6dc>
 80024e2:	e9dd 2310 	ldrd	r2, r3, [sp, #64]	@ 0x40
 80024e6:	49a4      	ldr	r1, [pc, #656]	@ (8002778 <_dtoa_r+0x8a8>)
 80024e8:	2000      	movs	r0, #0
 80024ea:	f7fe fa69 	bl	80009c0 <__aeabi_dsub>
 80024ee:	4602      	mov	r2, r0
 80024f0:	460b      	mov	r3, r1
 80024f2:	4650      	mov	r0, sl
 80024f4:	4659      	mov	r1, fp
 80024f6:	f7fe fe8d 	bl	8001214 <__aeabi_dcmplt>
 80024fa:	2800      	cmp	r0, #0
 80024fc:	f43f aee4 	beq.w	80022c8 <_dtoa_r+0x3f8>
 8002500:	4633      	mov	r3, r6
 8002502:	f816 2d01 	ldrb.w	r2, [r6, #-1]!
 8002506:	2a30      	cmp	r2, #48	@ 0x30
 8002508:	d0fa      	beq.n	8002500 <_dtoa_r+0x630>
 800250a:	461e      	mov	r6, r3
 800250c:	f8dd 8008 	ldr.w	r8, [sp, #8]
 8002510:	e03a      	b.n	8002588 <_dtoa_r+0x6b8>
 8002512:	4b9a      	ldr	r3, [pc, #616]	@ (800277c <_dtoa_r+0x8ac>)
 8002514:	2200      	movs	r2, #0
 8002516:	f7fe fc0b 	bl	8000d30 <__aeabi_dmul>
 800251a:	4682      	mov	sl, r0
 800251c:	468b      	mov	fp, r1
 800251e:	e7bb      	b.n	8002498 <_dtoa_r+0x5c8>
 8002520:	9e00      	ldr	r6, [sp, #0]
 8002522:	4652      	mov	r2, sl
 8002524:	465b      	mov	r3, fp
 8002526:	e9dd 0106 	ldrd	r0, r1, [sp, #24]
 800252a:	f7fe fd2b 	bl	8000f84 <__aeabi_ddiv>
 800252e:	f7fe feaf 	bl	8001290 <__aeabi_d2iz>
 8002532:	4607      	mov	r7, r0
 8002534:	f7fe fb92 	bl	8000c5c <__aeabi_i2d>
 8002538:	4652      	mov	r2, sl
 800253a:	465b      	mov	r3, fp
 800253c:	f7fe fbf8 	bl	8000d30 <__aeabi_dmul>
 8002540:	4602      	mov	r2, r0
 8002542:	460b      	mov	r3, r1
 8002544:	e9dd 0106 	ldrd	r0, r1, [sp, #24]
 8002548:	f7fe fa3a 	bl	80009c0 <__aeabi_dsub>
 800254c:	f107 0c30 	add.w	ip, r7, #48	@ 0x30
 8002550:	9c00      	ldr	r4, [sp, #0]
 8002552:	f806 cb01 	strb.w	ip, [r6], #1
 8002556:	eba6 0c04 	sub.w	ip, r6, r4
 800255a:	9c04      	ldr	r4, [sp, #16]
 800255c:	4564      	cmp	r4, ip
 800255e:	4602      	mov	r2, r0
 8002560:	460b      	mov	r3, r1
 8002562:	d133      	bne.n	80025cc <_dtoa_r+0x6fc>
 8002564:	f7fe fa2e 	bl	80009c4 <__adddf3>
 8002568:	4652      	mov	r2, sl
 800256a:	465b      	mov	r3, fp
 800256c:	4604      	mov	r4, r0
 800256e:	460d      	mov	r5, r1
 8002570:	f7fe fe6e 	bl	8001250 <__aeabi_dcmpgt>
 8002574:	b9c0      	cbnz	r0, 80025a8 <_dtoa_r+0x6d8>
 8002576:	4652      	mov	r2, sl
 8002578:	465b      	mov	r3, fp
 800257a:	4620      	mov	r0, r4
 800257c:	4629      	mov	r1, r5
 800257e:	f7fe fe3f 	bl	8001200 <__aeabi_dcmpeq>
 8002582:	b108      	cbz	r0, 8002588 <_dtoa_r+0x6b8>
 8002584:	07fb      	lsls	r3, r7, #31
 8002586:	d40f      	bmi.n	80025a8 <_dtoa_r+0x6d8>
 8002588:	9901      	ldr	r1, [sp, #4]
 800258a:	4648      	mov	r0, r9
 800258c:	f000 fbba 	bl	8002d04 <_Bfree>
 8002590:	2300      	movs	r3, #0
 8002592:	9a13      	ldr	r2, [sp, #76]	@ 0x4c
 8002594:	7033      	strb	r3, [r6, #0]
 8002596:	f108 0301 	add.w	r3, r8, #1
 800259a:	6013      	str	r3, [r2, #0]
 800259c:	9b23      	ldr	r3, [sp, #140]	@ 0x8c
 800259e:	2b00      	cmp	r3, #0
 80025a0:	f43f ace6 	beq.w	8001f70 <_dtoa_r+0xa0>
 80025a4:	601e      	str	r6, [r3, #0]
 80025a6:	e4e3      	b.n	8001f70 <_dtoa_r+0xa0>
 80025a8:	f8cd 8008 	str.w	r8, [sp, #8]
 80025ac:	4633      	mov	r3, r6
 80025ae:	461e      	mov	r6, r3
 80025b0:	f813 2d01 	ldrb.w	r2, [r3, #-1]!
 80025b4:	2a39      	cmp	r2, #57	@ 0x39
 80025b6:	d106      	bne.n	80025c6 <_dtoa_r+0x6f6>
 80025b8:	9a00      	ldr	r2, [sp, #0]
 80025ba:	429a      	cmp	r2, r3
 80025bc:	d1f7      	bne.n	80025ae <_dtoa_r+0x6de>
 80025be:	9a02      	ldr	r2, [sp, #8]
 80025c0:	3201      	adds	r2, #1
 80025c2:	9202      	str	r2, [sp, #8]
 80025c4:	2230      	movs	r2, #48	@ 0x30
 80025c6:	3201      	adds	r2, #1
 80025c8:	701a      	strb	r2, [r3, #0]
 80025ca:	e79f      	b.n	800250c <_dtoa_r+0x63c>
 80025cc:	4b6b      	ldr	r3, [pc, #428]	@ (800277c <_dtoa_r+0x8ac>)
 80025ce:	2200      	movs	r2, #0
 80025d0:	f7fe fbae 	bl	8000d30 <__aeabi_dmul>
 80025d4:	4602      	mov	r2, r0
 80025d6:	460b      	mov	r3, r1
 80025d8:	e9cd 2306 	strd	r2, r3, [sp, #24]
 80025dc:	2200      	movs	r2, #0
 80025de:	2300      	movs	r3, #0
 80025e0:	f7fe fe0e 	bl	8001200 <__aeabi_dcmpeq>
 80025e4:	2800      	cmp	r0, #0
 80025e6:	d09c      	beq.n	8002522 <_dtoa_r+0x652>
 80025e8:	e7ce      	b.n	8002588 <_dtoa_r+0x6b8>
 80025ea:	9a0b      	ldr	r2, [sp, #44]	@ 0x2c
 80025ec:	2a00      	cmp	r2, #0
 80025ee:	f000 80df 	beq.w	80027b0 <_dtoa_r+0x8e0>
 80025f2:	9a0a      	ldr	r2, [sp, #40]	@ 0x28
 80025f4:	2a01      	cmp	r2, #1
 80025f6:	f300 80c3 	bgt.w	8002780 <_dtoa_r+0x8b0>
 80025fa:	9a14      	ldr	r2, [sp, #80]	@ 0x50
 80025fc:	2a00      	cmp	r2, #0
 80025fe:	f000 80b7 	beq.w	8002770 <_dtoa_r+0x8a0>
 8002602:	f203 4333 	addw	r3, r3, #1075	@ 0x433
 8002606:	9d09      	ldr	r5, [sp, #36]	@ 0x24
 8002608:	463e      	mov	r6, r7
 800260a:	9a08      	ldr	r2, [sp, #32]
 800260c:	2101      	movs	r1, #1
 800260e:	441a      	add	r2, r3
 8002610:	4648      	mov	r0, r9
 8002612:	441f      	add	r7, r3
 8002614:	9208      	str	r2, [sp, #32]
 8002616:	f000 fc73 	bl	8002f00 <__i2b>
 800261a:	4604      	mov	r4, r0
 800261c:	b156      	cbz	r6, 8002634 <_dtoa_r+0x764>
 800261e:	9b08      	ldr	r3, [sp, #32]
 8002620:	2b00      	cmp	r3, #0
 8002622:	dd07      	ble.n	8002634 <_dtoa_r+0x764>
 8002624:	42b3      	cmp	r3, r6
 8002626:	9a08      	ldr	r2, [sp, #32]
 8002628:	bfa8      	it	ge
 800262a:	4633      	movge	r3, r6
 800262c:	1aff      	subs	r7, r7, r3
 800262e:	1af6      	subs	r6, r6, r3
 8002630:	1ad3      	subs	r3, r2, r3
 8002632:	9308      	str	r3, [sp, #32]
 8002634:	9b09      	ldr	r3, [sp, #36]	@ 0x24
 8002636:	b30b      	cbz	r3, 800267c <_dtoa_r+0x7ac>
 8002638:	9b0b      	ldr	r3, [sp, #44]	@ 0x2c
 800263a:	2b00      	cmp	r3, #0
 800263c:	f000 80bf 	beq.w	80027be <_dtoa_r+0x8ee>
 8002640:	2d00      	cmp	r5, #0
 8002642:	f000 80b9 	beq.w	80027b8 <_dtoa_r+0x8e8>
 8002646:	4621      	mov	r1, r4
 8002648:	462a      	mov	r2, r5
 800264a:	4648      	mov	r0, r9
 800264c:	f000 fd24 	bl	8003098 <__pow5mult>
 8002650:	9a01      	ldr	r2, [sp, #4]
 8002652:	4601      	mov	r1, r0
 8002654:	4604      	mov	r4, r0
 8002656:	4648      	mov	r0, r9
 8002658:	f000 fc68 	bl	8002f2c <__multiply>
 800265c:	9901      	ldr	r1, [sp, #4]
 800265e:	4682      	mov	sl, r0
 8002660:	4648      	mov	r0, r9
 8002662:	f000 fb4f 	bl	8002d04 <_Bfree>
 8002666:	9b09      	ldr	r3, [sp, #36]	@ 0x24
 8002668:	1b5b      	subs	r3, r3, r5
 800266a:	9309      	str	r3, [sp, #36]	@ 0x24
 800266c:	f000 80aa 	beq.w	80027c4 <_dtoa_r+0x8f4>
 8002670:	9a09      	ldr	r2, [sp, #36]	@ 0x24
 8002672:	4651      	mov	r1, sl
 8002674:	4648      	mov	r0, r9
 8002676:	f000 fd0f 	bl	8003098 <__pow5mult>
 800267a:	9001      	str	r0, [sp, #4]
 800267c:	2101      	movs	r1, #1
 800267e:	4648      	mov	r0, r9
 8002680:	f000 fc3e 	bl	8002f00 <__i2b>
 8002684:	9b0d      	ldr	r3, [sp, #52]	@ 0x34
 8002686:	4605      	mov	r5, r0
 8002688:	2b00      	cmp	r3, #0
 800268a:	f000 81d0 	beq.w	8002a2e <_dtoa_r+0xb5e>
 800268e:	461a      	mov	r2, r3
 8002690:	4601      	mov	r1, r0
 8002692:	4648      	mov	r0, r9
 8002694:	f000 fd00 	bl	8003098 <__pow5mult>
 8002698:	9b0a      	ldr	r3, [sp, #40]	@ 0x28
 800269a:	2b01      	cmp	r3, #1
 800269c:	4605      	mov	r5, r0
 800269e:	f300 8099 	bgt.w	80027d4 <_dtoa_r+0x904>
 80026a2:	9b0e      	ldr	r3, [sp, #56]	@ 0x38
 80026a4:	2b00      	cmp	r3, #0
 80026a6:	f040 8090 	bne.w	80027ca <_dtoa_r+0x8fa>
 80026aa:	9b0f      	ldr	r3, [sp, #60]	@ 0x3c
 80026ac:	f3c3 0313 	ubfx	r3, r3, #0, #20
 80026b0:	2b00      	cmp	r3, #0
 80026b2:	f040 808a 	bne.w	80027ca <_dtoa_r+0x8fa>
 80026b6:	9b0f      	ldr	r3, [sp, #60]	@ 0x3c
 80026b8:	f023 4300 	bic.w	r3, r3, #2147483648	@ 0x80000000
 80026bc:	0d1b      	lsrs	r3, r3, #20
 80026be:	051b      	lsls	r3, r3, #20
 80026c0:	2b00      	cmp	r3, #0
 80026c2:	f000 8085 	beq.w	80027d0 <_dtoa_r+0x900>
 80026c6:	9b08      	ldr	r3, [sp, #32]
 80026c8:	3301      	adds	r3, #1
 80026ca:	3701      	adds	r7, #1
 80026cc:	9308      	str	r3, [sp, #32]
 80026ce:	f04f 0a01 	mov.w	sl, #1
 80026d2:	9b0d      	ldr	r3, [sp, #52]	@ 0x34
 80026d4:	2b00      	cmp	r3, #0
 80026d6:	f000 81b0 	beq.w	8002a3a <_dtoa_r+0xb6a>
 80026da:	692b      	ldr	r3, [r5, #16]
 80026dc:	eb05 0383 	add.w	r3, r5, r3, lsl #2
 80026e0:	6918      	ldr	r0, [r3, #16]
 80026e2:	f000 fbc1 	bl	8002e68 <__hi0bits>
 80026e6:	f1c0 0020 	rsb	r0, r0, #32
 80026ea:	9b08      	ldr	r3, [sp, #32]
 80026ec:	4418      	add	r0, r3
 80026ee:	f010 001f 	ands.w	r0, r0, #31
 80026f2:	d076      	beq.n	80027e2 <_dtoa_r+0x912>
 80026f4:	281b      	cmp	r0, #27
 80026f6:	dc70      	bgt.n	80027da <_dtoa_r+0x90a>
 80026f8:	f1c0 001c 	rsb	r0, r0, #28
 80026fc:	4407      	add	r7, r0
 80026fe:	4406      	add	r6, r0
 8002700:	4403      	add	r3, r0
 8002702:	9308      	str	r3, [sp, #32]
 8002704:	2f00      	cmp	r7, #0
 8002706:	dd05      	ble.n	8002714 <_dtoa_r+0x844>
 8002708:	9901      	ldr	r1, [sp, #4]
 800270a:	463a      	mov	r2, r7
 800270c:	4648      	mov	r0, r9
 800270e:	f000 fd1f 	bl	8003150 <__lshift>
 8002712:	9001      	str	r0, [sp, #4]
 8002714:	9b08      	ldr	r3, [sp, #32]
 8002716:	2b00      	cmp	r3, #0
 8002718:	dd05      	ble.n	8002726 <_dtoa_r+0x856>
 800271a:	4629      	mov	r1, r5
 800271c:	461a      	mov	r2, r3
 800271e:	4648      	mov	r0, r9
 8002720:	f000 fd16 	bl	8003150 <__lshift>
 8002724:	4605      	mov	r5, r0
 8002726:	9b12      	ldr	r3, [sp, #72]	@ 0x48
 8002728:	2b00      	cmp	r3, #0
 800272a:	d05f      	beq.n	80027ec <_dtoa_r+0x91c>
 800272c:	9801      	ldr	r0, [sp, #4]
 800272e:	4629      	mov	r1, r5
 8002730:	f000 fd80 	bl	8003234 <__mcmp>
 8002734:	2800      	cmp	r0, #0
 8002736:	da59      	bge.n	80027ec <_dtoa_r+0x91c>
 8002738:	f108 33ff 	add.w	r3, r8, #4294967295
 800273c:	9302      	str	r3, [sp, #8]
 800273e:	9901      	ldr	r1, [sp, #4]
 8002740:	2300      	movs	r3, #0
 8002742:	220a      	movs	r2, #10
 8002744:	4648      	mov	r0, r9
 8002746:	f000 faff 	bl	8002d48 <__multadd>
 800274a:	9b0b      	ldr	r3, [sp, #44]	@ 0x2c
 800274c:	9001      	str	r0, [sp, #4]
 800274e:	2b00      	cmp	r3, #0
 8002750:	f000 8175 	beq.w	8002a3e <_dtoa_r+0xb6e>
 8002754:	2300      	movs	r3, #0
 8002756:	4621      	mov	r1, r4
 8002758:	220a      	movs	r2, #10
 800275a:	4648      	mov	r0, r9
 800275c:	f000 faf4 	bl	8002d48 <__multadd>
 8002760:	9b05      	ldr	r3, [sp, #20]
 8002762:	2b00      	cmp	r3, #0
 8002764:	4604      	mov	r4, r0
 8002766:	dc71      	bgt.n	800284c <_dtoa_r+0x97c>
 8002768:	9b0a      	ldr	r3, [sp, #40]	@ 0x28
 800276a:	2b02      	cmp	r3, #2
 800276c:	dc47      	bgt.n	80027fe <_dtoa_r+0x92e>
 800276e:	e06d      	b.n	800284c <_dtoa_r+0x97c>
 8002770:	9b16      	ldr	r3, [sp, #88]	@ 0x58
 8002772:	f1c3 0336 	rsb	r3, r3, #54	@ 0x36
 8002776:	e746      	b.n	8002606 <_dtoa_r+0x736>
 8002778:	3fe00000 			@ <UNDEFINED> instruction: 3fe00000
 800277c:	40240000 			@ <UNDEFINED> instruction: 40240000
 8002780:	9b04      	ldr	r3, [sp, #16]
 8002782:	1e5d      	subs	r5, r3, #1
 8002784:	9b09      	ldr	r3, [sp, #36]	@ 0x24
 8002786:	42ab      	cmp	r3, r5
 8002788:	db08      	blt.n	800279c <_dtoa_r+0x8cc>
 800278a:	1b5d      	subs	r5, r3, r5
 800278c:	9b04      	ldr	r3, [sp, #16]
 800278e:	2b00      	cmp	r3, #0
 8002790:	f6bf af3a 	bge.w	8002608 <_dtoa_r+0x738>
 8002794:	9b04      	ldr	r3, [sp, #16]
 8002796:	1afe      	subs	r6, r7, r3
 8002798:	2300      	movs	r3, #0
 800279a:	e736      	b.n	800260a <_dtoa_r+0x73a>
 800279c:	9b09      	ldr	r3, [sp, #36]	@ 0x24
 800279e:	9a0d      	ldr	r2, [sp, #52]	@ 0x34
 80027a0:	9509      	str	r5, [sp, #36]	@ 0x24
 80027a2:	1aeb      	subs	r3, r5, r3
 80027a4:	441a      	add	r2, r3
 80027a6:	920d      	str	r2, [sp, #52]	@ 0x34
 80027a8:	9b04      	ldr	r3, [sp, #16]
 80027aa:	463e      	mov	r6, r7
 80027ac:	2500      	movs	r5, #0
 80027ae:	e72c      	b.n	800260a <_dtoa_r+0x73a>
 80027b0:	9d09      	ldr	r5, [sp, #36]	@ 0x24
 80027b2:	9c0b      	ldr	r4, [sp, #44]	@ 0x2c
 80027b4:	463e      	mov	r6, r7
 80027b6:	e731      	b.n	800261c <_dtoa_r+0x74c>
 80027b8:	f8dd a004 	ldr.w	sl, [sp, #4]
 80027bc:	e758      	b.n	8002670 <_dtoa_r+0x7a0>
 80027be:	9a09      	ldr	r2, [sp, #36]	@ 0x24
 80027c0:	9901      	ldr	r1, [sp, #4]
 80027c2:	e757      	b.n	8002674 <_dtoa_r+0x7a4>
 80027c4:	f8cd a004 	str.w	sl, [sp, #4]
 80027c8:	e758      	b.n	800267c <_dtoa_r+0x7ac>
 80027ca:	f04f 0a00 	mov.w	sl, #0
 80027ce:	e780      	b.n	80026d2 <_dtoa_r+0x802>
 80027d0:	469a      	mov	sl, r3
 80027d2:	e77e      	b.n	80026d2 <_dtoa_r+0x802>
 80027d4:	f04f 0a00 	mov.w	sl, #0
 80027d8:	e77f      	b.n	80026da <_dtoa_r+0x80a>
 80027da:	281c      	cmp	r0, #28
 80027dc:	d092      	beq.n	8002704 <_dtoa_r+0x834>
 80027de:	f1c0 0020 	rsb	r0, r0, #32
 80027e2:	301c      	adds	r0, #28
 80027e4:	9b08      	ldr	r3, [sp, #32]
 80027e6:	4407      	add	r7, r0
 80027e8:	4406      	add	r6, r0
 80027ea:	e789      	b.n	8002700 <_dtoa_r+0x830>
 80027ec:	9b04      	ldr	r3, [sp, #16]
 80027ee:	f8cd 8008 	str.w	r8, [sp, #8]
 80027f2:	2b00      	cmp	r3, #0
 80027f4:	dc24      	bgt.n	8002840 <_dtoa_r+0x970>
 80027f6:	9305      	str	r3, [sp, #20]
 80027f8:	9b0a      	ldr	r3, [sp, #40]	@ 0x28
 80027fa:	2b02      	cmp	r3, #2
 80027fc:	dd22      	ble.n	8002844 <_dtoa_r+0x974>
 80027fe:	9b05      	ldr	r3, [sp, #20]
 8002800:	2b00      	cmp	r3, #0
 8002802:	f47f ad88 	bne.w	8002316 <_dtoa_r+0x446>
 8002806:	4629      	mov	r1, r5
 8002808:	9b05      	ldr	r3, [sp, #20]
 800280a:	2205      	movs	r2, #5
 800280c:	4648      	mov	r0, r9
 800280e:	f000 fa9b 	bl	8002d48 <__multadd>
 8002812:	4601      	mov	r1, r0
 8002814:	4605      	mov	r5, r0
 8002816:	9801      	ldr	r0, [sp, #4]
 8002818:	f000 fd0c 	bl	8003234 <__mcmp>
 800281c:	2800      	cmp	r0, #0
 800281e:	f77f ad7a 	ble.w	8002316 <_dtoa_r+0x446>
 8002822:	9e00      	ldr	r6, [sp, #0]
 8002824:	2331      	movs	r3, #49	@ 0x31
 8002826:	f806 3b01 	strb.w	r3, [r6], #1
 800282a:	9b02      	ldr	r3, [sp, #8]
 800282c:	3301      	adds	r3, #1
 800282e:	9302      	str	r3, [sp, #8]
 8002830:	e575      	b.n	800231e <_dtoa_r+0x44e>
 8002832:	4635      	mov	r5, r6
 8002834:	462c      	mov	r4, r5
 8002836:	e7f4      	b.n	8002822 <_dtoa_r+0x952>
 8002838:	9d04      	ldr	r5, [sp, #16]
 800283a:	f8cd 8008 	str.w	r8, [sp, #8]
 800283e:	e7f9      	b.n	8002834 <_dtoa_r+0x964>
 8002840:	9b04      	ldr	r3, [sp, #16]
 8002842:	9305      	str	r3, [sp, #20]
 8002844:	9b0b      	ldr	r3, [sp, #44]	@ 0x2c
 8002846:	2b00      	cmp	r3, #0
 8002848:	f000 80fd 	beq.w	8002a46 <_dtoa_r+0xb76>
 800284c:	2e00      	cmp	r6, #0
 800284e:	dd05      	ble.n	800285c <_dtoa_r+0x98c>
 8002850:	4621      	mov	r1, r4
 8002852:	4632      	mov	r2, r6
 8002854:	4648      	mov	r0, r9
 8002856:	f000 fc7b 	bl	8003150 <__lshift>
 800285a:	4604      	mov	r4, r0
 800285c:	f1ba 0f00 	cmp.w	sl, #0
 8002860:	d058      	beq.n	8002914 <_dtoa_r+0xa44>
 8002862:	6861      	ldr	r1, [r4, #4]
 8002864:	4648      	mov	r0, r9
 8002866:	f000 fa0f 	bl	8002c88 <_Balloc>
 800286a:	4606      	mov	r6, r0
 800286c:	b928      	cbnz	r0, 800287a <_dtoa_r+0x9aa>
 800286e:	4b81      	ldr	r3, [pc, #516]	@ (8002a74 <_dtoa_r+0xba4>)
 8002870:	4602      	mov	r2, r0
 8002872:	f240 21ef 	movw	r1, #751	@ 0x2ef
 8002876:	f7ff bb42 	b.w	8001efe <_dtoa_r+0x2e>
 800287a:	6922      	ldr	r2, [r4, #16]
 800287c:	3202      	adds	r2, #2
 800287e:	0092      	lsls	r2, r2, #2
 8002880:	f104 010c 	add.w	r1, r4, #12
 8002884:	300c      	adds	r0, #12
 8002886:	f001 ffbf 	bl	8004808 <memcpy>
 800288a:	2201      	movs	r2, #1
 800288c:	4631      	mov	r1, r6
 800288e:	4648      	mov	r0, r9
 8002890:	f000 fc5e 	bl	8003150 <__lshift>
 8002894:	4607      	mov	r7, r0
 8002896:	9b00      	ldr	r3, [sp, #0]
 8002898:	9a00      	ldr	r2, [sp, #0]
 800289a:	f103 0801 	add.w	r8, r3, #1
 800289e:	9b05      	ldr	r3, [sp, #20]
 80028a0:	4413      	add	r3, r2
 80028a2:	9306      	str	r3, [sp, #24]
 80028a4:	9b0e      	ldr	r3, [sp, #56]	@ 0x38
 80028a6:	f003 0301 	and.w	r3, r3, #1
 80028aa:	9308      	str	r3, [sp, #32]
 80028ac:	4629      	mov	r1, r5
 80028ae:	9801      	ldr	r0, [sp, #4]
 80028b0:	f7ff fa84 	bl	8001dbc <quorem>
 80028b4:	4621      	mov	r1, r4
 80028b6:	9004      	str	r0, [sp, #16]
 80028b8:	f100 0b30 	add.w	fp, r0, #48	@ 0x30
 80028bc:	9801      	ldr	r0, [sp, #4]
 80028be:	f000 fcb9 	bl	8003234 <__mcmp>
 80028c2:	463a      	mov	r2, r7
 80028c4:	9005      	str	r0, [sp, #20]
 80028c6:	4629      	mov	r1, r5
 80028c8:	4648      	mov	r0, r9
 80028ca:	f000 fccf 	bl	800326c <__mdiff>
 80028ce:	68c2      	ldr	r2, [r0, #12]
 80028d0:	f108 3aff 	add.w	sl, r8, #4294967295
 80028d4:	4606      	mov	r6, r0
 80028d6:	b9fa      	cbnz	r2, 8002918 <_dtoa_r+0xa48>
 80028d8:	4601      	mov	r1, r0
 80028da:	9801      	ldr	r0, [sp, #4]
 80028dc:	f000 fcaa 	bl	8003234 <__mcmp>
 80028e0:	4602      	mov	r2, r0
 80028e2:	4631      	mov	r1, r6
 80028e4:	4648      	mov	r0, r9
 80028e6:	9209      	str	r2, [sp, #36]	@ 0x24
 80028e8:	f000 fa0c 	bl	8002d04 <_Bfree>
 80028ec:	e9dd 2309 	ldrd	r2, r3, [sp, #36]	@ 0x24
 80028f0:	ea42 0103 	orr.w	r1, r2, r3
 80028f4:	9b08      	ldr	r3, [sp, #32]
 80028f6:	4319      	orrs	r1, r3
 80028f8:	4646      	mov	r6, r8
 80028fa:	d10f      	bne.n	800291c <_dtoa_r+0xa4c>
 80028fc:	f1bb 0f39 	cmp.w	fp, #57	@ 0x39
 8002900:	d028      	beq.n	8002954 <_dtoa_r+0xa84>
 8002902:	9b05      	ldr	r3, [sp, #20]
 8002904:	2b00      	cmp	r3, #0
 8002906:	dd02      	ble.n	800290e <_dtoa_r+0xa3e>
 8002908:	9b04      	ldr	r3, [sp, #16]
 800290a:	f103 0b31 	add.w	fp, r3, #49	@ 0x31
 800290e:	f88a b000 	strb.w	fp, [sl]
 8002912:	e506      	b.n	8002322 <_dtoa_r+0x452>
 8002914:	4627      	mov	r7, r4
 8002916:	e7be      	b.n	8002896 <_dtoa_r+0x9c6>
 8002918:	2201      	movs	r2, #1
 800291a:	e7e2      	b.n	80028e2 <_dtoa_r+0xa12>
 800291c:	9b05      	ldr	r3, [sp, #20]
 800291e:	2b00      	cmp	r3, #0
 8002920:	db04      	blt.n	800292c <_dtoa_r+0xa5c>
 8002922:	990a      	ldr	r1, [sp, #40]	@ 0x28
 8002924:	430b      	orrs	r3, r1
 8002926:	9908      	ldr	r1, [sp, #32]
 8002928:	430b      	orrs	r3, r1
 800292a:	d120      	bne.n	800296e <_dtoa_r+0xa9e>
 800292c:	2a00      	cmp	r2, #0
 800292e:	ddee      	ble.n	800290e <_dtoa_r+0xa3e>
 8002930:	9901      	ldr	r1, [sp, #4]
 8002932:	2201      	movs	r2, #1
 8002934:	4648      	mov	r0, r9
 8002936:	f000 fc0b 	bl	8003150 <__lshift>
 800293a:	4629      	mov	r1, r5
 800293c:	9001      	str	r0, [sp, #4]
 800293e:	f000 fc79 	bl	8003234 <__mcmp>
 8002942:	2800      	cmp	r0, #0
 8002944:	dc03      	bgt.n	800294e <_dtoa_r+0xa7e>
 8002946:	d1e2      	bne.n	800290e <_dtoa_r+0xa3e>
 8002948:	f01b 0f01 	tst.w	fp, #1
 800294c:	d0df      	beq.n	800290e <_dtoa_r+0xa3e>
 800294e:	f1bb 0f39 	cmp.w	fp, #57	@ 0x39
 8002952:	d1d9      	bne.n	8002908 <_dtoa_r+0xa38>
 8002954:	2339      	movs	r3, #57	@ 0x39
 8002956:	f88a 3000 	strb.w	r3, [sl]
 800295a:	4633      	mov	r3, r6
 800295c:	461e      	mov	r6, r3
 800295e:	3b01      	subs	r3, #1
 8002960:	f816 2c01 	ldrb.w	r2, [r6, #-1]
 8002964:	2a39      	cmp	r2, #57	@ 0x39
 8002966:	d052      	beq.n	8002a0e <_dtoa_r+0xb3e>
 8002968:	3201      	adds	r2, #1
 800296a:	701a      	strb	r2, [r3, #0]
 800296c:	e4d9      	b.n	8002322 <_dtoa_r+0x452>
 800296e:	2a00      	cmp	r2, #0
 8002970:	dd07      	ble.n	8002982 <_dtoa_r+0xab2>
 8002972:	f1bb 0f39 	cmp.w	fp, #57	@ 0x39
 8002976:	d0ed      	beq.n	8002954 <_dtoa_r+0xa84>
 8002978:	f10b 0301 	add.w	r3, fp, #1
 800297c:	f88a 3000 	strb.w	r3, [sl]
 8002980:	e4cf      	b.n	8002322 <_dtoa_r+0x452>
 8002982:	9b06      	ldr	r3, [sp, #24]
 8002984:	f808 bc01 	strb.w	fp, [r8, #-1]
 8002988:	4543      	cmp	r3, r8
 800298a:	d02a      	beq.n	80029e2 <_dtoa_r+0xb12>
 800298c:	9901      	ldr	r1, [sp, #4]
 800298e:	2300      	movs	r3, #0
 8002990:	220a      	movs	r2, #10
 8002992:	4648      	mov	r0, r9
 8002994:	f000 f9d8 	bl	8002d48 <__multadd>
 8002998:	42bc      	cmp	r4, r7
 800299a:	9001      	str	r0, [sp, #4]
 800299c:	f04f 0300 	mov.w	r3, #0
 80029a0:	f04f 020a 	mov.w	r2, #10
 80029a4:	4621      	mov	r1, r4
 80029a6:	4648      	mov	r0, r9
 80029a8:	d106      	bne.n	80029b8 <_dtoa_r+0xae8>
 80029aa:	f000 f9cd 	bl	8002d48 <__multadd>
 80029ae:	4604      	mov	r4, r0
 80029b0:	4607      	mov	r7, r0
 80029b2:	f108 0801 	add.w	r8, r8, #1
 80029b6:	e779      	b.n	80028ac <_dtoa_r+0x9dc>
 80029b8:	f000 f9c6 	bl	8002d48 <__multadd>
 80029bc:	4639      	mov	r1, r7
 80029be:	4604      	mov	r4, r0
 80029c0:	2300      	movs	r3, #0
 80029c2:	220a      	movs	r2, #10
 80029c4:	4648      	mov	r0, r9
 80029c6:	f000 f9bf 	bl	8002d48 <__multadd>
 80029ca:	4607      	mov	r7, r0
 80029cc:	e7f1      	b.n	80029b2 <_dtoa_r+0xae2>
 80029ce:	9b05      	ldr	r3, [sp, #20]
 80029d0:	1e5e      	subs	r6, r3, #1
 80029d2:	2b00      	cmp	r3, #0
 80029d4:	9b00      	ldr	r3, [sp, #0]
 80029d6:	bfd8      	it	le
 80029d8:	2600      	movle	r6, #0
 80029da:	1c5a      	adds	r2, r3, #1
 80029dc:	4627      	mov	r7, r4
 80029de:	4416      	add	r6, r2
 80029e0:	2400      	movs	r4, #0
 80029e2:	9901      	ldr	r1, [sp, #4]
 80029e4:	2201      	movs	r2, #1
 80029e6:	4648      	mov	r0, r9
 80029e8:	f000 fbb2 	bl	8003150 <__lshift>
 80029ec:	4629      	mov	r1, r5
 80029ee:	9001      	str	r0, [sp, #4]
 80029f0:	f000 fc20 	bl	8003234 <__mcmp>
 80029f4:	2800      	cmp	r0, #0
 80029f6:	dcb0      	bgt.n	800295a <_dtoa_r+0xa8a>
 80029f8:	d102      	bne.n	8002a00 <_dtoa_r+0xb30>
 80029fa:	f01b 0f01 	tst.w	fp, #1
 80029fe:	d1ac      	bne.n	800295a <_dtoa_r+0xa8a>
 8002a00:	4633      	mov	r3, r6
 8002a02:	461e      	mov	r6, r3
 8002a04:	f813 2d01 	ldrb.w	r2, [r3, #-1]!
 8002a08:	2a30      	cmp	r2, #48	@ 0x30
 8002a0a:	d0fa      	beq.n	8002a02 <_dtoa_r+0xb32>
 8002a0c:	e489      	b.n	8002322 <_dtoa_r+0x452>
 8002a0e:	9a00      	ldr	r2, [sp, #0]
 8002a10:	429a      	cmp	r2, r3
 8002a12:	d1a3      	bne.n	800295c <_dtoa_r+0xa8c>
 8002a14:	9b02      	ldr	r3, [sp, #8]
 8002a16:	3301      	adds	r3, #1
 8002a18:	9302      	str	r3, [sp, #8]
 8002a1a:	2331      	movs	r3, #49	@ 0x31
 8002a1c:	7013      	strb	r3, [r2, #0]
 8002a1e:	e480      	b.n	8002322 <_dtoa_r+0x452>
 8002a20:	9b23      	ldr	r3, [sp, #140]	@ 0x8c
 8002a22:	2b00      	cmp	r3, #0
 8002a24:	f47f aa9f 	bne.w	8001f66 <_dtoa_r+0x96>
 8002a28:	4b13      	ldr	r3, [pc, #76]	@ (8002a78 <_dtoa_r+0xba8>)
 8002a2a:	f7ff babe 	b.w	8001faa <_dtoa_r+0xda>
 8002a2e:	9b0a      	ldr	r3, [sp, #40]	@ 0x28
 8002a30:	2b01      	cmp	r3, #1
 8002a32:	f77f ae36 	ble.w	80026a2 <_dtoa_r+0x7d2>
 8002a36:	f8dd a034 	ldr.w	sl, [sp, #52]	@ 0x34
 8002a3a:	2001      	movs	r0, #1
 8002a3c:	e655      	b.n	80026ea <_dtoa_r+0x81a>
 8002a3e:	9b05      	ldr	r3, [sp, #20]
 8002a40:	2b00      	cmp	r3, #0
 8002a42:	f77f aed9 	ble.w	80027f8 <_dtoa_r+0x928>
 8002a46:	9e00      	ldr	r6, [sp, #0]
 8002a48:	9801      	ldr	r0, [sp, #4]
 8002a4a:	4629      	mov	r1, r5
 8002a4c:	f7ff f9b6 	bl	8001dbc <quorem>
 8002a50:	f100 0b30 	add.w	fp, r0, #48	@ 0x30
 8002a54:	9b00      	ldr	r3, [sp, #0]
 8002a56:	f806 bb01 	strb.w	fp, [r6], #1
 8002a5a:	1af2      	subs	r2, r6, r3
 8002a5c:	9b05      	ldr	r3, [sp, #20]
 8002a5e:	4293      	cmp	r3, r2
 8002a60:	ddb5      	ble.n	80029ce <_dtoa_r+0xafe>
 8002a62:	9901      	ldr	r1, [sp, #4]
 8002a64:	2300      	movs	r3, #0
 8002a66:	220a      	movs	r2, #10
 8002a68:	4648      	mov	r0, r9
 8002a6a:	f000 f96d 	bl	8002d48 <__multadd>
 8002a6e:	9001      	str	r0, [sp, #4]
 8002a70:	e7ea      	b.n	8002a48 <_dtoa_r+0xb78>
 8002a72:	bf00      	nop
 8002a74:	08004c2b 			@ <UNDEFINED> instruction: 08004c2b
 8002a78:	08004bae 			@ <UNDEFINED> instruction: 08004bae

Disassembly of section .text._free_r:

08002a7c <_free_r>:
 8002a7c:	b537      	push	{r0, r1, r2, r4, r5, lr}
 8002a7e:	2900      	cmp	r1, #0
 8002a80:	d044      	beq.n	8002b0c <_free_r+0x90>
 8002a82:	f851 3c04 	ldr.w	r3, [r1, #-4]
 8002a86:	9001      	str	r0, [sp, #4]
 8002a88:	2b00      	cmp	r3, #0
 8002a8a:	f1a1 0404 	sub.w	r4, r1, #4
 8002a8e:	bfb8      	it	lt
 8002a90:	18e4      	addlt	r4, r4, r3
 8002a92:	f000 f8ed 	bl	8002c70 <__malloc_lock>
 8002a96:	4a1e      	ldr	r2, [pc, #120]	@ (8002b10 <_free_r+0x94>)
 8002a98:	9801      	ldr	r0, [sp, #4]
 8002a9a:	6813      	ldr	r3, [r2, #0]
 8002a9c:	b933      	cbnz	r3, 8002aac <_free_r+0x30>
 8002a9e:	6063      	str	r3, [r4, #4]
 8002aa0:	6014      	str	r4, [r2, #0]
 8002aa2:	b003      	add	sp, #12
 8002aa4:	e8bd 4030 	ldmia.w	sp!, {r4, r5, lr}
 8002aa8:	f000 b8e8 	b.w	8002c7c <__malloc_unlock>
 8002aac:	42a3      	cmp	r3, r4
 8002aae:	d908      	bls.n	8002ac2 <_free_r+0x46>
 8002ab0:	6825      	ldr	r5, [r4, #0]
 8002ab2:	1961      	adds	r1, r4, r5
 8002ab4:	428b      	cmp	r3, r1
 8002ab6:	bf01      	itttt	eq
 8002ab8:	6819      	ldreq	r1, [r3, #0]
 8002aba:	685b      	ldreq	r3, [r3, #4]
 8002abc:	1949      	addeq	r1, r1, r5
 8002abe:	6021      	streq	r1, [r4, #0]
 8002ac0:	e7ed      	b.n	8002a9e <_free_r+0x22>
 8002ac2:	461a      	mov	r2, r3
 8002ac4:	685b      	ldr	r3, [r3, #4]
 8002ac6:	b10b      	cbz	r3, 8002acc <_free_r+0x50>
 8002ac8:	42a3      	cmp	r3, r4
 8002aca:	d9fa      	bls.n	8002ac2 <_free_r+0x46>
 8002acc:	6811      	ldr	r1, [r2, #0]
 8002ace:	1855      	adds	r5, r2, r1
 8002ad0:	42a5      	cmp	r5, r4
 8002ad2:	d10b      	bne.n	8002aec <_free_r+0x70>
 8002ad4:	6824      	ldr	r4, [r4, #0]
 8002ad6:	4421      	add	r1, r4
 8002ad8:	1854      	adds	r4, r2, r1
 8002ada:	42a3      	cmp	r3, r4
 8002adc:	6011      	str	r1, [r2, #0]
 8002ade:	d1e0      	bne.n	8002aa2 <_free_r+0x26>
 8002ae0:	681c      	ldr	r4, [r3, #0]
 8002ae2:	685b      	ldr	r3, [r3, #4]
 8002ae4:	6053      	str	r3, [r2, #4]
 8002ae6:	440c      	add	r4, r1
 8002ae8:	6014      	str	r4, [r2, #0]
 8002aea:	e7da      	b.n	8002aa2 <_free_r+0x26>
 8002aec:	d902      	bls.n	8002af4 <_free_r+0x78>
 8002aee:	230c      	movs	r3, #12
 8002af0:	6003      	str	r3, [r0, #0]
 8002af2:	e7d6      	b.n	8002aa2 <_free_r+0x26>
 8002af4:	6825      	ldr	r5, [r4, #0]
 8002af6:	1961      	adds	r1, r4, r5
 8002af8:	428b      	cmp	r3, r1
 8002afa:	bf04      	itt	eq
 8002afc:	6819      	ldreq	r1, [r3, #0]
 8002afe:	685b      	ldreq	r3, [r3, #4]
 8002b00:	6063      	str	r3, [r4, #4]
 8002b02:	bf04      	itt	eq
 8002b04:	1949      	addeq	r1, r1, r5
 8002b06:	6021      	streq	r1, [r4, #0]
 8002b08:	6054      	str	r4, [r2, #4]
 8002b0a:	e7ca      	b.n	8002aa2 <_free_r+0x26>
 8002b0c:	b003      	add	sp, #12
 8002b0e:	bd30      	pop	{r4, r5, pc}
 8002b10:	200001dc 	ldrdcs	r0, [r0], -ip

Disassembly of section .text.malloc:

08002b14 <malloc>:
 8002b14:	4b02      	ldr	r3, [pc, #8]	@ (8002b20 <malloc+0xc>)
 8002b16:	4601      	mov	r1, r0
 8002b18:	6818      	ldr	r0, [r3, #0]
 8002b1a:	f000 b82d 	b.w	8002b78 <_malloc_r>
 8002b1e:	bf00      	nop
 8002b20:	20000004 			@ <UNDEFINED> instruction: 20000004

Disassembly of section .text.free:

08002b24 <free>:
 8002b24:	4b02      	ldr	r3, [pc, #8]	@ (8002b30 <free+0xc>)
 8002b26:	4601      	mov	r1, r0
 8002b28:	6818      	ldr	r0, [r3, #0]
 8002b2a:	f7ff bfa7 	b.w	8002a7c <_free_r>
 8002b2e:	bf00      	nop
 8002b30:	20000004 			@ <UNDEFINED> instruction: 20000004

Disassembly of section .text.sbrk_aligned:

08002b34 <sbrk_aligned>:
 8002b34:	b570      	push	{r4, r5, r6, lr}
 8002b36:	4c0f      	ldr	r4, [pc, #60]	@ (8002b74 <sbrk_aligned+0x40>)
 8002b38:	460e      	mov	r6, r1
 8002b3a:	6821      	ldr	r1, [r4, #0]
 8002b3c:	4605      	mov	r5, r0
 8002b3e:	b911      	cbnz	r1, 8002b46 <sbrk_aligned+0x12>
 8002b40:	f001 fe40 	bl	80047c4 <_sbrk_r>
 8002b44:	6020      	str	r0, [r4, #0]
 8002b46:	4631      	mov	r1, r6
 8002b48:	4628      	mov	r0, r5
 8002b4a:	f001 fe3b 	bl	80047c4 <_sbrk_r>
 8002b4e:	1c43      	adds	r3, r0, #1
 8002b50:	d103      	bne.n	8002b5a <sbrk_aligned+0x26>
 8002b52:	f04f 34ff 	mov.w	r4, #4294967295
 8002b56:	4620      	mov	r0, r4
 8002b58:	bd70      	pop	{r4, r5, r6, pc}
 8002b5a:	1cc4      	adds	r4, r0, #3
 8002b5c:	f024 0403 	bic.w	r4, r4, #3
 8002b60:	42a0      	cmp	r0, r4
 8002b62:	d0f8      	beq.n	8002b56 <sbrk_aligned+0x22>
 8002b64:	1a21      	subs	r1, r4, r0
 8002b66:	4628      	mov	r0, r5
 8002b68:	f001 fe2c 	bl	80047c4 <_sbrk_r>
 8002b6c:	3001      	adds	r0, #1
 8002b6e:	d1f2      	bne.n	8002b56 <sbrk_aligned+0x22>
 8002b70:	e7ef      	b.n	8002b52 <sbrk_aligned+0x1e>
 8002b72:	bf00      	nop
 8002b74:	200001d8 	ldrdcs	r0, [r0], -r8

Disassembly of section .text._malloc_r:

08002b78 <_malloc_r>:
 8002b78:	e92d 43f8 	stmdb	sp!, {r3, r4, r5, r6, r7, r8, r9, lr}
 8002b7c:	1ccd      	adds	r5, r1, #3
 8002b7e:	f025 0503 	bic.w	r5, r5, #3
 8002b82:	3508      	adds	r5, #8
 8002b84:	2d0c      	cmp	r5, #12
 8002b86:	bf38      	it	cc
 8002b88:	250c      	movcc	r5, #12
 8002b8a:	2d00      	cmp	r5, #0
 8002b8c:	4606      	mov	r6, r0
 8002b8e:	db01      	blt.n	8002b94 <_malloc_r+0x1c>
 8002b90:	42a9      	cmp	r1, r5
 8002b92:	d904      	bls.n	8002b9e <_malloc_r+0x26>
 8002b94:	230c      	movs	r3, #12
 8002b96:	6033      	str	r3, [r6, #0]
 8002b98:	2000      	movs	r0, #0
 8002b9a:	e8bd 83f8 	ldmia.w	sp!, {r3, r4, r5, r6, r7, r8, r9, pc}
 8002b9e:	4f33      	ldr	r7, [pc, #204]	@ (8002c6c <_malloc_r+0xf4>)
 8002ba0:	f000 f866 	bl	8002c70 <__malloc_lock>
 8002ba4:	683b      	ldr	r3, [r7, #0]
 8002ba6:	461c      	mov	r4, r3
 8002ba8:	bb3c      	cbnz	r4, 8002bfa <_malloc_r+0x82>
 8002baa:	4629      	mov	r1, r5
 8002bac:	4630      	mov	r0, r6
 8002bae:	f7ff ffc1 	bl	8002b34 <sbrk_aligned>
 8002bb2:	1c43      	adds	r3, r0, #1
 8002bb4:	4604      	mov	r4, r0
 8002bb6:	d156      	bne.n	8002c66 <_malloc_r+0xee>
 8002bb8:	683c      	ldr	r4, [r7, #0]
 8002bba:	46a0      	mov	r8, r4
 8002bbc:	f1b8 0f00 	cmp.w	r8, #0
 8002bc0:	d140      	bne.n	8002c44 <_malloc_r+0xcc>
 8002bc2:	2c00      	cmp	r4, #0
 8002bc4:	d049      	beq.n	8002c5a <_malloc_r+0xe2>
 8002bc6:	6823      	ldr	r3, [r4, #0]
 8002bc8:	4641      	mov	r1, r8
 8002bca:	4630      	mov	r0, r6
 8002bcc:	eb04 0903 	add.w	r9, r4, r3
 8002bd0:	f001 fdf8 	bl	80047c4 <_sbrk_r>
 8002bd4:	4581      	cmp	r9, r0
 8002bd6:	d140      	bne.n	8002c5a <_malloc_r+0xe2>
 8002bd8:	6821      	ldr	r1, [r4, #0]
 8002bda:	1a6d      	subs	r5, r5, r1
 8002bdc:	4629      	mov	r1, r5
 8002bde:	4630      	mov	r0, r6
 8002be0:	f7ff ffa8 	bl	8002b34 <sbrk_aligned>
 8002be4:	3001      	adds	r0, #1
 8002be6:	d038      	beq.n	8002c5a <_malloc_r+0xe2>
 8002be8:	6823      	ldr	r3, [r4, #0]
 8002bea:	442b      	add	r3, r5
 8002bec:	6023      	str	r3, [r4, #0]
 8002bee:	683b      	ldr	r3, [r7, #0]
 8002bf0:	685a      	ldr	r2, [r3, #4]
 8002bf2:	bb5a      	cbnz	r2, 8002c4c <_malloc_r+0xd4>
 8002bf4:	f8c7 8000 	str.w	r8, [r7]
 8002bf8:	e00e      	b.n	8002c18 <_malloc_r+0xa0>
 8002bfa:	6822      	ldr	r2, [r4, #0]
 8002bfc:	1b52      	subs	r2, r2, r5
 8002bfe:	d41e      	bmi.n	8002c3e <_malloc_r+0xc6>
 8002c00:	2a0b      	cmp	r2, #11
 8002c02:	d916      	bls.n	8002c32 <_malloc_r+0xba>
 8002c04:	1961      	adds	r1, r4, r5
 8002c06:	42a3      	cmp	r3, r4
 8002c08:	6025      	str	r5, [r4, #0]
 8002c0a:	bf18      	it	ne
 8002c0c:	6059      	strne	r1, [r3, #4]
 8002c0e:	6863      	ldr	r3, [r4, #4]
 8002c10:	bf08      	it	eq
 8002c12:	6039      	streq	r1, [r7, #0]
 8002c14:	5162      	str	r2, [r4, r5]
 8002c16:	604b      	str	r3, [r1, #4]
 8002c18:	4630      	mov	r0, r6
 8002c1a:	f000 f82f 	bl	8002c7c <__malloc_unlock>
 8002c1e:	f104 000b 	add.w	r0, r4, #11
 8002c22:	1d23      	adds	r3, r4, #4
 8002c24:	f020 0007 	bic.w	r0, r0, #7
 8002c28:	1ac2      	subs	r2, r0, r3
 8002c2a:	bf1c      	itt	ne
 8002c2c:	1a1b      	subne	r3, r3, r0
 8002c2e:	50a3      	strne	r3, [r4, r2]
 8002c30:	e7b3      	b.n	8002b9a <_malloc_r+0x22>
 8002c32:	6862      	ldr	r2, [r4, #4]
 8002c34:	42a3      	cmp	r3, r4
 8002c36:	bf0c      	ite	eq
 8002c38:	603a      	streq	r2, [r7, #0]
 8002c3a:	605a      	strne	r2, [r3, #4]
 8002c3c:	e7ec      	b.n	8002c18 <_malloc_r+0xa0>
 8002c3e:	4623      	mov	r3, r4
 8002c40:	6864      	ldr	r4, [r4, #4]
 8002c42:	e7b1      	b.n	8002ba8 <_malloc_r+0x30>
 8002c44:	4644      	mov	r4, r8
 8002c46:	f8d8 8004 	ldr.w	r8, [r8, #4]
 8002c4a:	e7b7      	b.n	8002bbc <_malloc_r+0x44>
 8002c4c:	461a      	mov	r2, r3
 8002c4e:	685b      	ldr	r3, [r3, #4]
 8002c50:	42a3      	cmp	r3, r4
 8002c52:	d1fb      	bne.n	8002c4c <_malloc_r+0xd4>
 8002c54:	2300      	movs	r3, #0
 8002c56:	6053      	str	r3, [r2, #4]
 8002c58:	e7de      	b.n	8002c18 <_malloc_r+0xa0>
 8002c5a:	230c      	movs	r3, #12
 8002c5c:	6033      	str	r3, [r6, #0]
 8002c5e:	4630      	mov	r0, r6
 8002c60:	f000 f80c 	bl	8002c7c <__malloc_unlock>
 8002c64:	e798      	b.n	8002b98 <_malloc_r+0x20>
 8002c66:	6005      	str	r5, [r0, #0]
 8002c68:	e7d6      	b.n	8002c18 <_malloc_r+0xa0>
 8002c6a:	bf00      	nop
 8002c6c:	200001dc 	ldrdcs	r0, [r0], -ip

Disassembly of section .text.__malloc_lock:

08002c70 <__malloc_lock>:
 8002c70:	4801      	ldr	r0, [pc, #4]	@ (8002c78 <__malloc_lock+0x8>)
 8002c72:	f7ff b89c 	b.w	8001dae <__retarget_lock_acquire_recursive>
 8002c76:	bf00      	nop
 8002c78:	200001d4 	ldrdcs	r0, [r0], -r4

Disassembly of section .text.__malloc_unlock:

08002c7c <__malloc_unlock>:
 8002c7c:	4801      	ldr	r0, [pc, #4]	@ (8002c84 <__malloc_unlock+0x8>)
 8002c7e:	f7ff b89c 	b.w	8001dba <__retarget_lock_release_recursive>
 8002c82:	bf00      	nop
 8002c84:	200001d4 	ldrdcs	r0, [r0], -r4

Disassembly of section .text._Balloc:

08002c88 <_Balloc>:
 8002c88:	b570      	push	{r4, r5, r6, lr}
 8002c8a:	69c4      	ldr	r4, [r0, #28]
 8002c8c:	4605      	mov	r5, r0
 8002c8e:	460e      	mov	r6, r1
 8002c90:	b984      	cbnz	r4, 8002cb4 <_Balloc+0x2c>
 8002c92:	2010      	movs	r0, #16
 8002c94:	f7ff ff3e 	bl	8002b14 <malloc>
 8002c98:	4604      	mov	r4, r0
 8002c9a:	61e8      	str	r0, [r5, #28]
 8002c9c:	b928      	cbnz	r0, 8002caa <_Balloc+0x22>
 8002c9e:	4602      	mov	r2, r0
 8002ca0:	4b16      	ldr	r3, [pc, #88]	@ (8002cfc <_Balloc+0x74>)
 8002ca2:	4817      	ldr	r0, [pc, #92]	@ (8002d00 <_Balloc+0x78>)
 8002ca4:	216b      	movs	r1, #107	@ 0x6b
 8002ca6:	f001 fdbd 	bl	8004824 <__assert_func>
 8002caa:	2300      	movs	r3, #0
 8002cac:	e9c0 3301 	strd	r3, r3, [r0, #4]
 8002cb0:	6003      	str	r3, [r0, #0]
 8002cb2:	60c3      	str	r3, [r0, #12]
 8002cb4:	68e3      	ldr	r3, [r4, #12]
 8002cb6:	b953      	cbnz	r3, 8002cce <_Balloc+0x46>
 8002cb8:	2221      	movs	r2, #33	@ 0x21
 8002cba:	2104      	movs	r1, #4
 8002cbc:	4628      	mov	r0, r5
 8002cbe:	f001 fdd4 	bl	800486a <_calloc_r>
 8002cc2:	69eb      	ldr	r3, [r5, #28]
 8002cc4:	60e0      	str	r0, [r4, #12]
 8002cc6:	68db      	ldr	r3, [r3, #12]
 8002cc8:	b90b      	cbnz	r3, 8002cce <_Balloc+0x46>
 8002cca:	2000      	movs	r0, #0
 8002ccc:	bd70      	pop	{r4, r5, r6, pc}
 8002cce:	f853 0026 	ldr.w	r0, [r3, r6, lsl #2]
 8002cd2:	b130      	cbz	r0, 8002ce2 <_Balloc+0x5a>
 8002cd4:	6802      	ldr	r2, [r0, #0]
 8002cd6:	f843 2026 	str.w	r2, [r3, r6, lsl #2]
 8002cda:	2300      	movs	r3, #0
 8002cdc:	e9c0 3303 	strd	r3, r3, [r0, #12]
 8002ce0:	e7f4      	b.n	8002ccc <_Balloc+0x44>
 8002ce2:	2101      	movs	r1, #1
 8002ce4:	fa01 f406 	lsl.w	r4, r1, r6
 8002ce8:	1d62      	adds	r2, r4, #5
 8002cea:	0092      	lsls	r2, r2, #2
 8002cec:	4628      	mov	r0, r5
 8002cee:	f001 fdbc 	bl	800486a <_calloc_r>
 8002cf2:	2800      	cmp	r0, #0
 8002cf4:	d0e9      	beq.n	8002cca <_Balloc+0x42>
 8002cf6:	e9c0 6401 	strd	r6, r4, [r0, #4]
 8002cfa:	e7ee      	b.n	8002cda <_Balloc+0x52>
 8002cfc:	08004bbb 			@ <UNDEFINED> instruction: 08004bbb
 8002d00:	08004c3c 			@ <UNDEFINED> instruction: 08004c3c

Disassembly of section .text._Bfree:

08002d04 <_Bfree>:
 8002d04:	b570      	push	{r4, r5, r6, lr}
 8002d06:	69c4      	ldr	r4, [r0, #28]
 8002d08:	4606      	mov	r6, r0
 8002d0a:	460d      	mov	r5, r1
 8002d0c:	b974      	cbnz	r4, 8002d2c <_Bfree+0x28>
 8002d0e:	2010      	movs	r0, #16
 8002d10:	f7ff ff00 	bl	8002b14 <malloc>
 8002d14:	4602      	mov	r2, r0
 8002d16:	61f0      	str	r0, [r6, #28]
 8002d18:	b920      	cbnz	r0, 8002d24 <_Bfree+0x20>
 8002d1a:	4b09      	ldr	r3, [pc, #36]	@ (8002d40 <_Bfree+0x3c>)
 8002d1c:	4809      	ldr	r0, [pc, #36]	@ (8002d44 <_Bfree+0x40>)
 8002d1e:	218f      	movs	r1, #143	@ 0x8f
 8002d20:	f001 fd80 	bl	8004824 <__assert_func>
 8002d24:	e9c0 4401 	strd	r4, r4, [r0, #4]
 8002d28:	6004      	str	r4, [r0, #0]
 8002d2a:	60c4      	str	r4, [r0, #12]
 8002d2c:	b13d      	cbz	r5, 8002d3e <_Bfree+0x3a>
 8002d2e:	69f3      	ldr	r3, [r6, #28]
 8002d30:	686a      	ldr	r2, [r5, #4]
 8002d32:	68db      	ldr	r3, [r3, #12]
 8002d34:	f853 1022 	ldr.w	r1, [r3, r2, lsl #2]
 8002d38:	6029      	str	r1, [r5, #0]
 8002d3a:	f843 5022 	str.w	r5, [r3, r2, lsl #2]
 8002d3e:	bd70      	pop	{r4, r5, r6, pc}
 8002d40:	08004bbb 			@ <UNDEFINED> instruction: 08004bbb
 8002d44:	08004c3c 			@ <UNDEFINED> instruction: 08004c3c

Disassembly of section .text.__multadd:

08002d48 <__multadd>:
 8002d48:	e92d 41f0 	stmdb	sp!, {r4, r5, r6, r7, r8, lr}
 8002d4c:	690d      	ldr	r5, [r1, #16]
 8002d4e:	4607      	mov	r7, r0
 8002d50:	460c      	mov	r4, r1
 8002d52:	461e      	mov	r6, r3
 8002d54:	f101 0c14 	add.w	ip, r1, #20
 8002d58:	2000      	movs	r0, #0
 8002d5a:	f8dc 3000 	ldr.w	r3, [ip]
 8002d5e:	b299      	uxth	r1, r3
 8002d60:	fb02 6101 	mla	r1, r2, r1, r6
 8002d64:	0c1e      	lsrs	r6, r3, #16
 8002d66:	0c0b      	lsrs	r3, r1, #16
 8002d68:	fb02 3306 	mla	r3, r2, r6, r3
 8002d6c:	b289      	uxth	r1, r1
 8002d6e:	3001      	adds	r0, #1
 8002d70:	eb01 4103 	add.w	r1, r1, r3, lsl #16
 8002d74:	4285      	cmp	r5, r0
 8002d76:	f84c 1b04 	str.w	r1, [ip], #4
 8002d7a:	ea4f 4613 	mov.w	r6, r3, lsr #16
 8002d7e:	dcec      	bgt.n	8002d5a <__multadd+0x12>
 8002d80:	b30e      	cbz	r6, 8002dc6 <__multadd+0x7e>
 8002d82:	68a3      	ldr	r3, [r4, #8]
 8002d84:	42ab      	cmp	r3, r5
 8002d86:	dc19      	bgt.n	8002dbc <__multadd+0x74>
 8002d88:	6861      	ldr	r1, [r4, #4]
 8002d8a:	4638      	mov	r0, r7
 8002d8c:	3101      	adds	r1, #1
 8002d8e:	f7ff ff7b 	bl	8002c88 <_Balloc>
 8002d92:	4680      	mov	r8, r0
 8002d94:	b928      	cbnz	r0, 8002da2 <__multadd+0x5a>
 8002d96:	4602      	mov	r2, r0
 8002d98:	4b0c      	ldr	r3, [pc, #48]	@ (8002dcc <__multadd+0x84>)
 8002d9a:	480d      	ldr	r0, [pc, #52]	@ (8002dd0 <__multadd+0x88>)
 8002d9c:	21ba      	movs	r1, #186	@ 0xba
 8002d9e:	f001 fd41 	bl	8004824 <__assert_func>
 8002da2:	6922      	ldr	r2, [r4, #16]
 8002da4:	3202      	adds	r2, #2
 8002da6:	f104 010c 	add.w	r1, r4, #12
 8002daa:	0092      	lsls	r2, r2, #2
 8002dac:	300c      	adds	r0, #12
 8002dae:	f001 fd2b 	bl	8004808 <memcpy>
 8002db2:	4621      	mov	r1, r4
 8002db4:	4638      	mov	r0, r7
 8002db6:	f7ff ffa5 	bl	8002d04 <_Bfree>
 8002dba:	4644      	mov	r4, r8
 8002dbc:	eb04 0385 	add.w	r3, r4, r5, lsl #2
 8002dc0:	3501      	adds	r5, #1
 8002dc2:	615e      	str	r6, [r3, #20]
 8002dc4:	6125      	str	r5, [r4, #16]
 8002dc6:	4620      	mov	r0, r4
 8002dc8:	e8bd 81f0 	ldmia.w	sp!, {r4, r5, r6, r7, r8, pc}
 8002dcc:	08004c2b 			@ <UNDEFINED> instruction: 08004c2b
 8002dd0:	08004c3c 			@ <UNDEFINED> instruction: 08004c3c

Disassembly of section .text.__s2b:

08002dd4 <__s2b>:
 8002dd4:	e92d 43f8 	stmdb	sp!, {r3, r4, r5, r6, r7, r8, r9, lr}
 8002dd8:	4688      	mov	r8, r1
 8002dda:	4614      	mov	r4, r2
 8002ddc:	461f      	mov	r7, r3
 8002dde:	2209      	movs	r2, #9
 8002de0:	3308      	adds	r3, #8
 8002de2:	4606      	mov	r6, r0
 8002de4:	fb93 f3f2 	sdiv	r3, r3, r2
 8002de8:	2100      	movs	r1, #0
 8002dea:	2201      	movs	r2, #1
 8002dec:	429a      	cmp	r2, r3
 8002dee:	db09      	blt.n	8002e04 <__s2b+0x30>
 8002df0:	4630      	mov	r0, r6
 8002df2:	f7ff ff49 	bl	8002c88 <_Balloc>
 8002df6:	b940      	cbnz	r0, 8002e0a <__s2b+0x36>
 8002df8:	4602      	mov	r2, r0
 8002dfa:	4b19      	ldr	r3, [pc, #100]	@ (8002e60 <__s2b+0x8c>)
 8002dfc:	4819      	ldr	r0, [pc, #100]	@ (8002e64 <__s2b+0x90>)
 8002dfe:	21d3      	movs	r1, #211	@ 0xd3
 8002e00:	f001 fd10 	bl	8004824 <__assert_func>
 8002e04:	0052      	lsls	r2, r2, #1
 8002e06:	3101      	adds	r1, #1
 8002e08:	e7f0      	b.n	8002dec <__s2b+0x18>
 8002e0a:	9b08      	ldr	r3, [sp, #32]
 8002e0c:	6143      	str	r3, [r0, #20]
 8002e0e:	2c09      	cmp	r4, #9
 8002e10:	f04f 0301 	mov.w	r3, #1
 8002e14:	6103      	str	r3, [r0, #16]
 8002e16:	dc08      	bgt.n	8002e2a <__s2b+0x56>
 8002e18:	f108 050a 	add.w	r5, r8, #10
 8002e1c:	2409      	movs	r4, #9
 8002e1e:	1b64      	subs	r4, r4, r5
 8002e20:	192b      	adds	r3, r5, r4
 8002e22:	429f      	cmp	r7, r3
 8002e24:	dc12      	bgt.n	8002e4c <__s2b+0x78>
 8002e26:	e8bd 83f8 	ldmia.w	sp!, {r3, r4, r5, r6, r7, r8, r9, pc}
 8002e2a:	f108 0509 	add.w	r5, r8, #9
 8002e2e:	46a9      	mov	r9, r5
 8002e30:	44a0      	add	r8, r4
 8002e32:	f819 3b01 	ldrb.w	r3, [r9], #1
 8002e36:	4601      	mov	r1, r0
 8002e38:	3b30      	subs	r3, #48	@ 0x30
 8002e3a:	220a      	movs	r2, #10
 8002e3c:	4630      	mov	r0, r6
 8002e3e:	f7ff ff83 	bl	8002d48 <__multadd>
 8002e42:	45c1      	cmp	r9, r8
 8002e44:	d1f5      	bne.n	8002e32 <__s2b+0x5e>
 8002e46:	4425      	add	r5, r4
 8002e48:	3d08      	subs	r5, #8
 8002e4a:	e7e8      	b.n	8002e1e <__s2b+0x4a>
 8002e4c:	f815 3b01 	ldrb.w	r3, [r5], #1
 8002e50:	4601      	mov	r1, r0
 8002e52:	3b30      	subs	r3, #48	@ 0x30
 8002e54:	220a      	movs	r2, #10
 8002e56:	4630      	mov	r0, r6
 8002e58:	f7ff ff76 	bl	8002d48 <__multadd>
 8002e5c:	e7e0      	b.n	8002e20 <__s2b+0x4c>
 8002e5e:	bf00      	nop
 8002e60:	08004c2b 			@ <UNDEFINED> instruction: 08004c2b
 8002e64:	08004c3c 			@ <UNDEFINED> instruction: 08004c3c

Disassembly of section .text.__hi0bits:

08002e68 <__hi0bits>:
 8002e68:	f5b0 3f80 	cmp.w	r0, #65536	@ 0x10000
 8002e6c:	4603      	mov	r3, r0
 8002e6e:	bf36      	itet	cc
 8002e70:	0403      	lslcc	r3, r0, #16
 8002e72:	2000      	movcs	r0, #0
 8002e74:	2010      	movcc	r0, #16
 8002e76:	f1b3 7f80 	cmp.w	r3, #16777216	@ 0x1000000
 8002e7a:	bf3c      	itt	cc
 8002e7c:	021b      	lslcc	r3, r3, #8
 8002e7e:	3008      	addcc	r0, #8
 8002e80:	f1b3 5f80 	cmp.w	r3, #268435456	@ 0x10000000
 8002e84:	bf3c      	itt	cc
 8002e86:	011b      	lslcc	r3, r3, #4
 8002e88:	3004      	addcc	r0, #4
 8002e8a:	f1b3 4f80 	cmp.w	r3, #1073741824	@ 0x40000000
 8002e8e:	bf3c      	itt	cc
 8002e90:	009b      	lslcc	r3, r3, #2
 8002e92:	3002      	addcc	r0, #2
 8002e94:	2b00      	cmp	r3, #0
 8002e96:	db04      	blt.n	8002ea2 <__hi0bits+0x3a>
 8002e98:	005b      	lsls	r3, r3, #1
 8002e9a:	d501      	bpl.n	8002ea0 <__hi0bits+0x38>
 8002e9c:	3001      	adds	r0, #1
 8002e9e:	4770      	bx	lr
 8002ea0:	2020      	movs	r0, #32
 8002ea2:	4770      	bx	lr

Disassembly of section .text.__lo0bits:

08002ea4 <__lo0bits>:
 8002ea4:	6803      	ldr	r3, [r0, #0]
 8002ea6:	f013 0207 	ands.w	r2, r3, #7
 8002eaa:	4601      	mov	r1, r0
 8002eac:	d00b      	beq.n	8002ec6 <__lo0bits+0x22>
 8002eae:	07da      	lsls	r2, r3, #31
 8002eb0:	d422      	bmi.n	8002ef8 <__lo0bits+0x54>
 8002eb2:	0798      	lsls	r0, r3, #30
 8002eb4:	bf49      	itett	mi
 8002eb6:	085b      	lsrmi	r3, r3, #1
 8002eb8:	089b      	lsrpl	r3, r3, #2
 8002eba:	2001      	movmi	r0, #1
 8002ebc:	600b      	strmi	r3, [r1, #0]
 8002ebe:	bf5c      	itt	pl
 8002ec0:	600b      	strpl	r3, [r1, #0]
 8002ec2:	2002      	movpl	r0, #2
 8002ec4:	4770      	bx	lr
 8002ec6:	b298      	uxth	r0, r3
 8002ec8:	b9a0      	cbnz	r0, 8002ef4 <__lo0bits+0x50>
 8002eca:	0c1b      	lsrs	r3, r3, #16
 8002ecc:	2010      	movs	r0, #16
 8002ece:	b2da      	uxtb	r2, r3
 8002ed0:	b90a      	cbnz	r2, 8002ed6 <__lo0bits+0x32>
 8002ed2:	3008      	adds	r0, #8
 8002ed4:	0a1b      	lsrs	r3, r3, #8
 8002ed6:	071a      	lsls	r2, r3, #28
 8002ed8:	bf04      	itt	eq
 8002eda:	091b      	lsreq	r3, r3, #4
 8002edc:	3004      	addeq	r0, #4
 8002ede:	079a      	lsls	r2, r3, #30
 8002ee0:	bf04      	itt	eq
 8002ee2:	089b      	lsreq	r3, r3, #2
 8002ee4:	3002      	addeq	r0, #2
 8002ee6:	07da      	lsls	r2, r3, #31
 8002ee8:	d402      	bmi.n	8002ef0 <__lo0bits+0x4c>
 8002eea:	085b      	lsrs	r3, r3, #1
 8002eec:	d006      	beq.n	8002efc <__lo0bits+0x58>
 8002eee:	3001      	adds	r0, #1
 8002ef0:	600b      	str	r3, [r1, #0]
 8002ef2:	4770      	bx	lr
 8002ef4:	4610      	mov	r0, r2
 8002ef6:	e7ea      	b.n	8002ece <__lo0bits+0x2a>
 8002ef8:	2000      	movs	r0, #0
 8002efa:	4770      	bx	lr
 8002efc:	2020      	movs	r0, #32
 8002efe:	4770      	bx	lr

Disassembly of section .text.__i2b:

08002f00 <__i2b>:
 8002f00:	b510      	push	{r4, lr}
 8002f02:	460c      	mov	r4, r1
 8002f04:	2101      	movs	r1, #1
 8002f06:	f7ff febf 	bl	8002c88 <_Balloc>
 8002f0a:	4602      	mov	r2, r0
 8002f0c:	b928      	cbnz	r0, 8002f1a <__i2b+0x1a>
 8002f0e:	4b05      	ldr	r3, [pc, #20]	@ (8002f24 <__i2b+0x24>)
 8002f10:	4805      	ldr	r0, [pc, #20]	@ (8002f28 <__i2b+0x28>)
 8002f12:	f240 1145 	movw	r1, #325	@ 0x145
 8002f16:	f001 fc85 	bl	8004824 <__assert_func>
 8002f1a:	2301      	movs	r3, #1
 8002f1c:	6144      	str	r4, [r0, #20]
 8002f1e:	6103      	str	r3, [r0, #16]
 8002f20:	bd10      	pop	{r4, pc}
 8002f22:	bf00      	nop
 8002f24:	08004c2b 			@ <UNDEFINED> instruction: 08004c2b
 8002f28:	08004c3c 			@ <UNDEFINED> instruction: 08004c3c

Disassembly of section .text.__multiply:

08002f2c <__multiply>:
 8002f2c:	e92d 4ff0 	stmdb	sp!, {r4, r5, r6, r7, r8, r9, sl, fp, lr}
 8002f30:	f8d1 8010 	ldr.w	r8, [r1, #16]
 8002f34:	f8d2 9010 	ldr.w	r9, [r2, #16]
 8002f38:	45c8      	cmp	r8, r9
 8002f3a:	b085      	sub	sp, #20
 8002f3c:	460e      	mov	r6, r1
 8002f3e:	4614      	mov	r4, r2
 8002f40:	db04      	blt.n	8002f4c <__multiply+0x20>
 8002f42:	464b      	mov	r3, r9
 8002f44:	460c      	mov	r4, r1
 8002f46:	46c1      	mov	r9, r8
 8002f48:	4616      	mov	r6, r2
 8002f4a:	4698      	mov	r8, r3
 8002f4c:	68a3      	ldr	r3, [r4, #8]
 8002f4e:	6861      	ldr	r1, [r4, #4]
 8002f50:	eb09 0708 	add.w	r7, r9, r8
 8002f54:	42bb      	cmp	r3, r7
 8002f56:	bfb8      	it	lt
 8002f58:	3101      	addlt	r1, #1
 8002f5a:	f7ff fe95 	bl	8002c88 <_Balloc>
 8002f5e:	b930      	cbnz	r0, 8002f6e <__multiply+0x42>
 8002f60:	4602      	mov	r2, r0
 8002f62:	4b4b      	ldr	r3, [pc, #300]	@ (8003090 <__multiply+0x164>)
 8002f64:	484b      	ldr	r0, [pc, #300]	@ (8003094 <__multiply+0x168>)
 8002f66:	f44f 71b1 	mov.w	r1, #354	@ 0x162
 8002f6a:	f001 fc5b 	bl	8004824 <__assert_func>
 8002f6e:	f100 0514 	add.w	r5, r0, #20
 8002f72:	eb05 0b87 	add.w	fp, r5, r7, lsl #2
 8002f76:	462b      	mov	r3, r5
 8002f78:	2200      	movs	r2, #0
 8002f7a:	455b      	cmp	r3, fp
 8002f7c:	d322      	bcc.n	8002fc4 <__multiply+0x98>
 8002f7e:	f106 0114 	add.w	r1, r6, #20
 8002f82:	eb01 0388 	add.w	r3, r1, r8, lsl #2
 8002f86:	f104 0c14 	add.w	ip, r4, #20
 8002f8a:	eb0c 0c89 	add.w	ip, ip, r9, lsl #2
 8002f8e:	9302      	str	r3, [sp, #8]
 8002f90:	f104 0315 	add.w	r3, r4, #21
 8002f94:	4563      	cmp	r3, ip
 8002f96:	bf8c      	ite	hi
 8002f98:	2300      	movhi	r3, #0
 8002f9a:	2301      	movls	r3, #1
 8002f9c:	9300      	str	r3, [sp, #0]
 8002f9e:	ebac 0304 	sub.w	r3, ip, r4
 8002fa2:	3b15      	subs	r3, #21
 8002fa4:	089b      	lsrs	r3, r3, #2
 8002fa6:	9301      	str	r3, [sp, #4]
 8002fa8:	9b02      	ldr	r3, [sp, #8]
 8002faa:	9103      	str	r1, [sp, #12]
 8002fac:	428b      	cmp	r3, r1
 8002fae:	d80c      	bhi.n	8002fca <__multiply+0x9e>
 8002fb0:	2f00      	cmp	r7, #0
 8002fb2:	dd03      	ble.n	8002fbc <__multiply+0x90>
 8002fb4:	f85b 3d04 	ldr.w	r3, [fp, #-4]!
 8002fb8:	2b00      	cmp	r3, #0
 8002fba:	d067      	beq.n	800308c <__multiply+0x160>
 8002fbc:	6107      	str	r7, [r0, #16]
 8002fbe:	b005      	add	sp, #20
 8002fc0:	e8bd 8ff0 	ldmia.w	sp!, {r4, r5, r6, r7, r8, r9, sl, fp, pc}
 8002fc4:	f843 2b04 	str.w	r2, [r3], #4
 8002fc8:	e7d7      	b.n	8002f7a <__multiply+0x4e>
 8002fca:	f8b1 a000 	ldrh.w	sl, [r1]
 8002fce:	f1ba 0f00 	cmp.w	sl, #0
 8002fd2:	d028      	beq.n	8003026 <__multiply+0xfa>
 8002fd4:	f104 0814 	add.w	r8, r4, #20
 8002fd8:	46a9      	mov	r9, r5
 8002fda:	f04f 0e00 	mov.w	lr, #0
 8002fde:	f858 2b04 	ldr.w	r2, [r8], #4
 8002fe2:	f8d9 3000 	ldr.w	r3, [r9]
 8002fe6:	b296      	uxth	r6, r2
 8002fe8:	b29b      	uxth	r3, r3
 8002fea:	fb0a 3306 	mla	r3, sl, r6, r3
 8002fee:	f8d9 6000 	ldr.w	r6, [r9]
 8002ff2:	0c12      	lsrs	r2, r2, #16
 8002ff4:	0c36      	lsrs	r6, r6, #16
 8002ff6:	4473      	add	r3, lr
 8002ff8:	fb0a 6602 	mla	r6, sl, r2, r6
 8002ffc:	eb06 4613 	add.w	r6, r6, r3, lsr #16
 8003000:	b29b      	uxth	r3, r3
 8003002:	ea43 4306 	orr.w	r3, r3, r6, lsl #16
 8003006:	45c4      	cmp	ip, r8
 8003008:	f849 3b04 	str.w	r3, [r9], #4
 800300c:	ea4f 4e16 	mov.w	lr, r6, lsr #16
 8003010:	d8e5      	bhi.n	8002fde <__multiply+0xb2>
 8003012:	9a00      	ldr	r2, [sp, #0]
 8003014:	9b01      	ldr	r3, [sp, #4]
 8003016:	2a00      	cmp	r2, #0
 8003018:	ea4f 0383 	mov.w	r3, r3, lsl #2
 800301c:	bf08      	it	eq
 800301e:	2300      	moveq	r3, #0
 8003020:	442b      	add	r3, r5
 8003022:	f8c3 e004 	str.w	lr, [r3, #4]
 8003026:	9b03      	ldr	r3, [sp, #12]
 8003028:	f8b3 e002 	ldrh.w	lr, [r3, #2]
 800302c:	3104      	adds	r1, #4
 800302e:	f1be 0f00 	cmp.w	lr, #0
 8003032:	d029      	beq.n	8003088 <__multiply+0x15c>
 8003034:	682b      	ldr	r3, [r5, #0]
 8003036:	f104 0614 	add.w	r6, r4, #20
 800303a:	4698      	mov	r8, r3
 800303c:	46a9      	mov	r9, r5
 800303e:	f04f 0a00 	mov.w	sl, #0
 8003042:	8832      	ldrh	r2, [r6, #0]
 8003044:	fb0e a202 	mla	r2, lr, r2, sl
 8003048:	eb02 4218 	add.w	r2, r2, r8, lsr #16
 800304c:	b29b      	uxth	r3, r3
 800304e:	ea43 4302 	orr.w	r3, r3, r2, lsl #16
 8003052:	f849 3b04 	str.w	r3, [r9], #4
 8003056:	f856 3b04 	ldr.w	r3, [r6], #4
 800305a:	f8d9 8000 	ldr.w	r8, [r9]
 800305e:	ea4f 4a13 	mov.w	sl, r3, lsr #16
 8003062:	fa1f f388 	uxth.w	r3, r8
 8003066:	fb0e 330a 	mla	r3, lr, sl, r3
 800306a:	eb03 4312 	add.w	r3, r3, r2, lsr #16
 800306e:	45b4      	cmp	ip, r6
 8003070:	ea4f 4a13 	mov.w	sl, r3, lsr #16
 8003074:	d8e5      	bhi.n	8003042 <__multiply+0x116>
 8003076:	9e00      	ldr	r6, [sp, #0]
 8003078:	9a01      	ldr	r2, [sp, #4]
 800307a:	2e00      	cmp	r6, #0
 800307c:	ea4f 0282 	mov.w	r2, r2, lsl #2
 8003080:	bf08      	it	eq
 8003082:	2200      	moveq	r2, #0
 8003084:	442a      	add	r2, r5
 8003086:	6053      	str	r3, [r2, #4]
 8003088:	3504      	adds	r5, #4
 800308a:	e78d      	b.n	8002fa8 <__multiply+0x7c>
 800308c:	3f01      	subs	r7, #1
 800308e:	e78f      	b.n	8002fb0 <__multiply+0x84>
 8003090:	08004c2b 			@ <UNDEFINED> instruction: 08004c2b
 8003094:	08004c3c 			@ <UNDEFINED> instruction: 08004c3c

Disassembly of section .text.__pow5mult:

08003098 <__pow5mult>:
 8003098:	e92d 43f8 	stmdb	sp!, {r3, r4, r5, r6, r7, r8, r9, lr}
 800309c:	4617      	mov	r7, r2
 800309e:	f012 0203 	ands.w	r2, r2, #3
 80030a2:	4680      	mov	r8, r0
 80030a4:	460d      	mov	r5, r1
 80030a6:	d007      	beq.n	80030b8 <__pow5mult+0x20>
 80030a8:	4c26      	ldr	r4, [pc, #152]	@ (8003144 <__pow5mult+0xac>)
 80030aa:	3a01      	subs	r2, #1
 80030ac:	2300      	movs	r3, #0
 80030ae:	f854 2022 	ldr.w	r2, [r4, r2, lsl #2]
 80030b2:	f7ff fe49 	bl	8002d48 <__multadd>
 80030b6:	4605      	mov	r5, r0
 80030b8:	10bf      	asrs	r7, r7, #2
 80030ba:	d03f      	beq.n	800313c <__pow5mult+0xa4>
 80030bc:	f8d8 401c 	ldr.w	r4, [r8, #28]
 80030c0:	b994      	cbnz	r4, 80030e8 <__pow5mult+0x50>
 80030c2:	2010      	movs	r0, #16
 80030c4:	f7ff fd26 	bl	8002b14 <malloc>
 80030c8:	4604      	mov	r4, r0
 80030ca:	f8c8 001c 	str.w	r0, [r8, #28]
 80030ce:	b930      	cbnz	r0, 80030de <__pow5mult+0x46>
 80030d0:	4602      	mov	r2, r0
 80030d2:	4b1d      	ldr	r3, [pc, #116]	@ (8003148 <__pow5mult+0xb0>)
 80030d4:	481d      	ldr	r0, [pc, #116]	@ (800314c <__pow5mult+0xb4>)
 80030d6:	f240 11b3 	movw	r1, #435	@ 0x1b3
 80030da:	f001 fba3 	bl	8004824 <__assert_func>
 80030de:	2300      	movs	r3, #0
 80030e0:	e9c0 3301 	strd	r3, r3, [r0, #4]
 80030e4:	6003      	str	r3, [r0, #0]
 80030e6:	60c3      	str	r3, [r0, #12]
 80030e8:	68a6      	ldr	r6, [r4, #8]
 80030ea:	b946      	cbnz	r6, 80030fe <__pow5mult+0x66>
 80030ec:	f240 2171 	movw	r1, #625	@ 0x271
 80030f0:	4640      	mov	r0, r8
 80030f2:	f7ff ff05 	bl	8002f00 <__i2b>
 80030f6:	2300      	movs	r3, #0
 80030f8:	60a0      	str	r0, [r4, #8]
 80030fa:	4606      	mov	r6, r0
 80030fc:	6003      	str	r3, [r0, #0]
 80030fe:	462c      	mov	r4, r5
 8003100:	f04f 0900 	mov.w	r9, #0
 8003104:	f007 0301 	and.w	r3, r7, #1
 8003108:	107f      	asrs	r7, r7, #1
 800310a:	b153      	cbz	r3, 8003122 <__pow5mult+0x8a>
 800310c:	4629      	mov	r1, r5
 800310e:	4632      	mov	r2, r6
 8003110:	4640      	mov	r0, r8
 8003112:	f7ff ff0b 	bl	8002f2c <__multiply>
 8003116:	4621      	mov	r1, r4
 8003118:	4605      	mov	r5, r0
 800311a:	4640      	mov	r0, r8
 800311c:	f7ff fdf2 	bl	8002d04 <_Bfree>
 8003120:	b167      	cbz	r7, 800313c <__pow5mult+0xa4>
 8003122:	6830      	ldr	r0, [r6, #0]
 8003124:	b938      	cbnz	r0, 8003136 <__pow5mult+0x9e>
 8003126:	4632      	mov	r2, r6
 8003128:	4631      	mov	r1, r6
 800312a:	4640      	mov	r0, r8
 800312c:	f7ff fefe 	bl	8002f2c <__multiply>
 8003130:	6030      	str	r0, [r6, #0]
 8003132:	f8c0 9000 	str.w	r9, [r0]
 8003136:	4606      	mov	r6, r0
 8003138:	462c      	mov	r4, r5
 800313a:	e7e3      	b.n	8003104 <__pow5mult+0x6c>
 800313c:	4628      	mov	r0, r5
 800313e:	e8bd 83f8 	ldmia.w	sp!, {r3, r4, r5, r6, r7, r8, r9, pc}
 8003142:	bf00      	nop
 8003144:	08004cf0 			@ <UNDEFINED> instruction: 08004cf0
 8003148:	08004bbb 			@ <UNDEFINED> instruction: 08004bbb
 800314c:	08004c3c 			@ <UNDEFINED> instruction: 08004c3c

Disassembly of section .text.__lshift:

08003150 <__lshift>:
 8003150:	e92d 4ff8 	stmdb	sp!, {r3, r4, r5, r6, r7, r8, r9, sl, fp, lr}
 8003154:	460c      	mov	r4, r1
 8003156:	6849      	ldr	r1, [r1, #4]
 8003158:	6926      	ldr	r6, [r4, #16]
 800315a:	68a3      	ldr	r3, [r4, #8]
 800315c:	eb06 1662 	add.w	r6, r6, r2, asr #5
 8003160:	4607      	mov	r7, r0
 8003162:	4691      	mov	r9, r2
 8003164:	ea4f 1a62 	mov.w	sl, r2, asr #5
 8003168:	f106 0801 	add.w	r8, r6, #1
 800316c:	4543      	cmp	r3, r8
 800316e:	db0b      	blt.n	8003188 <__lshift+0x38>
 8003170:	4638      	mov	r0, r7
 8003172:	f7ff fd89 	bl	8002c88 <_Balloc>
 8003176:	4605      	mov	r5, r0
 8003178:	b948      	cbnz	r0, 800318e <__lshift+0x3e>
 800317a:	4602      	mov	r2, r0
 800317c:	4b2b      	ldr	r3, [pc, #172]	@ (800322c <__lshift+0xdc>)
 800317e:	482c      	ldr	r0, [pc, #176]	@ (8003230 <__lshift+0xe0>)
 8003180:	f44f 71ef 	mov.w	r1, #478	@ 0x1de
 8003184:	f001 fb4e 	bl	8004824 <__assert_func>
 8003188:	3101      	adds	r1, #1
 800318a:	005b      	lsls	r3, r3, #1
 800318c:	e7ee      	b.n	800316c <__lshift+0x1c>
 800318e:	f100 0114 	add.w	r1, r0, #20
 8003192:	2300      	movs	r3, #0
 8003194:	460a      	mov	r2, r1
 8003196:	4618      	mov	r0, r3
 8003198:	4553      	cmp	r3, sl
 800319a:	db39      	blt.n	8003210 <__lshift+0xc0>
 800319c:	6920      	ldr	r0, [r4, #16]
 800319e:	ea2a 7aea 	bic.w	sl, sl, sl, asr #31
 80031a2:	eb01 018a 	add.w	r1, r1, sl, lsl #2
 80031a6:	f104 0314 	add.w	r3, r4, #20
 80031aa:	f019 091f 	ands.w	r9, r9, #31
 80031ae:	468c      	mov	ip, r1
 80031b0:	eb03 0080 	add.w	r0, r3, r0, lsl #2
 80031b4:	d030      	beq.n	8003218 <__lshift+0xc8>
 80031b6:	f1c9 0a20 	rsb	sl, r9, #32
 80031ba:	f04f 0e00 	mov.w	lr, #0
 80031be:	681a      	ldr	r2, [r3, #0]
 80031c0:	46e3      	mov	fp, ip
 80031c2:	fa02 f209 	lsl.w	r2, r2, r9
 80031c6:	ea42 020e 	orr.w	r2, r2, lr
 80031ca:	f8cb 2000 	str.w	r2, [fp]
 80031ce:	f853 2b04 	ldr.w	r2, [r3], #4
 80031d2:	4298      	cmp	r0, r3
 80031d4:	f10c 0c04 	add.w	ip, ip, #4
 80031d8:	fa22 fe0a 	lsr.w	lr, r2, sl
 80031dc:	d8ef      	bhi.n	80031be <__lshift+0x6e>
 80031de:	1b03      	subs	r3, r0, r4
 80031e0:	3b15      	subs	r3, #21
 80031e2:	f023 0303 	bic.w	r3, r3, #3
 80031e6:	f104 0215 	add.w	r2, r4, #21
 80031ea:	4290      	cmp	r0, r2
 80031ec:	bf38      	it	cc
 80031ee:	2300      	movcc	r3, #0
 80031f0:	4419      	add	r1, r3
 80031f2:	f8c1 e004 	str.w	lr, [r1, #4]
 80031f6:	f1be 0f00 	cmp.w	lr, #0
 80031fa:	d100      	bne.n	80031fe <__lshift+0xae>
 80031fc:	46b0      	mov	r8, r6
 80031fe:	4638      	mov	r0, r7
 8003200:	f8c5 8010 	str.w	r8, [r5, #16]
 8003204:	4621      	mov	r1, r4
 8003206:	f7ff fd7d 	bl	8002d04 <_Bfree>
 800320a:	4628      	mov	r0, r5
 800320c:	e8bd 8ff8 	ldmia.w	sp!, {r3, r4, r5, r6, r7, r8, r9, sl, fp, pc}
 8003210:	f842 0b04 	str.w	r0, [r2], #4
 8003214:	3301      	adds	r3, #1
 8003216:	e7bf      	b.n	8003198 <__lshift+0x48>
 8003218:	f853 1b04 	ldr.w	r1, [r3], #4
 800321c:	f8cc 1000 	str.w	r1, [ip]
 8003220:	4298      	cmp	r0, r3
 8003222:	f10c 0c04 	add.w	ip, ip, #4
 8003226:	d8f7      	bhi.n	8003218 <__lshift+0xc8>
 8003228:	e7e8      	b.n	80031fc <__lshift+0xac>
 800322a:	bf00      	nop
 800322c:	08004c2b 			@ <UNDEFINED> instruction: 08004c2b
 8003230:	08004c3c 			@ <UNDEFINED> instruction: 08004c3c

Disassembly of section .text.__mcmp:

08003234 <__mcmp>:
 8003234:	6903      	ldr	r3, [r0, #16]
 8003236:	690a      	ldr	r2, [r1, #16]
 8003238:	1a9b      	subs	r3, r3, r2
 800323a:	b530      	push	{r4, r5, lr}
 800323c:	d10e      	bne.n	800325c <__mcmp+0x28>
 800323e:	3014      	adds	r0, #20
 8003240:	3114      	adds	r1, #20
 8003242:	eb00 0482 	add.w	r4, r0, r2, lsl #2
 8003246:	eb01 0182 	add.w	r1, r1, r2, lsl #2
 800324a:	f854 5d04 	ldr.w	r5, [r4, #-4]!
 800324e:	f851 2d04 	ldr.w	r2, [r1, #-4]!
 8003252:	4295      	cmp	r5, r2
 8003254:	d004      	beq.n	8003260 <__mcmp+0x2c>
 8003256:	d206      	bcs.n	8003266 <__mcmp+0x32>
 8003258:	f04f 33ff 	mov.w	r3, #4294967295
 800325c:	4618      	mov	r0, r3
 800325e:	bd30      	pop	{r4, r5, pc}
 8003260:	42a0      	cmp	r0, r4
 8003262:	d3f2      	bcc.n	800324a <__mcmp+0x16>
 8003264:	e7fa      	b.n	800325c <__mcmp+0x28>
 8003266:	2301      	movs	r3, #1
 8003268:	e7f8      	b.n	800325c <__mcmp+0x28>

Disassembly of section .text.__mdiff:

0800326c <__mdiff>:
 800326c:	e92d 4ff7 	stmdb	sp!, {r0, r1, r2, r4, r5, r6, r7, r8, r9, sl, fp, lr}
 8003270:	468a      	mov	sl, r1
 8003272:	4606      	mov	r6, r0
 8003274:	4611      	mov	r1, r2
 8003276:	4650      	mov	r0, sl
 8003278:	4614      	mov	r4, r2
 800327a:	f7ff ffdb 	bl	8003234 <__mcmp>
 800327e:	1e05      	subs	r5, r0, #0
 8003280:	d112      	bne.n	80032a8 <__mdiff+0x3c>
 8003282:	4629      	mov	r1, r5
 8003284:	4630      	mov	r0, r6
 8003286:	f7ff fcff 	bl	8002c88 <_Balloc>
 800328a:	4602      	mov	r2, r0
 800328c:	b928      	cbnz	r0, 800329a <__mdiff+0x2e>
 800328e:	4b41      	ldr	r3, [pc, #260]	@ (8003394 <__mdiff+0x128>)
 8003290:	f240 2137 	movw	r1, #567	@ 0x237
 8003294:	4840      	ldr	r0, [pc, #256]	@ (8003398 <__mdiff+0x12c>)
 8003296:	f001 fac5 	bl	8004824 <__assert_func>
 800329a:	2301      	movs	r3, #1
 800329c:	e9c0 3504 	strd	r3, r5, [r0, #16]
 80032a0:	4610      	mov	r0, r2
 80032a2:	b003      	add	sp, #12
 80032a4:	e8bd 8ff0 	ldmia.w	sp!, {r4, r5, r6, r7, r8, r9, sl, fp, pc}
 80032a8:	bfbc      	itt	lt
 80032aa:	4653      	movlt	r3, sl
 80032ac:	46a2      	movlt	sl, r4
 80032ae:	4630      	mov	r0, r6
 80032b0:	f8da 1004 	ldr.w	r1, [sl, #4]
 80032b4:	bfba      	itte	lt
 80032b6:	461c      	movlt	r4, r3
 80032b8:	2501      	movlt	r5, #1
 80032ba:	2500      	movge	r5, #0
 80032bc:	f7ff fce4 	bl	8002c88 <_Balloc>
 80032c0:	4602      	mov	r2, r0
 80032c2:	b918      	cbnz	r0, 80032cc <__mdiff+0x60>
 80032c4:	4b33      	ldr	r3, [pc, #204]	@ (8003394 <__mdiff+0x128>)
 80032c6:	f240 2145 	movw	r1, #581	@ 0x245
 80032ca:	e7e3      	b.n	8003294 <__mdiff+0x28>
 80032cc:	f8da 7010 	ldr.w	r7, [sl, #16]
 80032d0:	6926      	ldr	r6, [r4, #16]
 80032d2:	60c5      	str	r5, [r0, #12]
 80032d4:	f10a 0914 	add.w	r9, sl, #20
 80032d8:	f104 0e14 	add.w	lr, r4, #20
 80032dc:	f100 0514 	add.w	r5, r0, #20
 80032e0:	f10a 0310 	add.w	r3, sl, #16
 80032e4:	eb09 0887 	add.w	r8, r9, r7, lsl #2
 80032e8:	eb0e 0686 	add.w	r6, lr, r6, lsl #2
 80032ec:	9301      	str	r3, [sp, #4]
 80032ee:	46ab      	mov	fp, r5
 80032f0:	f04f 0c00 	mov.w	ip, #0
 80032f4:	9b01      	ldr	r3, [sp, #4]
 80032f6:	f85e 0b04 	ldr.w	r0, [lr], #4
 80032fa:	f853 af04 	ldr.w	sl, [r3, #4]!
 80032fe:	9301      	str	r3, [sp, #4]
 8003300:	fa1f f18a 	uxth.w	r1, sl
 8003304:	b283      	uxth	r3, r0
 8003306:	1acb      	subs	r3, r1, r3
 8003308:	0c00      	lsrs	r0, r0, #16
 800330a:	4463      	add	r3, ip
 800330c:	ebc0 401a 	rsb	r0, r0, sl, lsr #16
 8003310:	eb00 4023 	add.w	r0, r0, r3, asr #16
 8003314:	b29b      	uxth	r3, r3
 8003316:	ea43 4300 	orr.w	r3, r3, r0, lsl #16
 800331a:	4576      	cmp	r6, lr
 800331c:	f84b 3b04 	str.w	r3, [fp], #4
 8003320:	ea4f 4c20 	mov.w	ip, r0, asr #16
 8003324:	d8e6      	bhi.n	80032f4 <__mdiff+0x88>
 8003326:	1b33      	subs	r3, r6, r4
 8003328:	3b15      	subs	r3, #21
 800332a:	3415      	adds	r4, #21
 800332c:	f023 0303 	bic.w	r3, r3, #3
 8003330:	42a6      	cmp	r6, r4
 8003332:	bf38      	it	cc
 8003334:	2300      	movcc	r3, #0
 8003336:	18e8      	adds	r0, r5, r3
 8003338:	444b      	add	r3, r9
 800333a:	1d1c      	adds	r4, r3, #4
 800333c:	3004      	adds	r0, #4
 800333e:	4626      	mov	r6, r4
 8003340:	eba5 0509 	sub.w	r5, r5, r9
 8003344:	4546      	cmp	r6, r8
 8003346:	d30e      	bcc.n	8003366 <__mdiff+0xfa>
 8003348:	f108 0103 	add.w	r1, r8, #3
 800334c:	1b09      	subs	r1, r1, r4
 800334e:	f021 0103 	bic.w	r1, r1, #3
